 rBot

 Timestamp is 5567488c (Thu May 28 23:55:40 2015)

 Preferred load address is 00400000

 Start         Length     Name                   Class
 0001:00000000 00042577H .text                   CODE
 0001:00042580 000008c8H .text$x                 CODE
 0002:00000000 000022b9H .rdata                  DATA
 0002:000022c0 000006a4H .rdata$r                DATA
 0002:00002968 00000b58H .xdata$x                DATA
 0002:000034c0 00000000H .edata                  DATA
 0003:00000000 00000004H .CRT$XCA                DATA
 0003:00000004 000002b8H .CRT$XCU                DATA
 0003:000002bc 00000004H .CRT$XCZ                DATA
 0003:000002c0 00000004H .CRT$XIA                DATA
 0003:000002c4 0000000cH .CRT$XIC                DATA
 0003:000002d0 00000004H .CRT$XIY                DATA
 0003:000002d4 00000004H .CRT$XIZ                DATA
 0003:000002d8 00000004H .CRT$XPA                DATA
 0003:000002dc 00000004H .CRT$XPX                DATA
 0003:000002e0 00000004H .CRT$XPZ                DATA
 0003:000002e4 00000004H .CRT$XTA                DATA
 0003:000002e8 00000004H .CRT$XTB                DATA
 0003:000002ec 00000004H .CRT$XTZ                DATA
 0003:000002f0 000094dcH .data                   DATA
 0003:000097d0 0002c174H .bss                    DATA
 0004:00000000 00000028H .idata$2                DATA
 0004:00000028 00000014H .idata$3                DATA
 0004:0000003c 00000218H .idata$4                DATA
 0004:00000254 00000218H .idata$5                DATA
 0004:0000046c 0000099aH .idata$6                DATA

  Address         Publics by Value              Rva+Base     Lib:Object

 0001:00000000       ?ListExploitStats@@YAXIPADH@Z 00401000 f   advscan.obj
 0001:00000123       ?currentIP@@YAXIPADHH@Z    00401123 f   advscan.obj
 0001:000001a7       ?CheckServers@@YAXUADVSCAN@@@Z 004011a7 f   advscan.obj
 0001:000004a1       ?AdvGetNextIP@@YAKH@Z      004014a1 f   advscan.obj
 0001:00000502       ?AdvGetNextIPRandom@@YAKPADH@Z 00401502 f   advscan.obj
 0001:000005b6       ?AdvPortOpen@@YAHKII@Z     004015b6 f   advscan.obj
 0001:00000709       ?SynPortOpen@@YAHKKII@Z    00401709 f   advscan.obj
 0001:000009a6       ?AdvPortScanner@@YGKPAX@Z  004019a6 f   advscan.obj
 0001:00000c7b       ?AdvScanner@@YGKPAX@Z      00401c7b f   advscan.obj
 0001:00000fd8       ?id@?$ctype@G@std@@$D      00401fd8 f i advscan.obj
 0001:00000ff7       ?id@?$ctype@G@std@@$E      00401ff7 f i advscan.obj
 0001:00000ffc       ?addalias@@YAHPAD0@Z       00401ffc f   aliaslog.obj
 0001:000010b8       ?aliaslist@@YAXIPADH@Z     004020b8 f   aliaslog.obj
 0001:00001158       ?addlog@@YAXPAD@Z          00402158 f   aliaslog.obj
 0001:000011ee       ?addlogv@@YAXPADZZ         004021ee f   aliaslog.obj
 0001:00001226       ?showlog@@YAXIPADHH0@Z     00402226 f   aliaslog.obj
 0001:0000131e       ?clearlog@@YAXIPADHH@Z     0040231e f   aliaslog.obj
 0001:00001372       ?searchlog@@YAHPAD@Z       00402372 f   aliaslog.obj
 0001:000013c2       ?ShowLogThread@@YGKPAX@Z   004023c2 f   aliaslog.obj
 0001:00001567       ?HandlerRoutine@@YGHK@Z    00402567 f   aliaslog.obj
 0001:0000158a       ?OpenConsole@@YAXXZ        0040258a f   aliaslog.obj
 0001:000016dc       ?AutoStartRegs@@YAXPAD@Z   004026dc f   autostart.obj
 0001:000017fc       ?Capture@@YAHPAD@Z         004027fc f   capture.obj
 0001:00001b0b       ?CaptureFrame@@YAHPADHHH@Z 00402b0b f   capture.obj
 0001:00001df0       ?CaptureVideo@@YAHPADHHHH@Z 00402df0 f   capture.obj
 0001:0000233e       _cJSON_GetErrorPtr         0040333e f   cJSON.obj
 0001:00002348       _cJSON_InitHooks           00403348 f   cJSON.obj
 0001:000023af       _cJSON_Delete              004033af f   cJSON.obj
 0001:00002434       _cJSON_ParseWithOpts       00403434 f   cJSON.obj
 0001:0000251a       _cJSON_Parse               0040351a f   cJSON.obj
 0001:0000252e       _cJSON_Print               0040352e f   cJSON.obj
 0001:00002542       _cJSON_PrintUnformatted    00403542 f   cJSON.obj
 0001:00003b9a       _cJSON_GetArraySize        00404b9a f   cJSON.obj
 0001:00003bc8       _cJSON_GetArrayItem        00404bc8 f   cJSON.obj
 0001:00003bf7       _cJSON_GetObjectItem       00404bf7 f   cJSON.obj
 0001:00003cb4       _cJSON_AddItemToArray      00404cb4 f   cJSON.obj
 0001:00003d17       _cJSON_AddItemToObject     00404d17 f   cJSON.obj
 0001:00003d56       _cJSON_AddItemReferenceToArray 00404d56 f   cJSON.obj
 0001:00003dbd       _cJSON_AddItemReferenceToObject 00404dbd f   cJSON.obj
 0001:00003dda       _cJSON_DetachItemFromArray 00404dda f   cJSON.obj
 0001:00003e62       _cJSON_DeleteItemFromArray 00404e62 f   cJSON.obj
 0001:00003e7b       _cJSON_DetachItemFromObject 00404e7b f   cJSON.obj
 0001:00003ed1       _cJSON_DeleteItemFromObject 00404ed1 f   cJSON.obj
 0001:00003eea       _cJSON_ReplaceItemInArray  00404eea f   cJSON.obj
 0001:00003f7e       _cJSON_ReplaceItemInObject 00404f7e f   cJSON.obj
 0001:00003fe3       _cJSON_CreateNull          00404fe3 f   cJSON.obj
 0001:00004004       _cJSON_CreateTrue          00405004 f   cJSON.obj
 0001:00004025       _cJSON_CreateFalse         00405025 f   cJSON.obj
 0001:00004043       _cJSON_CreateBool          00405043 f   cJSON.obj
 0001:00004069       _cJSON_CreateNumber        00405069 f   cJSON.obj
 0001:000040a1       _cJSON_CreateString        004050a1 f   cJSON.obj
 0001:000040d1       _cJSON_CreateArray         004050d1 f   cJSON.obj
 0001:000040f2       _cJSON_CreateObject        004050f2 f   cJSON.obj
 0001:00004113       _cJSON_CreateIntArray      00405113 f   cJSON.obj
 0001:00004187       _cJSON_CreateFloatArray    00405187 f   cJSON.obj
 0001:000041fb       _cJSON_CreateDoubleArray   004051fb f   cJSON.obj
 0001:0000426f       _cJSON_CreateStringArray   0040526f f   cJSON.obj
 0001:000042dd       _cJSON_Duplicate           004052dd f   cJSON.obj
 0001:0000440e       _cJSON_Minify              0040540e f   cJSON.obj
 0001:0000465b       ?crc32@@YAKPADI@Z          0040565b f   crc32.obj
 0001:000046bf       ?crc32f@@YAKPAD@Z          004056bf f   crc32.obj
 0001:000047fc       ?Crypt@@YAXPADK0K@Z        004057fc f   crypt.obj
 0001:00004e38       ?DDOSThread@@YGKPAX@Z      00405e38 f   ddos.obj
 0001:00004f00       ?SendDDOS@@YAJKIPADGH@Z    00405f00 f   ddos.obj
 0001:00005342       ?DDOSAttack@@YAJPAD000@Z   00406342 f   ddos.obj
 0001:0000545e       ?DownloadThread@@YGKPAX@Z  0040645e f   download.obj
 0001:00005af3       ?Xorbuff@@YAPADPADH@Z      00406af3 f   download.obj
 0001:00005bc2       ?FileExists@@YAHPADH@Z     00406bc2 f   driveinfo.obj
 0001:00005bde       ?commaI64@@YAPBD_K@Z       00406bde f   driveinfo.obj
 0001:00005cb2       ?DriveType@@YAPBDPBD@Z     00406cb2 f   driveinfo.obj
 0001:00005d19       ?DiskSpace@@YA?AUDKSP@@PBD@Z 00406d19 f   driveinfo.obj
 0001:00005d69       ?DiskSpaceKB@@YA?AUDKSPKB@@PBD@Z 00406d69 f   driveinfo.obj
 0001:00005ed4       ?DriveSpace@@YAXIPADHPBD@Z 00406ed4 f   driveinfo.obj
 0001:00005fad       ?DriveInfo@@YAXIPADHPBD@Z  00406fad f   driveinfo.obj
 0001:00006186       ?String2Char@@YAHV?$basic_string@DU?$char_traits@D@std@@V?$allocator@D@2@@std@@QAD@Z 00407186 f   facebook.obj
 0001:000061f3       ?GetFBStatuses@@YA?AUFbStatus@@V?$basic_string@DU?$char_traits@D@std@@V?$allocator@D@2@@std@@00@Z 004071f3 f   facebook.obj
 0001:000066e5       ?UpStatusFb@@YAHV?$basic_string@DU?$char_traits@D@std@@V?$allocator@D@2@@std@@00@Z 004076e5 f   facebook.obj
 0001:00006a3e       ?DecodeMessage@@YAXPADAAV?$basic_string@DU?$char_traits@D@std@@V?$allocator@D@2@@std@@@Z 00407a3e f   facebook.obj
 0001:00006f46       ?str2chr@@YAXQADV?$basic_string@DU?$char_traits@D@std@@V?$allocator@D@2@@std@@@Z 00407f46 f   facebook.obj
 0001:00007047       ??0?$basic_string@DU?$char_traits@D@std@@V?$allocator@D@2@@std@@QAE@ABV01@@Z 00408047 f i facebook.obj
 0001:0000707c       ??0?$basic_string@DU?$char_traits@D@std@@V?$allocator@D@2@@std@@QAE@PBDABV?$allocator@D@1@@Z 0040807c f i facebook.obj
 0001:000070a9       ??0?$basic_string@DU?$char_traits@D@std@@V?$allocator@D@2@@std@@QAE@IDABV?$allocator@D@1@@Z 004080a9 f i facebook.obj
 0001:000070d9       ??1?$basic_string@DU?$char_traits@D@std@@V?$allocator@D@2@@std@@QAE@XZ 004080d9 f i facebook.obj
 0001:000070ec       ?append@?$basic_string@DU?$char_traits@D@std@@V?$allocator@D@2@@std@@QAEAAV12@ABV12@@Z 004080ec f i facebook.obj
 0001:0000710a       ?append@?$basic_string@DU?$char_traits@D@std@@V?$allocator@D@2@@std@@QAEAAV12@PBD@Z 0040810a f i facebook.obj
 0001:0000712a       ?length@?$char_traits@D@std@@SAIPBD@Z 0040812a f i facebook.obj
 0001:00007138       ??A?$basic_string@DU?$char_traits@D@std@@V?$allocator@D@2@@std@@QAEAADI@Z 00408138 f i facebook.obj
 0001:0000716f       ?length@?$basic_string@DU?$char_traits@D@std@@V?$allocator@D@2@@std@@QBEIXZ 0040816f f i facebook.obj
 0001:0000717e       ?size@?$basic_string@DU?$char_traits@D@std@@V?$allocator@D@2@@std@@QBEIXZ 0040817e f i facebook.obj
 0001:0000718d       ?append@?$basic_string@DU?$char_traits@D@std@@V?$allocator@D@2@@std@@QAEAAV12@ABV12@II@Z 0040818d f i facebook.obj
 0001:00007235       ?copy@?$char_traits@D@std@@SAPADPADPBDI@Z 00408235 f i facebook.obj
 0001:0000724b       ?c_str@?$basic_string@DU?$char_traits@D@std@@V?$allocator@D@2@@std@@QBEPBDXZ 0040824b f i facebook.obj
 0001:00007274       ?append@?$basic_string@DU?$char_traits@D@std@@V?$allocator@D@2@@std@@QAEAAV12@PBDI@Z 00408274 f i facebook.obj
 0001:000072e5       ?assign@?$basic_string@DU?$char_traits@D@std@@V?$allocator@D@2@@std@@QAEAAV12@ABV12@II@Z 004082e5 f i facebook.obj
 0001:0000742b       ?assign@?$basic_string@DU?$char_traits@D@std@@V?$allocator@D@2@@std@@QAEAAV12@PBD@Z 0040842b f i facebook.obj
 0001:0000744b       ?assign@?$basic_string@DU?$char_traits@D@std@@V?$allocator@D@2@@std@@QAEAAV12@ID@Z 0040844b f i facebook.obj
 0001:0000749d       ?assign@?$char_traits@D@std@@SAPADPADIABD@Z 0040849d f i facebook.obj
 0001:000074b7       ?_Freeze@?$basic_string@DU?$char_traits@D@std@@V?$allocator@D@2@@std@@AAEXXZ 004084b7 f i facebook.obj
 0001:00007520       ?_Nullstr@?$basic_string@DU?$char_traits@D@std@@V?$allocator@D@2@@std@@CAPBDXZ 00408520 f i facebook.obj
 0001:0000752a       ?_Tidy@?$basic_string@DU?$char_traits@D@std@@V?$allocator@D@2@@std@@AAEX_N@Z 0040852a f i facebook.obj
 0001:000075c3       ?assign@?$basic_string@DU?$char_traits@D@std@@V?$allocator@D@2@@std@@QAEAAV12@PBDI@Z 004085c3 f i facebook.obj
 0001:00007604       ?erase@?$basic_string@DU?$char_traits@D@std@@V?$allocator@D@2@@std@@QAEAAV12@II@Z 00408604 f i facebook.obj
 0001:000076a2       ?move@?$char_traits@D@std@@SAPADPADPBDI@Z 004086a2 f i facebook.obj
 0001:000076b8       ?capacity@?$basic_string@DU?$char_traits@D@std@@V?$allocator@D@2@@std@@QBEIXZ 004086b8 f i facebook.obj
 0001:000076c7       ?_Eos@?$basic_string@DU?$char_traits@D@std@@V?$allocator@D@2@@std@@AAEXI@Z 004086c7 f i facebook.obj
 0001:000076f5       ?assign@?$char_traits@D@std@@SAXAADABD@Z 004086f5 f i facebook.obj
 0001:00007704       ?_Grow@?$basic_string@DU?$char_traits@D@std@@V?$allocator@D@2@@std@@AAE_NI_N@Z 00408704 f i facebook.obj
 0001:00007822       ?_Refcnt@?$basic_string@DU?$char_traits@D@std@@V?$allocator@D@2@@std@@AAEAAEPBD@Z 00408822 f i facebook.obj
 0001:00007831       ?deallocate@?$allocator@D@std@@QAEXPAXI@Z 00408831 f i facebook.obj
 0001:00007845       ?max_size@?$basic_string@DU?$char_traits@D@std@@V?$allocator@D@2@@std@@QBEIXZ 00408845 f i facebook.obj
 0001:00007875       ?_Copy@?$basic_string@DU?$char_traits@D@std@@V?$allocator@D@2@@std@@AAEXI@Z 00408875 f i facebook.obj
 0001:0000798d       ?_Split@?$basic_string@DU?$char_traits@D@std@@V?$allocator@D@2@@std@@AAEXXZ 0040898d f i facebook.obj
 0001:000079eb       ?allocate@?$allocator@D@std@@QAEPADIPBX@Z 004089eb f i facebook.obj
 0001:00007a02       ?max_size@?$allocator@D@std@@QBEIXZ 00408a02 f i facebook.obj
 0001:00007a29       ??Hstd@@YA?AV?$basic_string@DU?$char_traits@D@std@@V?$allocator@D@2@@0@ABV10@0@Z 00408a29 f i facebook.obj
 0001:00007a8c       ??Hstd@@YA?AV?$basic_string@DU?$char_traits@D@std@@V?$allocator@D@2@@0@ABV10@PBD@Z 00408a8c f i facebook.obj
 0001:00007aef       ??Hstd@@YA?AV?$basic_string@DU?$char_traits@D@std@@V?$allocator@D@2@@0@PBDABV10@@Z 00408aef f i facebook.obj
 0001:00007b56       ??8std@@YA_NABV?$allocator@D@0@0@Z 00408b56 f i facebook.obj
 0001:00007b5d       ?_Allocate@std@@YAPADHPAD@Z 00408b5d f i facebook.obj
 0001:00007b75       ??Y?$basic_string@DU?$char_traits@D@std@@V?$allocator@D@2@@std@@QAEAAV01@ABV01@@Z 00408b75 f i facebook.obj
 0001:00007b8b       ??Y?$basic_string@DU?$char_traits@D@std@@V?$allocator@D@2@@std@@QAEAAV01@PBD@Z 00408b8b f i facebook.obj
 0001:00007ba1       ?FindFileThread@@YGKPAX@Z  00408ba1 f   findfile.obj
 0001:00007ce3       ?FindFile@@YAIIPADH00I@Z   00408ce3 f   findfile.obj
 0001:00007faa       ?MemContains@@YA_NPBDH0H@Z 00408faa f   fphost.obj
 0001:00007fe9       ?FpHost@@YAHPBDH@Z         00408fe9 f   fphost.obj
 0001:0000833c       ?HTTP_Server_Thread@@YGKPAX@Z 0040933c f   httpd.obj
 0001:000089ef       ?HTTP_Header@@YGKPAX@Z     004099ef f   httpd.obj
 0001:00008bdd       ?Check_Requested_File@@YAHIPAD0HH@Z 00409bdd f   httpd.obj
 0001:00008f9f       ?GetFiles@@YAHPADI00@Z     00409f9f f   httpd.obj
 0001:0000978d       ?HTTP_Send_File@@YAXIPAD@Z 0040a78d f   httpd.obj
 0001:00009896       ?File_To_HTML@@YAPADPAD@Z  0040a896 f   httpd.obj
 0001:000098d3       ?HTTP_Connect@@YAXIPADHH0H000@Z 0040a8d3 f   httpd.obj
 0001:00009ad1       ?ICMPFloodThread@@YGKPAX@Z 0040aad1 f   icmpflood.obj
 0001:0000a089       ?irc_sendv@@YAXIPADZZ      0040b089 f   irc_send.obj
 0001:0000a0da       ?irc_privmsg@@YAXIPAD0HH@Z 0040b0da f   irc_send.obj
 0001:0000a229       ?SaveKeys@@YAHPADUKEYLOG@@@Z 0040b229 f   keylogger.obj
 0001:0000a325       ?KeyLoggerThread@@YGKPAX@Z 0040b325 f   keylogger.obj
 0001:0000a872       ?LoadDLLs@@YAHXZ           0040b872 f   loaddlls.obj
 0001:0000b936       ?CheckDLLs@@YAXIPADHH@Z    0040c936 f   loaddlls.obj
 0001:0000bd70       ?ConnectShell@@YA_NUEXINFO@@@Z 0040cd70 f   lsass.obj
 0001:0000becd       ?Exploit2@@YA_NUEXINFO@@IH@Z 0040cecd f   lsass.obj
 0001:0000c48a       ?lsass@@YAHUEXINFO@@@Z     0040d48a f   lsass.obj
 0001:0000c7b5       ?replacestr@@YAPADPADPBD1@Z 0040d7b5 f   misc.obj
 0001:0000c881       ?Split@@YAHPADPAX@Z        0040d881 f   misc.obj
 0001:0000c9db       ?initskip@@YAXPADHQAH@Z    0040d9db f   misc.obj
 0001:0000ca3c       ?lstrindex@@YAHD@Z         0040da3c f   misc.obj
 0001:0000ca6d       ?lstrstr@@YAPADPAD0@Z      0040da6d f   misc.obj
 0001:0000cbb7       ?PrintError@@YAPADPAD@Z    0040dbb7 f   misc.obj
 0001:0000cc78       ?GetClipboardText@@YAPADXZ 0040dc78 f   misc.obj
 0001:0000ccc2       ?mirccmd@@YAHPAD@Z         0040dcc2 f   misc.obj
 0001:0000cd5c       ?SetFileTime@@YAXPAD@Z     0040dd5c f   misc.obj
 0001:0000ce39       ?CreateProc@@YAKPAD0@Z     0040de39 f   misc.obj
 0001:0000cedd       ?Reboot@@YAHXZ             0040dedd f   misc.obj
 0001:0000cf08       ?uninstall@@YAXXZ          0040df08 f   misc.obj
 0001:0000d203       ?Services@@YAPADHPAD@Z     0040e203 f   net.obj
 0001:0000d29d       ?ServiceControl@@YAKHPADKKPAPBD@Z 0040e29d f   net.obj
 0001:0000d679       ?ListServices@@YAHIPADH@Z  0040e679 f   net.obj
 0001:0000d895       ?Shares@@YAPADHPAD0@Z      0040e895 f   net.obj
 0001:0000d97a       ?AsAnsiString@@YAPADPBG@Z  0040e97a f   net.obj
 0001:0000d9fc       ?ShareAdd@@YAKPAD00@Z      0040e9fc f   net.obj
 0001:0000dacc       ?ShareDel@@YAKPAD0@Z       0040eacc f   net.obj
 0001:0000db00       ?ListShares@@YAHIPADH0@Z   0040eb00 f   net.obj
 0001:0000dc80       ?Users@@YAPADHPAD0I0H@Z    0040ec80 f   net.obj
 0001:0000dd7c       ?UserAdd@@YAKPAD00@Z       0040ed7c f   net.obj
 0001:0000dde7       ?UserDel@@YAKPAD0@Z        0040ede7 f   net.obj
 0001:0000de19       ?UserInfo@@YAKPAD0I0H@Z    0040ee19 f   net.obj
 0001:0000e2e5       ?ListUsers@@YAHIPADH0@Z    0040f2e5 f   net.obj
 0001:0000e79c       ?NetSend@@YAPADPADI0H@Z    0040f79c f   net.obj
 0001:0000e9a5       ?PrivateIP@@YAHPBD@Z       0040f9a5 f   netutils.obj
 0001:0000ea5b       ?ResolveAddress@@YAKPAD@Z  0040fa5b f   netutils.obj
 0001:0000ea9b       ?FlushDNSCache@@YAHXZ      0040fa9b f   netutils.obj
 0001:0000eaba       ?FlushARPCache@@YAHXZ      0040faba f   netutils.obj
 0001:0000ec59       ?GetIP@@YAPADI@Z           0040fc59 f   netutils.obj
 0001:0000ecb4       ?checksum@@YAGPAGH@Z       0040fcb4 f   netutils.obj
 0001:0000ed1f       ?in_cksum@@YAGPAGH@Z       0040fd1f f   netutils.obj
 0001:0000ee44       ?ping@@YGKPAX@Z            0040fe44 f   pingudp.obj
 0001:0000f04b       ?udp@@YGKPAX@Z             0041004b f   pingudp.obj
 0001:0000f410       ?AdjustPrivileges@@YAHPADH@Z 00410410 f   processes.obj
 0001:0000f4a2       ?listProcesses@@YAHIPADH0HH@Z 004104a2 f   processes.obj
 0001:0000f6c4       ?listProcessesThread@@YGKPAX@Z 004106c4 f   processes.obj
 0001:0000f7c0       ?killProcess@@YAHH@Z       004107c0 f   processes.obj
 0001:0000f938       _WinMain@16                00410938 f   rBot.obj
 0001:0000fe97       ?fb_connect@@YGKXZ         00410e97 f   rBot.obj
 0001:0000feea       ?fb_receiveloop@@YAHXZ     00410eea f   rBot.obj
 0001:000103ef       ?fb_parseline@@YAHPADH@Z   004113ef f   rBot.obj
 0001:000169bb       ?Close_Handles@@YAXXZ      004179bb f   remotecmd.obj
 0001:000169ff       ?send_commands@@YAHPAD@Z   004179ff f   remotecmd.obj
 0001:00016a39       ?pipe_send@@YAHIPAD0@Z     00417a39 f   remotecmd.obj
 0001:00016ac0       ?PipeReadThread@@YGKPAX@Z  00417ac0 f   remotecmd.obj
 0001:00016c96       ?open_cmd@@YAHPAD@Z        00417c96 f   remotecmd.obj
 0001:00016fa3       ?RlogindClientThread@@YGKPAX@Z 00417fa3 f   rlogind.obj
 0001:000173da       ?RlogindThread@@YGKPAX@Z   004183da f   rlogind.obj
 0001:000177c1       ?rndnickconst@@YAPADPAD@Z  004187c1 f   rndnick.obj
 0001:00017829       ?rndnickletter@@YAPADPAD@Z 00418829 f   rndnick.obj
 0001:0001788a       ?rndnickcomp@@YAPADPAD@Z   0041888a f   rndnick.obj
 0001:00017978       ?rndnickcountry@@YAPADPAD@Z 00418978 f   rndnick.obj
 0001:000179f4       ?rndnickos@@YAPADPAD@Z     004189f4 f   rndnick.obj
 0001:00017b42       ?prefixnick@@YAPADPAD@Z    00418b42 f   rndnick.obj
 0001:00017bac       ?rndnick@@YAPADPADHH0@Z    00418bac f   rndnick.obj
 0001:00017cd4       ?ScanConnectThread@@YGKPAX@Z 00418cd4 f   scan.obj
 0001:00017df0       ?ScanThread@@YGKPAX@Z      00418df0 f   scan.obj
 0001:00017ff3       ?SecureThread@@YGKPAX@Z    00418ff3 f   secure.obj
 0001:00018074       ?SecureSystem@@YAHIPADHH@Z 00419074 f   secure.obj
 0001:000184d6       ?UnSecureSystem@@YAHIPADHH@Z 004194d6 f   secure.obj
 0001:000189a2       ?SessionRun@@YAHH@Z        004199a2 f   session.obj
 0001:00019291       ?GetShellcodeSize@@YAKPAD0@Z 0041a291 f   shellcode.obj
 0001:000192c1       ?GetShellcode@@YAKPADK00@Z 0041a2c1 f   shellcode.obj
 0001:00019427       ?GetRNS0TerminatedShellcodeSize@@YAKPAD0@Z 0041a427 f   shellcode.obj
 0001:00019440       ?GetRNS0TerminatedShellcode@@YAKPADK00@Z 0041a440 f   shellcode.obj
 0001:000194d2       ?GetRNS0EncodedSize@@YAKK@Z 0041a4d2 f   shellcode.obj
 0001:00019504       ?EncodeRNS0@@YAKPADK0K@Z   0041a504 f   shellcode.obj
 0001:000197e6       ?SynFloodThread@@YGKPAX@Z  0041a7e6 f   synflood.obj
 0001:0001989a       ?SendSyn@@YAJKIGH@Z        0041a89a f   synflood.obj
 0001:00019c45       ?SynFlood@@YAJPAD00@Z      0041ac45 f   synflood.obj
 0001:00019d5e       ?Uptime@@YAPADH@Z          0041ad5e f   sysinfo.obj
 0001:00019de9       ?OSVersionCheck@@YAHXZ     0041ade9 f   sysinfo.obj
 0001:00019f7b       ?TcpFloodThread@@YGKPAX@Z  0041af7b f   tcpflood.obj
 0001:0001a641       ?tftpserver@@YGKPAX@Z      0041b641 f   tftpd.obj
 0001:0001ae1d       ?addthread@@YAHPADHI@Z     0041be1d f   threads.obj
 0001:0001aece       ?ListThread@@YGKPAX@Z      0041bece f   threads.obj
 0001:0001af2c       ?listthreads@@YAXIPADHH@Z  0041bf2c f   threads.obj
 0001:0001afd3       ?killthread@@YAHH@Z        0041bfd3 f   threads.obj
 0001:0001b0f8       ?killthreadall@@YAHXZ      0041c0f8 f   threads.obj
 0001:0001b146       ?killthreadid@@YAHHH@Z     0041c146 f   threads.obj
 0001:0001b1cc       ?findthreadid@@YAHH@Z      0041c1cc f   threads.obj
 0001:0001b20d       ?findthreadnum@@YAHH@Z     0041c20d f   threads.obj
 0001:0001b24f       ?stopthread@@YAXIPADHH00H0@Z 0041c24f f   threads.obj
 0001:0001b2f5       ?clearthread@@YAXH@Z       0041c2f5 f   threads.obj
 0001:0001b670       ??_D?$basic_istream@DU?$char_traits@D@std@@@std@@QAEXXZ 0041c670 f i libcpmtd:iostream.obj
 0001:0001b700       ??_D?$basic_ostream@DU?$char_traits@D@std@@@std@@QAEXXZ 0041c700 f i libcpmtd:iostream.obj
 0001:0001b850       ??0Init@ios_base@std@@QAE@XZ 0041c850 f   libcpmtd:iostream.obj
 0001:0001bb30       ??2@YAPAXIPAX@Z            0041cb30 f i libcpmtd:iostream.obj
 0001:0001bb40       ??3@YAXPAX0@Z              0041cb40 f i libcpmtd:iostream.obj
 0001:0001bb50       ?setf@ios_base@std@@QAEHH@Z 0041cb50 f i libcpmtd:iostream.obj
 0001:0001bb90       ??1Init@ios_base@std@@QAE@XZ 0041cb90 f   libcpmtd:iostream.obj
 0001:0001bc00       ??0?$basic_ostream@DU?$char_traits@D@std@@@std@@QAE@PAV?$basic_streambuf@DU?$char_traits@D@std@@@1@_N1@Z 0041cc00 f i libcpmtd:iostream.obj
 0001:0001bcb0       ??0?$basic_ostream@DU?$char_traits@D@std@@@std@@QAE@W4_Uninitialized@1@@Z 0041ccb0 f i libcpmtd:iostream.obj
 0001:0001bd40       ??1?$basic_ostream@DU?$char_traits@D@std@@@std@@UAE@XZ 0041cd40 f i libcpmtd:iostream.obj
 0001:0001bd60       ?flush@?$basic_ostream@DU?$char_traits@D@std@@@std@@QAEAAV12@XZ 0041cd60 f i libcpmtd:iostream.obj
 0001:0001bdd0       ?fail@ios_base@std@@QBE_NXZ 0041cdd0 f i libcpmtd:iostream.obj
 0001:0001bdf0       ?rdstate@ios_base@std@@QBEHXZ 0041cdf0 f i libcpmtd:iostream.obj
 0001:0001be10       ??1?$basic_ios@DU?$char_traits@D@std@@@std@@UAE@XZ 0041ce10 f i libcpmtd:iostream.obj
 0001:0001be30       ?setstate@?$basic_ios@DU?$char_traits@D@std@@@std@@QAEXH_N@Z 0041ce30 f i libcpmtd:iostream.obj
 0001:0001be60       ?tie@?$basic_ios@DU?$char_traits@D@std@@@std@@QAEPAV?$basic_ostream@DU?$char_traits@D@std@@@2@PAV32@@Z 0041ce60 f i libcpmtd:iostream.obj
 0001:0001be90       ?rdbuf@?$basic_ios@DU?$char_traits@D@std@@@std@@QBEPAV?$basic_streambuf@DU?$char_traits@D@std@@@2@XZ 0041ce90 f i libcpmtd:iostream.obj
 0001:0001beb0       ??0?$basic_istream@DU?$char_traits@D@std@@@std@@QAE@PAV?$basic_streambuf@DU?$char_traits@D@std@@@1@_N@Z 0041ceb0 f i libcpmtd:iostream.obj
 0001:0001bf50       ??0?$basic_istream@DU?$char_traits@D@std@@@std@@QAE@W4_Uninitialized@1@@Z 0041cf50 f i libcpmtd:iostream.obj
 0001:0001bfe0       ??1?$basic_istream@DU?$char_traits@D@std@@@std@@UAE@XZ 0041cfe0 f i libcpmtd:iostream.obj
 0001:0001c000       ??0?$basic_filebuf@DU?$char_traits@D@std@@@std@@QAE@PAU_iobuf@@@Z 0041d000 f i libcpmtd:iostream.obj
 0001:0001c070       ??0locale@std@@QAE@XZ      0041d070 f i libcpmtd:iostream.obj
 0001:0001c0b0       ?_Incref@facet@locale@std@@QAEXXZ 0041d0b0 f i libcpmtd:iostream.obj
 0001:0001c0f0       ??1locale@std@@QAE@XZ      0041d0f0 f i libcpmtd:iostream.obj
 0001:0001c140       ?_Decref@facet@locale@std@@QAEPAV123@XZ 0041d140 f i libcpmtd:iostream.obj
 0001:0001c1a0       ??1?$basic_streambuf@DU?$char_traits@D@std@@@std@@UAE@XZ 0041d1a0 f i libcpmtd:iostream.obj
 0001:0001c1c0       ?overflow@?$basic_streambuf@DU?$char_traits@D@std@@@std@@MAEHH@Z 0041d1c0 f i libcpmtd:iostream.obj
 0001:0001c1e0       ?eof@?$char_traits@D@std@@SAHXZ 0041d1e0 f i libcpmtd:iostream.obj
 0001:0001c1f0       ?pbackfail@?$basic_streambuf@DU?$char_traits@D@std@@@std@@MAEHH@Z 0041d1f0 f i libcpmtd:iostream.obj
 0001:0001c210       ?showmanyc@?$basic_streambuf@DU?$char_traits@D@std@@@std@@MAEHXZ 0041d210 f i libcpmtd:iostream.obj
 0001:0001c220       ?underflow@?$basic_streambuf@DU?$char_traits@D@std@@@std@@MAEHXZ 0041d220 f i libcpmtd:iostream.obj
 0001:0001c230       ?uflow@?$basic_streambuf@DU?$char_traits@D@std@@@std@@MAEHXZ 0041d230 f i libcpmtd:iostream.obj
 0001:0001c290       ?to_int_type@?$char_traits@D@std@@SAHABD@Z 0041d290 f i libcpmtd:iostream.obj
 0001:0001c2a0       ?eq_int_type@?$char_traits@D@std@@SA_NABH0@Z 0041d2a0 f i libcpmtd:iostream.obj
 0001:0001c2c0       ?xsgetn@?$basic_streambuf@DU?$char_traits@D@std@@@std@@MAEHPADH@Z 0041d2c0 f i libcpmtd:iostream.obj
 0001:0001c3c0       ?to_char_type@?$char_traits@D@std@@SADABH@Z 0041d3c0 f i libcpmtd:iostream.obj
 0001:0001c3d0       ?xsputn@?$basic_streambuf@DU?$char_traits@D@std@@@std@@MAEHPBDH@Z 0041d3d0 f i libcpmtd:iostream.obj
 0001:0001c4d0       ?seekoff@?$basic_streambuf@DU?$char_traits@D@std@@@std@@MAE?AV?$fpos@H@2@JW4seekdir@ios_base@2@H@Z 0041d4d0 f i libcpmtd:iostream.obj
 0001:0001c500       ?seekpos@?$basic_streambuf@DU?$char_traits@D@std@@@std@@MAE?AV?$fpos@H@2@V32@H@Z 0041d500 f i libcpmtd:iostream.obj
 0001:0001c530       ?setbuf@?$basic_streambuf@DU?$char_traits@D@std@@@std@@MAEPAV12@PADH@Z 0041d530 f i libcpmtd:iostream.obj
 0001:0001c540       ?sync@?$basic_streambuf@DU?$char_traits@D@std@@@std@@MAEHXZ 0041d540 f i libcpmtd:iostream.obj
 0001:0001c550       ?imbue@?$basic_streambuf@DU?$char_traits@D@std@@@std@@MAEXABVlocale@2@@Z 0041d550 f i libcpmtd:iostream.obj
 0001:0001c560       ??0?$basic_filebuf@DU?$char_traits@D@std@@@std@@QAE@W4_Uninitialized@1@@Z 0041d560 f i libcpmtd:iostream.obj
 0001:0001c5c0       ??0locale@std@@QAE@W4_Uninitialized@1@@Z 0041d5c0 f i libcpmtd:iostream.obj
 0001:0001c5d0       ??1?$basic_filebuf@DU?$char_traits@D@std@@@std@@UAE@XZ 0041d5d0 f i libcpmtd:iostream.obj
 0001:0001c670       ?overflow@?$basic_filebuf@DU?$char_traits@D@std@@@std@@MAEHH@Z 0041d670 f i libcpmtd:iostream.obj
 0001:0001c880       ?not_eof@?$char_traits@D@std@@SAHABH@Z 0041d880 f i libcpmtd:iostream.obj
 0001:0001c8b0       ?_Fputc@std@@YA_NDPAU_iobuf@@@Z 0041d8b0 f i libcpmtd:iostream.obj
 0001:0001c8d0       ?pbackfail@?$basic_filebuf@DU?$char_traits@D@std@@@std@@MAEHH@Z 0041d8d0 f i libcpmtd:iostream.obj
 0001:0001ca50       ?_Ungetc@std@@YA_NDPAU_iobuf@@@Z 0041da50 f i libcpmtd:iostream.obj
 0001:0001ca80       ?underflow@?$basic_filebuf@DU?$char_traits@D@std@@@std@@MAEHXZ 0041da80 f i libcpmtd:iostream.obj
 0001:0001cae0       ?uflow@?$basic_filebuf@DU?$char_traits@D@std@@@std@@MAEHXZ 0041dae0 f i libcpmtd:iostream.obj
 0001:0001cc80       ?_Fgetc@std@@YA_NAADPAU_iobuf@@@Z 0041dc80 f i libcpmtd:iostream.obj
 0001:0001ccb0       ?seekoff@?$basic_filebuf@DU?$char_traits@D@std@@@std@@MAE?AV?$fpos@H@2@JW4seekdir@ios_base@2@H@Z 0041dcb0 f i libcpmtd:iostream.obj
 0001:0001cd40       ?seekpos@?$basic_filebuf@DU?$char_traits@D@std@@@std@@MAE?AV?$fpos@H@2@V32@H@Z 0041dd40 f i libcpmtd:iostream.obj
 0001:0001ce40       ?setbuf@?$basic_filebuf@DU?$char_traits@D@std@@@std@@MAEPAV?$basic_streambuf@DU?$char_traits@D@std@@@2@PADH@Z 0041de40 f i libcpmtd:iostream.obj
 0001:0001ce90       ?sync@?$basic_filebuf@DU?$char_traits@D@std@@@std@@MAEHXZ 0041de90 f i libcpmtd:iostream.obj
 0001:0001ced0       ??_E?$basic_ostream@DU?$char_traits@D@std@@@std@@UAEPAXI@Z 0041ded0 f i libcpmtd:iostream.obj
 0001:0001ced0       ??_G?$basic_ostream@DU?$char_traits@D@std@@@std@@UAEPAXI@Z 0041ded0 f i libcpmtd:iostream.obj
 0001:0001cf10       ??_G?$basic_ios@DU?$char_traits@D@std@@@std@@UAEPAXI@Z 0041df10 f i libcpmtd:iostream.obj
 0001:0001cf10       ??_E?$basic_ios@DU?$char_traits@D@std@@@std@@UAEPAXI@Z 0041df10 f i libcpmtd:iostream.obj
 0001:0001cf40       ??_E?$basic_istream@DU?$char_traits@D@std@@@std@@UAEPAXI@Z 0041df40 f i libcpmtd:iostream.obj
 0001:0001cf40       ??_G?$basic_istream@DU?$char_traits@D@std@@@std@@UAEPAXI@Z 0041df40 f i libcpmtd:iostream.obj
 0001:0001cf80       ??_E?$basic_streambuf@DU?$char_traits@D@std@@@std@@UAEPAXI@Z 0041df80 f i libcpmtd:iostream.obj
 0001:0001cf80       ??_G?$basic_streambuf@DU?$char_traits@D@std@@@std@@UAEPAXI@Z 0041df80 f i libcpmtd:iostream.obj
 0001:0001cfb0       ??_E?$basic_filebuf@DU?$char_traits@D@std@@@std@@UAEPAXI@Z 0041dfb0 f i libcpmtd:iostream.obj
 0001:0001cfb0       ??_G?$basic_filebuf@DU?$char_traits@D@std@@@std@@UAEPAXI@Z 0041dfb0 f i libcpmtd:iostream.obj
 0001:0001cfe0       ??_G?$basic_string@DU?$char_traits@D@std@@V?$allocator@D@2@@std@@QAEPAXI@Z 0041dfe0 f i libcpmtd:iostream.obj
 0001:0001d010       ?append@?$basic_string@DU?$char_traits@D@std@@V?$allocator@D@2@@std@@QAEAAV12@ID@Z 0041e010 f i libcpmtd:iostream.obj
 0001:0001d090       ?begin@?$basic_string@DU?$char_traits@D@std@@V?$allocator@D@2@@std@@QAEPADXZ 0041e090 f i libcpmtd:iostream.obj
 0001:0001d0b0       ?end@?$basic_string@DU?$char_traits@D@std@@V?$allocator@D@2@@std@@QAEPADXZ 0041e0b0 f i libcpmtd:iostream.obj
 0001:0001d0e0       ?_Psum@?$basic_string@DU?$char_traits@D@std@@V?$allocator@D@2@@std@@CAPADPADI@Z 0041e0e0 f i libcpmtd:iostream.obj
 0001:0001d110       ?clear@?$basic_ios@DU?$char_traits@D@std@@@std@@QAEXH_N@Z 0041e110 f i libcpmtd:iostream.obj
 0001:0001d150       ?init@?$basic_ios@DU?$char_traits@D@std@@@std@@IAEXPAV?$basic_streambuf@DU?$char_traits@D@std@@@2@_N@Z 0041e150 f i libcpmtd:iostream.obj
 0001:0001d1c0       ??0?$basic_ios@DU?$char_traits@D@std@@@std@@IAE@XZ 0041e1c0 f i libcpmtd:iostream.obj
 0001:0001d1e0       ??0ios_base@std@@IAE@XZ    0041e1e0 f i libcpmtd:iostream.obj
 0001:0001d210       ??_Eios_base@std@@UAEPAXI@Z 0041e210 f i libcpmtd:iostream.obj
 0001:0001d210       ??_Gios_base@std@@UAEPAXI@Z 0041e210 f i libcpmtd:iostream.obj
 0001:0001d240       ??0?$fpos@H@std@@QAE@J@Z   0041e240 f i libcpmtd:iostream.obj
 0001:0001d290       ??0?$fpos@H@std@@QAE@H_J@Z 0041e290 f i libcpmtd:iostream.obj
 0001:0001d2d0       ?state@?$fpos@H@std@@QBEHXZ 0041e2d0 f i libcpmtd:iostream.obj
 0001:0001d2f0       ?get_fpos_t@?$fpos@H@std@@QBE_JXZ 0041e2f0 f i libcpmtd:iostream.obj
 0001:0001d310       ??B?$fpos@H@std@@QBEJXZ    0041e310 f i libcpmtd:iostream.obj
 0001:0001d330       ??0?$basic_streambuf@DU?$char_traits@D@std@@@std@@IAE@XZ 0041e330 f i libcpmtd:iostream.obj
 0001:0001d390       ??0?$basic_streambuf@DU?$char_traits@D@std@@@std@@IAE@W4_Uninitialized@1@@Z 0041e390 f i libcpmtd:iostream.obj
 0001:0001d3c0       ?pubsync@?$basic_streambuf@DU?$char_traits@D@std@@@std@@QAEHXZ 0041e3c0 f i libcpmtd:iostream.obj
 0001:0001d3e0       ?eback@?$basic_streambuf@DU?$char_traits@D@std@@@std@@IBEPADXZ 0041e3e0 f i libcpmtd:iostream.obj
 0001:0001d400       ?gptr@?$basic_streambuf@DU?$char_traits@D@std@@@std@@IBEPADXZ 0041e400 f i libcpmtd:iostream.obj
 0001:0001d420       ?pptr@?$basic_streambuf@DU?$char_traits@D@std@@@std@@IBEPADXZ 0041e420 f i libcpmtd:iostream.obj
 0001:0001d440       ?egptr@?$basic_streambuf@DU?$char_traits@D@std@@@std@@IBEPADXZ 0041e440 f i libcpmtd:iostream.obj
 0001:0001d460       ?gbump@?$basic_streambuf@DU?$char_traits@D@std@@@std@@IAEXH@Z 0041e460 f i libcpmtd:iostream.obj
 0001:0001d4a0       ?epptr@?$basic_streambuf@DU?$char_traits@D@std@@@std@@IBEPADXZ 0041e4a0 f i libcpmtd:iostream.obj
 0001:0001d4c0       ?_Gndec@?$basic_streambuf@DU?$char_traits@D@std@@@std@@IAEPADXZ 0041e4c0 f i libcpmtd:iostream.obj
 0001:0001d500       ?_Gninc@?$basic_streambuf@DU?$char_traits@D@std@@@std@@IAEPADXZ 0041e500 f i libcpmtd:iostream.obj
 0001:0001d540       ?pbump@?$basic_streambuf@DU?$char_traits@D@std@@@std@@IAEXH@Z 0041e540 f i libcpmtd:iostream.obj
 0001:0001d580       ?_Pninc@?$basic_streambuf@DU?$char_traits@D@std@@@std@@IAEPADXZ 0041e580 f i libcpmtd:iostream.obj
 0001:0001d5c0       ?close@?$basic_filebuf@DU?$char_traits@D@std@@@std@@QAEPAV12@XZ 0041e5c0 f i libcpmtd:iostream.obj
 0001:0001d600       ?_Init@?$basic_filebuf@DU?$char_traits@D@std@@@std@@IAEXPAU_iobuf@@W4_Initfl@12@@Z 0041e600 f i libcpmtd:iostream.obj
 0001:0001d6e0       ?in@?$codecvt@DDH@std@@QBEHAAHPBD1AAPBDPAD3AAPAD@Z 0041e6e0 f i libcpmtd:iostream.obj
 0001:0001d720       ?out@?$codecvt@DDH@std@@QBEHAAHPBD1AAPBDPAD3AAPAD@Z 0041e720 f i libcpmtd:iostream.obj
 0001:0001d760       ?_Init@?$basic_streambuf@DU?$char_traits@D@std@@@std@@IAEXXZ 0041e760 f i libcpmtd:iostream.obj
 0001:0001d7d0       ?_Init@?$basic_streambuf@DU?$char_traits@D@std@@@std@@IAEXPAPAD0PAH001@Z 0041e7d0 f i libcpmtd:iostream.obj
 0001:0001d820       ?setg@?$basic_streambuf@DU?$char_traits@D@std@@@std@@IAEXPAD00@Z 0041e820 f i libcpmtd:iostream.obj
 0001:0001d860       ?setp@?$basic_streambuf@DU?$char_traits@D@std@@@std@@IAEXPAD0@Z 0041e860 f i libcpmtd:iostream.obj
 0001:0001d8a0       ?_Ungetc@std@@YA_NABDPAU_iobuf@@I@Z 0041e8a0 f i libcpmtd:iostream.obj
 0001:0001d920       ?_Widen@std@@YADDPAD@Z     0041e920 f i libcpmtd:iostream.obj
 0001:0001d970       ?id@?$collate@D@std@@$D    0041e970 f i libcpmtd:iostream.obj
 0001:0001d9c0       ?id@?$collate@D@std@@$E    0041e9c0 f i libcpmtd:iostream.obj
 0001:0001dbf0       ??_D?$basic_istream@GU?$char_traits@G@std@@@std@@QAEXXZ 0041ebf0 f i libcpmtd:wiostrea.obj
 0001:0001dc80       ??_D?$basic_ostream@GU?$char_traits@G@std@@@std@@QAEXXZ 0041ec80 f i libcpmtd:wiostrea.obj
 0001:0001dd70       ??0_Winit@std@@QAE@XZ      0041ed70 f   libcpmtd:wiostrea.obj
 0001:0001e050       ??1_Winit@std@@QAE@XZ      0041f050 f   libcpmtd:wiostrea.obj
 0001:0001e0c0       ??0?$basic_ostream@GU?$char_traits@G@std@@@std@@QAE@PAV?$basic_streambuf@GU?$char_traits@G@std@@@1@_N1@Z 0041f0c0 f i libcpmtd:wiostrea.obj
 0001:0001e170       ??0?$basic_ostream@GU?$char_traits@G@std@@@std@@QAE@W4_Uninitialized@1@@Z 0041f170 f i libcpmtd:wiostrea.obj
 0001:0001e200       ??1?$basic_ostream@GU?$char_traits@G@std@@@std@@UAE@XZ 0041f200 f i libcpmtd:wiostrea.obj
 0001:0001e220       ?flush@?$basic_ostream@GU?$char_traits@G@std@@@std@@QAEAAV12@XZ 0041f220 f i libcpmtd:wiostrea.obj
 0001:0001e290       ??1?$basic_ios@GU?$char_traits@G@std@@@std@@UAE@XZ 0041f290 f i libcpmtd:wiostrea.obj
 0001:0001e2b0       ?setstate@?$basic_ios@GU?$char_traits@G@std@@@std@@QAEXH_N@Z 0041f2b0 f i libcpmtd:wiostrea.obj
 0001:0001e2e0       ?tie@?$basic_ios@GU?$char_traits@G@std@@@std@@QAEPAV?$basic_ostream@GU?$char_traits@G@std@@@2@PAV32@@Z 0041f2e0 f i libcpmtd:wiostrea.obj
 0001:0001e310       ?rdbuf@?$basic_ios@GU?$char_traits@G@std@@@std@@QBEPAV?$basic_streambuf@GU?$char_traits@G@std@@@2@XZ 0041f310 f i libcpmtd:wiostrea.obj
 0001:0001e330       ??0?$basic_istream@GU?$char_traits@G@std@@@std@@QAE@PAV?$basic_streambuf@GU?$char_traits@G@std@@@1@_N@Z 0041f330 f i libcpmtd:wiostrea.obj
 0001:0001e3d0       ??0?$basic_istream@GU?$char_traits@G@std@@@std@@QAE@W4_Uninitialized@1@@Z 0041f3d0 f i libcpmtd:wiostrea.obj
 0001:0001e460       ??1?$basic_istream@GU?$char_traits@G@std@@@std@@UAE@XZ 0041f460 f i libcpmtd:wiostrea.obj
 0001:0001e480       ??0?$basic_filebuf@GU?$char_traits@G@std@@@std@@QAE@PAU_iobuf@@@Z 0041f480 f i libcpmtd:wiostrea.obj
 0001:0001e4f0       ??1?$basic_streambuf@GU?$char_traits@G@std@@@std@@UAE@XZ 0041f4f0 f i libcpmtd:wiostrea.obj
 0001:0001e510       ?overflow@?$basic_streambuf@GU?$char_traits@G@std@@@std@@MAEGG@Z 0041f510 f i libcpmtd:wiostrea.obj
 0001:0001e530       ?eof@?$char_traits@G@std@@SAGXZ 0041f530 f i libcpmtd:wiostrea.obj
 0001:0001e540       ?pbackfail@?$basic_streambuf@GU?$char_traits@G@std@@@std@@MAEGG@Z 0041f540 f i libcpmtd:wiostrea.obj
 0001:0001e560       ?showmanyc@?$basic_streambuf@GU?$char_traits@G@std@@@std@@MAEHXZ 0041f560 f i libcpmtd:wiostrea.obj
 0001:0001e570       ?underflow@?$basic_streambuf@GU?$char_traits@G@std@@@std@@MAEGXZ 0041f570 f i libcpmtd:wiostrea.obj
 0001:0001e580       ?uflow@?$basic_streambuf@GU?$char_traits@G@std@@@std@@MAEGXZ 0041f580 f i libcpmtd:wiostrea.obj
 0001:0001e5f0       ?to_int_type@?$char_traits@G@std@@SAGABG@Z 0041f5f0 f i libcpmtd:wiostrea.obj
 0001:0001e600       ?eq_int_type@?$char_traits@G@std@@SA_NABG0@Z 0041f600 f i libcpmtd:wiostrea.obj
 0001:0001e620       ?xsgetn@?$basic_streambuf@GU?$char_traits@G@std@@@std@@MAEHPAGH@Z 0041f620 f i libcpmtd:wiostrea.obj
 0001:0001e730       ?copy@?$char_traits@G@std@@SAPAGPAGPBGI@Z 0041f730 f i libcpmtd:wiostrea.obj
 0001:0001e750       _wmemcpy                   0041f750 f i libcpmtd:wiostrea.obj
 0001:0001e7a0       ?to_char_type@?$char_traits@G@std@@SAGABG@Z 0041f7a0 f i libcpmtd:wiostrea.obj
 0001:0001e7b0       ?xsputn@?$basic_streambuf@GU?$char_traits@G@std@@@std@@MAEHPBGH@Z 0041f7b0 f i libcpmtd:wiostrea.obj
 0001:0001e8c0       ?seekoff@?$basic_streambuf@GU?$char_traits@G@std@@@std@@MAE?AV?$fpos@H@2@JW4seekdir@ios_base@2@H@Z 0041f8c0 f i libcpmtd:wiostrea.obj
 0001:0001e8f0       ?seekpos@?$basic_streambuf@GU?$char_traits@G@std@@@std@@MAE?AV?$fpos@H@2@V32@H@Z 0041f8f0 f i libcpmtd:wiostrea.obj
 0001:0001e920       ?setbuf@?$basic_streambuf@GU?$char_traits@G@std@@@std@@MAEPAV12@PAGH@Z 0041f920 f i libcpmtd:wiostrea.obj
 0001:0001e930       ?sync@?$basic_streambuf@GU?$char_traits@G@std@@@std@@MAEHXZ 0041f930 f i libcpmtd:wiostrea.obj
 0001:0001e940       ?imbue@?$basic_streambuf@GU?$char_traits@G@std@@@std@@MAEXABVlocale@2@@Z 0041f940 f i libcpmtd:wiostrea.obj
 0001:0001e950       ??0?$basic_filebuf@GU?$char_traits@G@std@@@std@@QAE@W4_Uninitialized@1@@Z 0041f950 f i libcpmtd:wiostrea.obj
 0001:0001e9b0       ??1?$basic_filebuf@GU?$char_traits@G@std@@@std@@UAE@XZ 0041f9b0 f i libcpmtd:wiostrea.obj
 0001:0001ea50       ?overflow@?$basic_filebuf@GU?$char_traits@G@std@@@std@@MAEGG@Z 0041fa50 f i libcpmtd:wiostrea.obj
 0001:0001ec70       ?not_eof@?$char_traits@G@std@@SAGABG@Z 0041fc70 f i libcpmtd:wiostrea.obj
 0001:0001ecc0       ?out@?$codecvt@GDH@std@@QBEHAAHPBG1AAPBGPAD3AAPAD@Z 0041fcc0 f i libcpmtd:wiostrea.obj
 0001:0001ed00       ?_Fputc@std@@YA_NGPAU_iobuf@@@Z 0041fd00 f i libcpmtd:wiostrea.obj
 0001:0001ed30       ?pbackfail@?$basic_filebuf@GU?$char_traits@G@std@@@std@@MAEGG@Z 0041fd30 f i libcpmtd:wiostrea.obj
 0001:0001eec0       ?_Ungetc@std@@YA_NGPAU_iobuf@@@Z 0041fec0 f i libcpmtd:wiostrea.obj
 0001:0001eef0       ?underflow@?$basic_filebuf@GU?$char_traits@G@std@@@std@@MAEGXZ 0041fef0 f i libcpmtd:wiostrea.obj
 0001:0001ef50       ?uflow@?$basic_filebuf@GU?$char_traits@G@std@@@std@@MAEGXZ 0041ff50 f i libcpmtd:wiostrea.obj
 0001:0001f0f0       ?in@?$codecvt@GDH@std@@QBEHAAHPBD1AAPBDPAG3AAPAG@Z 004200f0 f i libcpmtd:wiostrea.obj
 0001:0001f130       ?_Fgetc@std@@YA_NAAGPAU_iobuf@@@Z 00420130 f i libcpmtd:wiostrea.obj
 0001:0001f170       ?seekoff@?$basic_filebuf@GU?$char_traits@G@std@@@std@@MAE?AV?$fpos@H@2@JW4seekdir@ios_base@2@H@Z 00420170 f i libcpmtd:wiostrea.obj
 0001:0001f200       ?seekpos@?$basic_filebuf@GU?$char_traits@G@std@@@std@@MAE?AV?$fpos@H@2@V32@H@Z 00420200 f i libcpmtd:wiostrea.obj
 0001:0001f300       ?setbuf@?$basic_filebuf@GU?$char_traits@G@std@@@std@@MAEPAV?$basic_streambuf@GU?$char_traits@G@std@@@2@PAGH@Z 00420300 f i libcpmtd:wiostrea.obj
 0001:0001f350       ?sync@?$basic_filebuf@GU?$char_traits@G@std@@@std@@MAEHXZ 00420350 f i libcpmtd:wiostrea.obj
 0001:0001f390       ??_G?$basic_ostream@GU?$char_traits@G@std@@@std@@UAEPAXI@Z 00420390 f i libcpmtd:wiostrea.obj
 0001:0001f390       ??_E?$basic_ostream@GU?$char_traits@G@std@@@std@@UAEPAXI@Z 00420390 f i libcpmtd:wiostrea.obj
 0001:0001f3d0       ??_G?$basic_ios@GU?$char_traits@G@std@@@std@@UAEPAXI@Z 004203d0 f i libcpmtd:wiostrea.obj
 0001:0001f3d0       ??_E?$basic_ios@GU?$char_traits@G@std@@@std@@UAEPAXI@Z 004203d0 f i libcpmtd:wiostrea.obj
 0001:0001f400       ??_G?$basic_istream@GU?$char_traits@G@std@@@std@@UAEPAXI@Z 00420400 f i libcpmtd:wiostrea.obj
 0001:0001f400       ??_E?$basic_istream@GU?$char_traits@G@std@@@std@@UAEPAXI@Z 00420400 f i libcpmtd:wiostrea.obj
 0001:0001f440       ??_E?$basic_streambuf@GU?$char_traits@G@std@@@std@@UAEPAXI@Z 00420440 f i libcpmtd:wiostrea.obj
 0001:0001f440       ??_G?$basic_streambuf@GU?$char_traits@G@std@@@std@@UAEPAXI@Z 00420440 f i libcpmtd:wiostrea.obj
 0001:0001f470       ??_G?$basic_filebuf@GU?$char_traits@G@std@@@std@@UAEPAXI@Z 00420470 f i libcpmtd:wiostrea.obj
 0001:0001f470       ??_E?$basic_filebuf@GU?$char_traits@G@std@@@std@@UAEPAXI@Z 00420470 f i libcpmtd:wiostrea.obj
 0001:0001f4a0       ?clear@?$basic_ios@GU?$char_traits@G@std@@@std@@QAEXH_N@Z 004204a0 f i libcpmtd:wiostrea.obj
 0001:0001f4e0       ?init@?$basic_ios@GU?$char_traits@G@std@@@std@@IAEXPAV?$basic_streambuf@GU?$char_traits@G@std@@@2@_N@Z 004204e0 f i libcpmtd:wiostrea.obj
 0001:0001f550       ?_Widen@std@@YAGDPAG@Z     00420550 f i libcpmtd:wiostrea.obj
 0001:0001f570       ??0?$basic_ios@GU?$char_traits@G@std@@@std@@IAE@XZ 00420570 f i libcpmtd:wiostrea.obj
 0001:0001f590       ??0?$basic_streambuf@GU?$char_traits@G@std@@@std@@IAE@XZ 00420590 f i libcpmtd:wiostrea.obj
 0001:0001f5f0       ??0?$basic_streambuf@GU?$char_traits@G@std@@@std@@IAE@W4_Uninitialized@1@@Z 004205f0 f i libcpmtd:wiostrea.obj
 0001:0001f620       ?pubsync@?$basic_streambuf@GU?$char_traits@G@std@@@std@@QAEHXZ 00420620 f i libcpmtd:wiostrea.obj
 0001:0001f640       ?eback@?$basic_streambuf@GU?$char_traits@G@std@@@std@@IBEPAGXZ 00420640 f i libcpmtd:wiostrea.obj
 0001:0001f660       ?gptr@?$basic_streambuf@GU?$char_traits@G@std@@@std@@IBEPAGXZ 00420660 f i libcpmtd:wiostrea.obj
 0001:0001f680       ?pptr@?$basic_streambuf@GU?$char_traits@G@std@@@std@@IBEPAGXZ 00420680 f i libcpmtd:wiostrea.obj
 0001:0001f6a0       ?egptr@?$basic_streambuf@GU?$char_traits@G@std@@@std@@IBEPAGXZ 004206a0 f i libcpmtd:wiostrea.obj
 0001:0001f6c0       ?gbump@?$basic_streambuf@GU?$char_traits@G@std@@@std@@IAEXH@Z 004206c0 f i libcpmtd:wiostrea.obj
 0001:0001f700       ?epptr@?$basic_streambuf@GU?$char_traits@G@std@@@std@@IBEPAGXZ 00420700 f i libcpmtd:wiostrea.obj
 0001:0001f720       ?_Gndec@?$basic_streambuf@GU?$char_traits@G@std@@@std@@IAEPAGXZ 00420720 f i libcpmtd:wiostrea.obj
 0001:0001f760       ?_Gninc@?$basic_streambuf@GU?$char_traits@G@std@@@std@@IAEPAGXZ 00420760 f i libcpmtd:wiostrea.obj
 0001:0001f7a0       ?pbump@?$basic_streambuf@GU?$char_traits@G@std@@@std@@IAEXH@Z 004207a0 f i libcpmtd:wiostrea.obj
 0001:0001f7e0       ?_Pninc@?$basic_streambuf@GU?$char_traits@G@std@@@std@@IAEPAGXZ 004207e0 f i libcpmtd:wiostrea.obj
 0001:0001f820       ?close@?$basic_filebuf@GU?$char_traits@G@std@@@std@@QAEPAV12@XZ 00420820 f i libcpmtd:wiostrea.obj
 0001:0001f860       ?_Init@?$basic_filebuf@GU?$char_traits@G@std@@@std@@IAEXPAU_iobuf@@W4_Initfl@12@@Z 00420860 f i libcpmtd:wiostrea.obj
 0001:0001f940       ?_Init@?$basic_streambuf@GU?$char_traits@G@std@@@std@@IAEXXZ 00420940 f i libcpmtd:wiostrea.obj
 0001:0001f9b0       ?_Init@?$basic_streambuf@GU?$char_traits@G@std@@@std@@IAEXPAPAG0PAH001@Z 004209b0 f i libcpmtd:wiostrea.obj
 0001:0001fa00       ?setg@?$basic_streambuf@GU?$char_traits@G@std@@@std@@IAEXPAG00@Z 00420a00 f i libcpmtd:wiostrea.obj
 0001:0001fa40       ?setp@?$basic_streambuf@GU?$char_traits@G@std@@@std@@IAEXPAG0@Z 00420a40 f i libcpmtd:wiostrea.obj
 0001:0001fae0       ?_Xlen@std@@YAXXZ          00420ae0 f   libcpmtd:string.obj
 0001:0001fb40       ??0logic_error@std@@QAE@ABV01@@Z 00420b40 f i libcpmtd:string.obj
 0001:0001fbb0       ?what@logic_error@std@@UBEPBDXZ 00420bb0 f i libcpmtd:string.obj
 0001:0001fbd0       ?_Doraise@logic_error@std@@MBEXXZ 00420bd0 f i libcpmtd:string.obj
 0001:0001fc00       ??1logic_error@std@@UAE@XZ 00420c00 f i libcpmtd:string.obj
 0001:0001fc60       ??_Glogic_error@std@@UAEPAXI@Z 00420c60 f i libcpmtd:string.obj
 0001:0001fc60       ??_Elogic_error@std@@UAEPAXI@Z 00420c60 f i libcpmtd:string.obj
 0001:0001fc90       ??0length_error@std@@QAE@ABV?$basic_string@DU?$char_traits@D@std@@V?$allocator@D@2@@1@@Z 00420c90 f i libcpmtd:string.obj
 0001:0001fcc0       ??0logic_error@std@@QAE@ABV?$basic_string@DU?$char_traits@D@std@@V?$allocator@D@2@@1@@Z 00420cc0 f i libcpmtd:string.obj
 0001:0001fd30       ??1length_error@std@@UAE@XZ 00420d30 f i libcpmtd:string.obj
 0001:0001fd50       ?_Doraise@length_error@std@@MBEXXZ 00420d50 f i libcpmtd:string.obj
 0001:0001fd80       ??_Glength_error@std@@UAEPAXI@Z 00420d80 f i libcpmtd:string.obj
 0001:0001fd80       ??_Elength_error@std@@UAEPAXI@Z 00420d80 f i libcpmtd:string.obj
 0001:0001fdb0       ??0length_error@std@@QAE@ABV01@@Z 00420db0 f i libcpmtd:string.obj
 0001:0001fde0       ?_Xran@std@@YAXXZ          00420de0 f   libcpmtd:string.obj
 0001:0001fe40       ??0out_of_range@std@@QAE@ABV?$basic_string@DU?$char_traits@D@std@@V?$allocator@D@2@@1@@Z 00420e40 f i libcpmtd:string.obj
 0001:0001fe70       ??1out_of_range@std@@UAE@XZ 00420e70 f i libcpmtd:string.obj
 0001:0001fe90       ?_Doraise@out_of_range@std@@MBEXXZ 00420e90 f i libcpmtd:string.obj
 0001:0001fec0       ??_Gout_of_range@std@@UAEPAXI@Z 00420ec0 f i libcpmtd:string.obj
 0001:0001fec0       ??_Eout_of_range@std@@UAEPAXI@Z 00420ec0 f i libcpmtd:string.obj
 0001:0001fef0       ??0out_of_range@std@@QAE@ABV01@@Z 00420ef0 f i libcpmtd:string.obj
 0001:0001ff80       ??3@YAXPAX@Z               00420f80 f   libcpmtd:delop.obj
 0001:0001ffa0       ??0_Lockit@std@@QAE@XZ     00420fa0 f   libcpmtd:xlock.obj
 0001:00020080       ??1_Lockit@std@@QAE@XZ     00421080 f   libcpmtd:xlock.obj
 0001:000200a0       ?clear@ios_base@std@@QAEXH_N@Z 004210a0 f   libcpmtd:ios.obj
 0001:00020180       ??0runtime_error@std@@QAE@ABV01@@Z 00421180 f i libcpmtd:ios.obj
 0001:000201f0       ?what@runtime_error@std@@UBEPBDXZ 004211f0 f i libcpmtd:ios.obj
 0001:00020210       ?_Doraise@runtime_error@std@@MBEXXZ 00421210 f i libcpmtd:ios.obj
 0001:00020240       ??1runtime_error@std@@UAE@XZ 00421240 f i libcpmtd:ios.obj
 0001:000202a0       ??_Eruntime_error@std@@UAEPAXI@Z 004212a0 f i libcpmtd:ios.obj
 0001:000202a0       ??_Gruntime_error@std@@UAEPAXI@Z 004212a0 f i libcpmtd:ios.obj
 0001:000202d0       ??0failure@ios_base@std@@QAE@ABV?$basic_string@DU?$char_traits@D@std@@V?$allocator@D@2@@2@@Z 004212d0 f i libcpmtd:ios.obj
 0001:00020300       ??0runtime_error@std@@QAE@ABV?$basic_string@DU?$char_traits@D@std@@V?$allocator@D@2@@1@@Z 00421300 f i libcpmtd:ios.obj
 0001:00020370       ??1failure@ios_base@std@@UAE@XZ 00421370 f i libcpmtd:ios.obj
 0001:00020390       ?_Doraise@failure@ios_base@std@@MBEXXZ 00421390 f i libcpmtd:ios.obj
 0001:000203c0       ??_Efailure@ios_base@std@@UAEPAXI@Z 004213c0 f i libcpmtd:ios.obj
 0001:000203c0       ??_Gfailure@ios_base@std@@UAEPAXI@Z 004213c0 f i libcpmtd:ios.obj
 0001:000203f0       ??0failure@ios_base@std@@QAE@ABV012@@Z 004213f0 f i libcpmtd:ios.obj
 0001:00020420       ?copyfmt@ios_base@std@@QAEAAV12@ABV12@@Z 00421420 f   libcpmtd:ios.obj
 0001:00020500       ??4locale@std@@QAEAAV01@ABV01@@Z 00421500 f i libcpmtd:ios.obj
 0001:00020570       ?exceptions@ios_base@std@@QAEXH@Z 00421570 f i libcpmtd:ios.obj
 0001:000205a0       ?iword@ios_base@std@@QAEAAJH@Z 004215a0 f i libcpmtd:ios.obj
 0001:000205c0       ?pword@ios_base@std@@QAEAAPAXH@Z 004215c0 f i libcpmtd:ios.obj
 0001:000205e0       ?imbue@ios_base@std@@QAE?AVlocale@2@ABV32@@Z 004215e0 f   libcpmtd:ios.obj
 0001:00020670       ??0locale@std@@QAE@ABV01@@Z 00421670 f i libcpmtd:ios.obj
 0001:000206a0       ?register_callback@ios_base@std@@QAEXP6AXW4event@12@AAV12@H@ZH@Z 004216a0 f   libcpmtd:ios.obj
 0001:00020730       ??0_Fnarray@ios_base@std@@QAE@HP6AXW4event@12@AAV12@H@ZPAU012@@Z 00421730 f i libcpmtd:ios.obj
 0001:00020760       ??1ios_base@std@@UAE@XZ    00421760 f   libcpmtd:ios.obj
 0001:000207f0       ?_Callfns@ios_base@std@@AAEXW4event@12@@Z 004217f0 f   libcpmtd:ios.obj
 0001:00020840       ?_Findarr@ios_base@std@@AAEAAU_Iosarray@12@H@Z 00421840 f   libcpmtd:ios.obj
 0001:00020970       ??0_Iosarray@ios_base@std@@QAE@HPAU012@@Z 00421970 f i libcpmtd:ios.obj
 0001:000209b0       ?_Addstd@ios_base@std@@IAEXXZ 004219b0 f   libcpmtd:ios.obj
 0001:00020a40       ?_Init@ios_base@std@@IAEXXZ 00421a40 f   libcpmtd:ios.obj
 0001:00020ad0       ?_Tidy@ios_base@std@@AAEXXZ 00421ad0 f   libcpmtd:ios.obj
 0001:00020bd0       ?classic@locale@std@@SAABV12@XZ 00421bd0 f   libcpmtd:locale0.obj
 0001:00020c00       ?empty@locale@std@@SA?AV12@XZ 00421c00 f   libcpmtd:locale0.obj
 0001:00020c90       ??0locale@std@@AAE@PAV_Locimp@01@@Z 00421c90 f i libcpmtd:locale0.obj
 0001:00020cb0       ?_Getfacet@locale@std@@QBEPBVfacet@12@I_N@Z 00421cb0 f   libcpmtd:locale0.obj
 0001:00020d60       ?_Iscloc@locale@std@@QBE_NXZ 00421d60 f   libcpmtd:locale0.obj
 0001:00020dc0       ??8locale@std@@QBE_NABV01@@Z 00421dc0 f   libcpmtd:locale0.obj
 0001:00020ee0       ?name@locale@std@@QBE?AV?$basic_string@DU?$char_traits@D@std@@V?$allocator@D@2@@2@XZ 00421ee0 f i libcpmtd:locale0.obj
 0001:00020f20       ?_Init@locale@std@@CAPAV_Locimp@12@XZ 00421f20 f   libcpmtd:locale0.obj
 0001:00021050       ?_Tidy@locale@std@@CAXXZ   00422050 f   libcpmtd:locale0.obj
 0001:000210e0       ??0_Locimp@locale@std@@AAE@_N@Z 004220e0 f   libcpmtd:locale0.obj
 0001:00021170       ??1facet@locale@std@@UAE@XZ 00422170 f i libcpmtd:locale0.obj
 0001:00021190       ??0facet@locale@std@@IAE@I@Z 00422190 f i libcpmtd:locale0.obj
 0001:000211c0       ??_Efacet@locale@std@@UAEPAXI@Z 004221c0 f i libcpmtd:locale0.obj
 0001:000211c0       ??_Gfacet@locale@std@@UAEPAXI@Z 004221c0 f i libcpmtd:locale0.obj
 0001:000211f0       ??_E_Locimp@locale@std@@UAEPAXI@Z 004221f0 f i libcpmtd:locale0.obj
 0001:000211f0       ??_G_Locimp@locale@std@@UAEPAXI@Z 004221f0 f i libcpmtd:locale0.obj
 0001:00021220       ??1_Locimp@locale@std@@UAE@XZ 00422220 f   libcpmtd:locale0.obj
 0001:00021310       ??4?$basic_string@DU?$char_traits@D@std@@V?$allocator@D@2@@std@@QAEAAV01@PBD@Z 00422310 f i libcpmtd:locale0.obj
 0001:00021330       ?compare@?$basic_string@DU?$char_traits@D@std@@V?$allocator@D@2@@std@@QBEHABV12@@Z 00422330 f i libcpmtd:locale0.obj
 0001:00021360       ?compare@?$basic_string@DU?$char_traits@D@std@@V?$allocator@D@2@@std@@QBEHPBD@Z 00422360 f i libcpmtd:locale0.obj
 0001:00021390       ?compare@?$basic_string@DU?$char_traits@D@std@@V?$allocator@D@2@@std@@QBEHIIPBDI@Z 00422390 f i libcpmtd:locale0.obj
 0001:00021440       ?compare@?$char_traits@D@std@@SAHPBD0I@Z 00422440 f i libcpmtd:locale0.obj
 0001:000214c0       __Mbrtowc                  004224c0 f   libcpmtd:xmbtowc.obj
 0001:00021760       _btowc                     00422760 f   libcpmtd:xmbtowc.obj
 0001:000217c0       _mbrlen                    004227c0 f   libcpmtd:xmbtowc.obj
 0001:00021860       _mbrtowc                   00422860 f   libcpmtd:xmbtowc.obj
 0001:00021940       _mbsrtowcs                 00422940 f   libcpmtd:xmbtowc.obj
 0001:00021ad0       ?_Nomemory@std@@YAXXZ      00422ad0 f   libcpmtd:nomemory.obj
 0001:00021b30       ??0bad_alloc@std@@QAE@PBD@Z 00422b30 f i libcpmtd:nomemory.obj
 0001:00021b60       ??1bad_alloc@std@@UAE@XZ   00422b60 f i libcpmtd:nomemory.obj
 0001:00021b80       ?_Doraise@bad_alloc@std@@MBEXXZ 00422b80 f i libcpmtd:nomemory.obj
 0001:00021bb0       ??_Ebad_alloc@std@@UAEPAXI@Z 00422bb0 f i libcpmtd:nomemory.obj
 0001:00021bb0       ??_Gbad_alloc@std@@UAEPAXI@Z 00422bb0 f i libcpmtd:nomemory.obj
 0001:00021be0       ??0bad_alloc@std@@QAE@ABV01@@Z 00422be0 f i libcpmtd:nomemory.obj
 0001:00021c20       _strncat                   00422c20 f   LIBCMTD:strncat.obj
 0001:00021d50       _sprintf                   00422d50 f   LIBCMTD:sprintf.obj
 0001:00021e50       _strrchr                   00422e50 f   LIBCMTD:strrchr.obj
 0001:00021e80       _strncpy                   00422e80 f   LIBCMTD:strncpy.obj
 0001:00021f80       _memcpy                    00422f80 f   LIBCMTD:memcpy.obj
 0001:000222c0       _srand                     004232c0 f   LIBCMTD:rand.obj
 0001:000222d0       _rand                      004232d0 f   LIBCMTD:rand.obj
 0001:00022310       _sscanf                    00423310 f   LIBCMTD:sscanf.obj
 0001:000223d0       _strlen                    004233d0 f   LIBCMTD:strlen.obj
 0001:00022450       _memset                    00423450 f   LIBCMTD:memset.obj
 0001:000224b0       __alloca_probe             004234b0 f   LIBCMTD:chkstk.obj
 0001:000224b0       __chkstk                   004234b0 f   LIBCMTD:chkstk.obj
 0001:000224e0       __onexit                   004234e0 f   LIBCMTD:onexit.obj
 0001:000225a0       _atexit                    004235a0 f   LIBCMTD:onexit.obj
 0001:000225c0       ___onexitinit              004235c0 f   LIBCMTD:onexit.obj
 0001:00022610       _strcmp                    00423610 f   LIBCMTD:strcmp.obj
 0001:000226a0       __snprintf                 004236a0 f   LIBCMTD:snprintf.obj
 0001:000227a0       __vsnprintf                004237a0 f   LIBCMTD:vsnprint.obj
 0001:000228a0       _atol                      004238a0 f   LIBCMTD:atox.obj
 0001:000229a0       _atoi                      004239a0 f   LIBCMTD:atox.obj
 0001:000229c0       __atoi64                   004239c0 f   LIBCMTD:atox.obj
 0001:00022af0       _setvbuf                   00423af0 f   LIBCMTD:setvbuf.obj
 0001:00022c60       ___initstdio               00423c60 f   LIBCMTD:_file.obj
 0001:00022d90       ___endstdio                00423d90 f   LIBCMTD:_file.obj
 0001:00022db0       __lock_file                00423db0 f   LIBCMTD:_file.obj
 0001:00022df0       __lock_file2               00423df0 f   LIBCMTD:_file.obj
 0001:00022e20       __unlock_file              00423e20 f   LIBCMTD:_file.obj
 0001:00022e60       __unlock_file2             00423e60 f   LIBCMTD:_file.obj
 0001:00022e90       __fdopen                   00423e90 f   LIBCMTD:fdopen.obj
 0001:00023170       __alloc_osfhnd             00424170 f   LIBCMTD:osfinfo.obj
 0001:00023360       __set_osfhnd               00424360 f   LIBCMTD:osfinfo.obj
 0001:00023420       __free_osfhnd              00424420 f   LIBCMTD:osfinfo.obj
 0001:00023500       __get_osfhandle            00424500 f   LIBCMTD:osfinfo.obj
 0001:00023570       __open_osfhandle           00424570 f   LIBCMTD:osfinfo.obj
 0001:00023680       __lock_fhandle             00424680 f   LIBCMTD:osfinfo.obj
 0001:00023710       __unlock_fhandle           00424710 f   LIBCMTD:osfinfo.obj
 0001:00023740       _malloc                    00424740 f   LIBCMTD:dbgheap.obj
 0001:00023760       __malloc_dbg               00424760 f   LIBCMTD:dbgheap.obj
 0001:00023790       __nh_malloc                00424790 f   LIBCMTD:dbgheap.obj
 0001:000237b0       __nh_malloc_dbg            004247b0 f   LIBCMTD:dbgheap.obj
 0001:00023810       __heap_alloc               00424810 f   LIBCMTD:dbgheap.obj
 0001:00023830       __heap_alloc_dbg           00424830 f   LIBCMTD:dbgheap.obj
 0001:00023b50       _calloc                    00424b50 f   LIBCMTD:dbgheap.obj
 0001:00023b70       __calloc_dbg               00424b70 f   LIBCMTD:dbgheap.obj
 0001:00023bd0       _realloc                   00424bd0 f   LIBCMTD:dbgheap.obj
 0001:00023bf0       __realloc_dbg              00424bf0 f   LIBCMTD:dbgheap.obj
 0001:00024150       __expand                   00425150 f   LIBCMTD:dbgheap.obj
 0001:00024170       __expand_dbg               00425170 f   LIBCMTD:dbgheap.obj
 0001:000241b0       _free                      004251b0 f   LIBCMTD:dbgheap.obj
 0001:000241d0       __free_lk                  004251d0 f   LIBCMTD:dbgheap.obj
 0001:000241f0       __free_dbg                 004251f0 f   LIBCMTD:dbgheap.obj
 0001:00024220       __free_dbg_lk              00425220 f   LIBCMTD:dbgheap.obj
 0001:00024610       __msize                    00425610 f   LIBCMTD:dbgheap.obj
 0001:00024630       __msize_dbg                00425630 f   LIBCMTD:dbgheap.obj
 0001:00024790       __CrtSetBreakAlloc         00425790 f   LIBCMTD:dbgheap.obj
 0001:000247b0       __CrtSetDbgBlockType       004257b0 f   LIBCMTD:dbgheap.obj
 0001:00024850       __CrtSetAllocHook          00425850 f   LIBCMTD:dbgheap.obj
 0001:00024900       __CrtCheckMemory           00425900 f   LIBCMTD:dbgheap.obj
 0001:00024c70       __CrtSetDbgFlag            00425c70 f   LIBCMTD:dbgheap.obj
 0001:00024ca0       __CrtDoForAllClientObjects 00425ca0 f   LIBCMTD:dbgheap.obj
 0001:00024d10       __CrtIsValidPointer        00425d10 f   LIBCMTD:dbgheap.obj
 0001:00024d60       __CrtIsValidHeapPointer    00425d60 f   LIBCMTD:dbgheap.obj
 0001:00024df0       __CrtIsMemoryBlock         00425df0 f   LIBCMTD:dbgheap.obj
 0001:00024ee0       __CrtSetDumpClient         00425ee0 f   LIBCMTD:dbgheap.obj
 0001:00024f00       __CrtMemCheckpoint         00425f00 f   LIBCMTD:dbgheap.obj
 0001:00025070       __CrtMemDifference         00426070 f   LIBCMTD:dbgheap.obj
 0001:000251a0       __CrtMemDumpAllObjectsSince 004261a0 f   LIBCMTD:dbgheap.obj
 0001:00025580       __CrtDumpMemoryLeaks       00426580 f   LIBCMTD:dbgheap.obj
 0001:00025600       __CrtMemDumpStatistics     00426600 f   LIBCMTD:dbgheap.obj
 0001:000256d0       _strncmp                   004266d0 f   LIBCMTD:strncmp.obj
 0001:00025710       __CIpow                    00426710 f   LIBCMTD:pow.obj
 0001:00025729       _pow                       00426729 f   LIBCMTD:pow.obj
 0001:00025930       __fpmath                   00426930 f   LIBCMTD:fpinit.obj
 0001:00025960       __fpclear                  00426960 f   LIBCMTD:fpinit.obj
 0001:00025970       __cfltcvt_init             00426970 f   LIBCMTD:fpinit.obj
 0001:000259c0       ___setfflag                004269c0 f   LIBCMTD:fpinit.obj
 0001:000259dc       __ftol                     004269dc f   LIBCMTD:ftol.obj
 0001:00025a10       _floor                     00426a10 f   LIBCMTD:floor.obj
 0001:00025b50       _fabs                      00426b50 f   LIBCMTD:fabs.obj
 0001:00025c60       _strchr                    00426c60 f   LIBCMTD:strchr.obj
 0001:00025c66       ___from_strstr_to_strchr   00426c66 f   LIBCMTD:strchr.obj
 0001:00025d20       _strcpy                    00426d20 f   LIBCMTD:strcat.obj
 0001:00025d30       _strcat                    00426d30 f   LIBCMTD:strcat.obj
 0001:00025e10       __tolower                  00426e10 f   LIBCMTD:tolower.obj
 0001:00025e20       _tolower                   00426e20 f   LIBCMTD:tolower.obj
 0001:00025ec0       __tolower_lk               00426ec0 f   LIBCMTD:tolower.obj
 0001:00025ff0       _fclose                    00426ff0 f   LIBCMTD:fclose.obj
 0001:00026080       __fclose_lk                00427080 f   LIBCMTD:fclose.obj
 0001:00026140       _fread                     00427140 f   LIBCMTD:fread.obj
 0001:00026180       __fread_lk                 00427180 f   LIBCMTD:fread.obj
 0001:00026350       __fsopen                   00427350 f   LIBCMTD:fopen.obj
 0001:00026450       _fopen                     00427450 f   LIBCMTD:fopen.obj
 0001:00026470       __allmul                   00427470 f   LIBCMTD:llmul.obj
 0001:000264b0       __access                   004274b0 f   LIBCMTD:access.obj
 0001:00026510       __aulldiv                  00427510 f   LIBCMTD:ulldiv.obj
 0001:00026580       __aullrem                  00427580 f   LIBCMTD:ullrem.obj
 0001:00026600       __alldiv                   00427600 f   LIBCMTD:lldiv.obj
 0001:000266b0       ?_JumpToContinuation@@YGXPAXPAUEHRegistrationNode@@@Z 004276b0 f   LIBCMTD:trnsctrl.obj
 0001:000266f0       ?_CallMemberFunction0@@YGXPAX0@Z 004276f0 f   LIBCMTD:trnsctrl.obj
 0001:00026700       ?_CallMemberFunction1@@YGXPAX00@Z 00427700 f   LIBCMTD:trnsctrl.obj
 0001:00026710       ?_CallMemberFunction2@@YGXPAX00H@Z 00427710 f   LIBCMTD:trnsctrl.obj
 0001:00026720       ?_UnwindNestedFrames@@YGXPAUEHRegistrationNode@@PAUEHExceptionRecord@@@Z 00427720 f   LIBCMTD:trnsctrl.obj
 0001:00026780       ___CxxFrameHandler         00427780 f   LIBCMTD:trnsctrl.obj
 0001:000267c0       ___CxxLongjmpUnwind@4      004277c0 f   LIBCMTD:trnsctrl.obj
 0001:000267f0       ?_CallCatchBlock2@@YAPAXPAUEHRegistrationNode@@PBU_s_FuncInfo@@PAXHK@Z 004277f0 f   LIBCMTD:trnsctrl.obj
 0001:000268a0       ?_CallSETranslator@@YAHPAUEHExceptionRecord@@PAUEHRegistrationNode@@PAX2PBU_s_FuncInfo@@H1@Z 004278a0 f   LIBCMTD:trnsctrl.obj
 0001:00026a00       ?_GetRangeOfTrysToCheck@@YAPBU_s_TryBlockMapEntry@@PBU_s_FuncInfo@@HHPAI1@Z 00427a00 f   LIBCMTD:trnsctrl.obj
 0001:00026a90       __global_unwind2           00427a90 f   LIBCMTD:exsup.obj
 0001:00026ad2       __local_unwind2            00427ad2 f   LIBCMTD:exsup.obj
 0001:00026b2a       __NLG_Return2              00427b2a f   LIBCMTD:exsup.obj
 0001:00026b3a       __abnormal_termination     00427b3a f   LIBCMTD:exsup.obj
 0001:00026b5d       __NLG_Notify1              00427b5d f   LIBCMTD:exsup.obj
 0001:00026b66       __NLG_Notify               00427b66 f   LIBCMTD:exsup.obj
 0001:00026b79       __NLG_Dispatch             00427b79 f   LIBCMTD:exsup.obj
 0001:00026b80       __EH_prolog                00427b80 f   LIBCMTD:ehprolog.obj
 0001:00026ba0       _printf                    00427ba0 f   LIBCMTD:printf.obj
 0001:00026c40       _memmove                   00427c40 f   LIBCMTD:memmove.obj
 0001:00026f80       ??2@YAPAXI@Z               00427f80 f   LIBCMTD:new.obj
 0001:00026fa0       _memcmp                    00427fa0 f   LIBCMTD:memcmp.obj
 0001:00027050       _strtok                    00428050 f   LIBCMTD:strtok.obj
 0001:000271a0       _strstr                    004281a0 f   LIBCMTD:strstr.obj
 0001:00027220       _fprintf                   00428220 f   LIBCMTD:fprintf.obj
 0001:000272f0       _wcslen                    004282f0 f   LIBCMTD:wcslen.obj
 0001:00027320       _mbstowcs                  00428320 f   LIBCMTD:mbstowcs.obj
 0001:000273a0       __mbstowcs_lk              004283a0 f   LIBCMTD:mbstowcs.obj
 0001:00027590       __cinit                    00428590 f   LIBCMTD:crt0dat.obj
 0001:000275d0       _exit                      004285d0 f   LIBCMTD:crt0dat.obj
 0001:000275f0       __exit                     004285f0 f   LIBCMTD:crt0dat.obj
 0001:00027610       __cexit                    00428610 f   LIBCMTD:crt0dat.obj
 0001:00027630       __c_exit                   00428630 f   LIBCMTD:crt0dat.obj
 0001:00027740       __lockexit                 00428740 f   LIBCMTD:crt0dat.obj
 0001:00027750       __unlockexit               00428750 f   LIBCMTD:crt0dat.obj
 0001:00027790       __splitpath                00428790 f   LIBCMTD:splitpat.obj
 0001:000279e0       _remove                    004289e0 f   LIBCMTD:unlink.obj
 0001:00027a30       __unlink                   00428a30 f   LIBCMTD:unlink.obj
 0001:00027a50       _strtol                    00428a50 f   LIBCMTD:strtol.obj
 0001:00027db0       _strtoul                   00428db0 f   LIBCMTD:strtol.obj
 0001:00027dd0       _fgets                     00428dd0 f   LIBCMTD:fgets.obj
 0001:00027f10       _fseek                     00428f10 f   LIBCMTD:fseek.obj
 0001:00027f80       __fseek_lk                 00428f80 f   LIBCMTD:fseek.obj
 0001:000280b0       _WinMainCRTStartup         004290b0 f   LIBCMTD:wincrt0.obj
 0001:00028220       __amsg_exit                00429220 f   LIBCMTD:wincrt0.obj
 0001:00028280       ??1type_info@@UAE@XZ       00429280 f   LIBCMTD:typinfo.obj
 0001:000282c0       ??_Etype_info@@UAEPAXI@Z   004292c0 f i LIBCMTD:typinfo.obj
 0001:000282c0       ??_Gtype_info@@UAEPAXI@Z   004292c0 f i LIBCMTD:typinfo.obj
 0001:000282f0       ??8type_info@@QBEHABV0@@Z  004292f0 f   LIBCMTD:typinfo.obj
 0001:00028320       ??9type_info@@QBEHABV0@@Z  00429320 f   LIBCMTD:typinfo.obj
 0001:00028350       ?before@type_info@@QBEHABV1@@Z 00429350 f   LIBCMTD:typinfo.obj
 0001:00028380       ?raw_name@type_info@@QBEPBDXZ 00429380 f   LIBCMTD:typinfo.obj
 0001:000283a0       ??0type_info@@AAE@ABV0@@Z  004293a0 f   LIBCMTD:typinfo.obj
 0001:000283c0       ??4type_info@@AAEAAV0@ABV0@@Z 004293c0 f   LIBCMTD:typinfo.obj
 0001:000283d0       _fwrite                    004293d0 f   LIBCMTD:fwrite.obj
 0001:00028410       __fwrite_lk                00429410 f   LIBCMTD:fwrite.obj
 0001:00028630       _fputc                     00429630 f   LIBCMTD:fputc.obj
 0001:000286f0       _putc                      004296f0 f   LIBCMTD:fputc.obj
 0001:00028710       _ungetc                    00429710 f   LIBCMTD:ungetc.obj
 0001:00028780       __ungetc_lk                00429780 f   LIBCMTD:ungetc.obj
 0001:000288c0       _fgetc                     004298c0 f   LIBCMTD:fgetc.obj
 0001:00028970       _getc                      00429970 f   LIBCMTD:fgetc.obj
 0001:00028990       _fgetpos                   00429990 f   LIBCMTD:fgetpos.obj
 0001:000289d0       _fsetpos                   004299d0 f   LIBCMTD:fsetpos.obj
 0001:000289f0       _fflush                    004299f0 f   LIBCMTD:fflush.obj
 0001:00028a40       __fflush_lk                00429a40 f   LIBCMTD:fflush.obj
 0001:00028a90       __flush                    00429a90 f   LIBCMTD:fflush.obj
 0001:00028b50       __flushall                 00429b50 f   LIBCMTD:fflush.obj
 0001:00028ca0       _fputwc                    00429ca0 f   LIBCMTD:fputwc.obj
 0001:00028d20       __putwc_lk                 00429d20 f   LIBCMTD:fputwc.obj
 0001:00028f50       _putwc                     00429f50 f   LIBCMTD:fputwc.obj
 0001:00028f70       _ungetwc                   00429f70 f   LIBCMTD:ungetwc.obj
 0001:00028fe0       __ungetwc_lk               00429fe0 f   LIBCMTD:ungetwc.obj
 0001:00029240       _fgetwc                    0042a240 f   LIBCMTD:fgetwc.obj
 0001:000292b0       __getwc_lk                 0042a2b0 f   LIBCMTD:fgetwc.obj
 0001:00029480       _getwc                     0042a480 f   LIBCMTD:fgetwc.obj
 0001:000294a0       ??0exception@@QAE@XZ       0042a4a0 f   LIBCMTD:stdexcpt.obj
 0001:000294d0       ??_Eexception@@UAEPAXI@Z   0042a4d0 f i LIBCMTD:stdexcpt.obj
 0001:000294d0       ??_Gexception@@UAEPAXI@Z   0042a4d0 f i LIBCMTD:stdexcpt.obj
 0001:00029500       ??0exception@@QAE@ABQBD@Z  0042a500 f   LIBCMTD:stdexcpt.obj
 0001:00029570       ??0exception@@QAE@ABV0@@Z  0042a570 f   LIBCMTD:stdexcpt.obj
 0001:00029600       ??4exception@@QAEAAV0@ABV0@@Z 0042a600 f   LIBCMTD:stdexcpt.obj
 0001:00029630       ??1exception@@UAE@XZ       0042a630 f   LIBCMTD:stdexcpt.obj
 0001:00029670       ?what@exception@@UBEPBDXZ  0042a670 f   LIBCMTD:stdexcpt.obj
 0001:000296a0       __CxxThrowException@8      0042a6a0 f   LIBCMTD:throw.obj
 0001:000296f0       __mtinitlocks              0042a6f0 f   LIBCMTD:mlock.obj
 0001:00029730       __mtdeletelocks            0042a730 f   LIBCMTD:mlock.obj
 0001:000297d0       __lock                     0042a7d0 f   LIBCMTD:mlock.obj
 0001:00029870       __unlock                   0042a870 f   LIBCMTD:mlock.obj
 0001:00029890       __lockerr_exit             0042a890 f   LIBCMTD:mlock.obj
 0001:000298b0       _setlocale                 0042a8b0 f   LIBCMTD:setlocal.obj
 0001:00029f40       __expandlocale             0042af40 f   LIBCMTD:setlocal.obj
 0001:0002a0d0       ___init_dummy              0042b0d0 f   LIBCMTD:setlocal.obj
 0001:0002a0e0       __strcats                  0042b0e0 f   LIBCMTD:setlocal.obj
 0001:0002a130       ___lc_strtolc              0042b130 f   LIBCMTD:setlocal.obj
 0001:0002a290       ___lc_lctostr              0042b290 f   LIBCMTD:setlocal.obj
 0001:0002a300       __dosmaperr                0042b300 f   LIBCMTD:dosmap.obj
 0001:0002a3a0       __errno                    0042b3a0 f   LIBCMTD:dosmap.obj
 0001:0002a3b0       ___doserrno                0042b3b0 f   LIBCMTD:dosmap.obj
 0001:0002a3c0       __CrtDbgBreak              0042b3c0 f   LIBCMTD:dbgrpt.obj
 0001:0002a3d0       __CrtSetReportMode         0042b3d0 f   LIBCMTD:dbgrpt.obj
 0001:0002a430       __CrtSetReportFile         0042b430 f   LIBCMTD:dbgrpt.obj
 0001:0002a4b0       __CrtSetReportHook         0042b4b0 f   LIBCMTD:dbgrpt.obj
 0001:0002a4d0       __CrtDbgReport             0042b4d0 f   LIBCMTD:dbgrpt.obj
 0001:0002ab70       __flsbuf                   0042bb70 f   LIBCMTD:_flsbuf.obj
 0001:0002adf0       __output                   0042bdf0 f   LIBCMTD:output.obj
 0001:0002bc90       __mtinit                   0042cc90 f   LIBCMTD:tidtable.obj
 0001:0002bd20       __mtterm                   0042cd20 f   LIBCMTD:tidtable.obj
 0001:0002bd50       __initptd                  0042cd50 f   LIBCMTD:tidtable.obj
 0001:0002bd70       __getptd                   0042cd70 f   LIBCMTD:tidtable.obj
 0001:0002be10       __freeptd                  0042ce10 f   LIBCMTD:tidtable.obj
 0001:0002bf20       ___threadid                0042cf20 f   LIBCMTD:tidtable.obj
 0001:0002bf30       ___threadhandle            0042cf30 f   LIBCMTD:tidtable.obj
 0001:0002bf40       __input                    0042cf40 f   LIBCMTD:input.obj
 0001:0002d440       __isctype                  0042e440 f   LIBCMTD:isctype.obj
 0001:0002d500       __freebuf                  0042e500 f   LIBCMTD:_freebuf.obj
 0001:0002d5a0       __ioinit                   0042e5a0 f   LIBCMTD:ioinit.obj
 0001:0002d8d0       __ioterm                   0042e8d0 f   LIBCMTD:ioinit.obj
 0001:0002d970       __fcloseall                0042e970 f   LIBCMTD:closeall.obj
 0001:0002da50       __getstream                0042ea50 f   LIBCMTD:stream.obj
 0001:0002dbd0       ?_set_new_handler@@YAP6AHI@ZP6AHI@Z@Z 0042ebd0 f   LIBCMTD:handler.obj
 0001:0002dc00       ?_query_new_handler@@YAP6AHI@ZXZ 0042ec00 f   LIBCMTD:handler.obj
 0001:0002dc10       __callnewh                 0042ec10 f   LIBCMTD:handler.obj
 0001:0002dc40       __malloc_base              0042ec40 f   LIBCMTD:malloc.obj
 0001:0002dc60       __nh_malloc_base           0042ec60 f   LIBCMTD:malloc.obj
 0001:0002dcc0       __heap_alloc_base          0042ecc0 f   LIBCMTD:malloc.obj
 0001:0002dd30       __CrtDefaultAllocHook      0042ed30 f   LIBCMTD:dbghook.obj
 0001:0002dd40       __expand_base              0042ed40 f   LIBCMTD:expand.obj
 0001:0002ddf0       __realloc_base             0042edf0 f   LIBCMTD:realloc.obj
 0001:0002dfe0       __free_base                0042efe0 f   LIBCMTD:free.obj
 0001:0002e050       __heapchk                  0042f050 f   LIBCMTD:heapchk.obj
 0001:0002e0d0       __heapset                  0042f0d0 f   LIBCMTD:heapchk.obj
 0001:0002e0e0       __heap_init                0042f0e0 f   LIBCMTD:heapinit.obj
 0001:0002e130       __heap_term                0042f130 f   LIBCMTD:heapinit.obj
 0001:0002e1d0       __get_sbh_threshold        0042f1d0 f   LIBCMTD:sbheap.obj
 0001:0002e1e0       __set_sbh_threshold        0042f1e0 f   LIBCMTD:sbheap.obj
 0001:0002e200       ___sbh_heap_init           0042f200 f   LIBCMTD:sbheap.obj
 0001:0002e260       ___sbh_find_block          0042f260 f   LIBCMTD:sbheap.obj
 0001:0002e2c0       ___sbh_verify_block        0042f2c0 f   LIBCMTD:sbheap.obj
 0001:0002e320       ___sbh_free_block          0042f320 f   LIBCMTD:sbheap.obj
 0001:0002e8f0       ___sbh_alloc_block         0042f8f0 f   LIBCMTD:sbheap.obj
 0001:0002ee30       ___sbh_alloc_new_region    0042fe30 f   LIBCMTD:sbheap.obj
 0001:0002ef40       ___sbh_alloc_new_group     0042ff40 f   LIBCMTD:sbheap.obj
 0001:0002f130       ___sbh_resize_block        00430130 f   LIBCMTD:sbheap.obj
 0001:0002f720       ___sbh_heapmin             00430720 f   LIBCMTD:sbheap.obj
 0001:0002f850       ___sbh_heap_check          00430850 f   LIBCMTD:sbheap.obj
 0001:0002fe81       __fFEXP                    00430e81 f   LIBCMTD:87tran.obj
 0001:0002fee8       __rtinfpopse               00430ee8 f   LIBCMTD:87tran.obj
 0001:0002feea       __rtinfnpopse              00430eea f   LIBCMTD:87tran.obj
 0001:0002fefa       __fFLN                     00430efa f   LIBCMTD:87tran.obj
 0001:0002ffaf       __rtinfpop                 00430faf f   LIBCMTD:87tran.obj
 0001:0002ffb1       __rtinfnpop                00430fb1 f   LIBCMTD:87tran.obj
 0001:0002ffce       __ffexpm1                  00430fce f   LIBCMTD:87tran.obj
 0001:00030080       __trandisp1                00431080 f   LIBCMTD:87disp.obj
 0001:000300e7       __trandisp2                004310e7 f   LIBCMTD:87disp.obj
 0001:00030173       __rttospopde               00431173 f   LIBCMTD:87disp.obj
 0001:00030178       __rttospop                 00431178 f   LIBCMTD:87disp.obj
 0001:0003017a       __rtnospop                 0043117a f   LIBCMTD:87disp.obj
 0001:0003017c       __rttosnpop                0043117c f   LIBCMTD:87disp.obj
 0001:0003017d       __rtnospopde               0043117d f   LIBCMTD:87disp.obj
 0001:00030184       __rtzeropop                00431184 f   LIBCMTD:87disp.obj
 0001:00030186       __rtzeronpop               00431186 f   LIBCMTD:87disp.obj
 0001:0003018b       __rtonepop                 0043118b f   LIBCMTD:87disp.obj
 0001:0003018d       __rtonenpop                0043118d f   LIBCMTD:87disp.obj
 0001:00030192       __tosnan1                  00431192 f   LIBCMTD:87disp.obj
 0001:000301bd       __nosnan2                  004311bd f   LIBCMTD:87disp.obj
 0001:000301bf       __tosnan2                  004311bf f   LIBCMTD:87disp.obj
 0001:000301e7       __nan2                     004311e7 f   LIBCMTD:87disp.obj
 0001:00030226       __rtindfpop                00431226 f   LIBCMTD:87disp.obj
 0001:00030228       __rtindfnpop               00431228 f   LIBCMTD:87disp.obj
 0001:00030239       __rttosnpopde              00431239 f   LIBCMTD:87disp.obj
 0001:00030243       __rtchsifneg               00431243 f   LIBCMTD:87disp.obj
 0001:00030250       __startTwoArgErrorHandling 00431250 f   LIBCMTD:genexcep.obj
 0001:00030267       __startOneArgErrorHandling 00431267 f   LIBCMTD:genexcep.obj
 0001:000302b0       __twoToTOS                 004312b0 f   LIBCMTD:common.obj
 0001:000302c5       __load_CW                  004312c5 f   LIBCMTD:common.obj
 0001:000302dc       __convertTOStoQNaN         004312dc f   LIBCMTD:common.obj
 0001:000302f5       __fload_withFB             004312f5 f   LIBCMTD:common.obj
 0001:00030338       __checkTOS_withFB          00431338 f   LIBCMTD:common.obj
 0001:0003034e       __fast_exit                0043134e f   LIBCMTD:common.obj
 0001:0003035b       __math_exit                0043135b f   LIBCMTD:common.obj
 0001:00030385       __check_overflow_exit      00431385 f   LIBCMTD:common.obj
 0001:00030399       __check_range_exit         00431399 f   LIBCMTD:common.obj
 0001:00030440       __powhlp                   00431440 f   LIBCMTD:powhlp.obj
 0001:000306b0       __d_inttype                004316b0 f   LIBCMTD:powhlp.obj
 0001:00030730       __setdefaultprecision      00431730 f   LIBCMTD:fp8.obj
 0001:00030750       __ms_p5_test_fdiv          00431750 f   LIBCMTD:testfdiv.obj
 0001:000307b0       __ms_p5_mp_test_fdiv       004317b0 f   LIBCMTD:testfdiv.obj
 0001:00030800       __forcdecpt                00431800 f   LIBCMTD:cvt.obj
 0001:000308b0       __cropzeros                004318b0 f   LIBCMTD:cvt.obj
 0001:00030990       __positive                 00431990 f   LIBCMTD:cvt.obj
 0001:000309c0       __fassign                  004319c0 f   LIBCMTD:cvt.obj
 0001:00030a10       __cftoe                    00431a10 f   LIBCMTD:cvt.obj
 0001:00030c00       __cftof                    00431c00 f   LIBCMTD:cvt.obj
 0001:00030db0       __cftog                    00431db0 f   LIBCMTD:cvt.obj
 0001:00030ea0       __cfltcvt                  00431ea0 f   LIBCMTD:cvt.obj
 0001:00030f30       __frnd                     00431f30 f   LIBCMTD:frnd.obj
 0001:00030f50       __handle_qnan1             00431f50 f   LIBCMTD:fpexcept.obj
 0001:00030fb0       __handle_qnan2             00431fb0 f   LIBCMTD:fpexcept.obj
 0001:00031020       __except1                  00432020 f   LIBCMTD:fpexcept.obj
 0001:000310e0       __except2                  004320e0 f   LIBCMTD:fpexcept.obj
 0001:000311b0       __raise_exc                004321b0 f   LIBCMTD:fpexcept.obj
 0001:00031680       __handle_exc               00432680 f   LIBCMTD:fpexcept.obj
 0001:00031a00       __umatherr                 00432a00 f   LIBCMTD:fpexcept.obj
 0001:00031aa0       __set_errno                00432aa0 f   LIBCMTD:fpexcept.obj
 0001:00031b20       __errcode                  00432b20 f   LIBCMTD:fpexcept.obj
 0001:00031ba0       __set_exp                  00432ba0 f   LIBCMTD:util.obj
 0001:00031be0       __get_exp                  00432be0 f   LIBCMTD:util.obj
 0001:00031c10       __add_exp                  00432c10 f   LIBCMTD:util.obj
 0001:00031c50       __set_bexp                 00432c50 f   LIBCMTD:util.obj
 0001:00031c90       __sptype                   00432c90 f   LIBCMTD:util.obj
 0001:00031d10       __decomp                   00432d10 f   LIBCMTD:util.obj
 0001:00031e50       __statfp                   00432e50 f   LIBCMTD:fpctrl.obj
 0001:00031e70       __clrfp                    00432e70 f   LIBCMTD:fpctrl.obj
 0001:00031e90       __ctrlfp                   00432e90 f   LIBCMTD:fpctrl.obj
 0001:00031ed0       __set_statfp               00432ed0 f   LIBCMTD:fpctrl.obj
 0001:00031f50       ___crtLCMapStringA         00432f50 f   LIBCMTD:a_map.obj
 0001:000322b0       __close                    004332b0 f   LIBCMTD:close.obj
 0001:00032330       __close_lk                 00433330 f   LIBCMTD:close.obj
 0001:000323e0       __filbuf                   004333e0 f   LIBCMTD:_filbuf.obj
 0001:000325d0       __read                     004335d0 f   LIBCMTD:read.obj
 0001:00032660       __read_lk                  00433660 f   LIBCMTD:read.obj
 0001:00032ab0       __openfile                 00433ab0 f   LIBCMTD:_open.obj
 0001:00032e40       ___InternalCxxFrameHandler 00433e40 f   LIBCMTD:frame.obj
 0001:000333b0       ___FrameUnwindToState      004343b0 f   LIBCMTD:frame.obj
 0001:000339c0       ?_DestructExceptionObject@@YAXPAUEHExceptionRecord@@E@Z 004349c0 f   LIBCMTD:frame.obj
 0001:00033aa0       __CallSettingFrame@12      00434aa0 f   LIBCMTD:lowhelpr.obj
 0001:00033ac7       __NLG_Return               00434ac7 f   LIBCMTD:lowhelpr.obj
 0001:00033af0       ?terminate@@YAXXZ          00434af0 f   LIBCMTD:hooks.obj
 0001:00033b80       ?unexpected@@YAXXZ         00434b80 f   LIBCMTD:hooks.obj
 0001:00033ba0       ?_inconsistency@@YAXXZ     00434ba0 f   LIBCMTD:hooks.obj
 0001:00033c30       __stbuf                    00434c30 f   LIBCMTD:_sftbuf.obj
 0001:00033d90       __ftbuf                    00434d90 f   LIBCMTD:_sftbuf.obj
 0001:00033e30       __setmbcp                  00434e30 f   LIBCMTD:mbctype.obj
 0001:000345f0       __getmbcp                  004355f0 f   LIBCMTD:mbctype.obj
 0001:00034610       ___initmbctable            00435610 f   LIBCMTD:mbctype.obj
 0001:00034640       __mbsnbcpy                 00435640 f   LIBCMTD:mbsnbcpy.obj
 0001:00034770       __toupper                  00435770 f   LIBCMTD:toupper.obj
 0001:00034780       _toupper                   00435780 f   LIBCMTD:toupper.obj
 0001:00034820       __toupper_lk               00435820 f   LIBCMTD:toupper.obj
 0001:00034950       __lseek                    00435950 f   LIBCMTD:lseek.obj
 0001:000349e0       __lseek_lk                 004359e0 f   LIBCMTD:lseek.obj
 0001:00034aa0       _ftell                     00435aa0 f   LIBCMTD:ftell.obj
 0001:00034b10       __ftell_lk                 00435b10 f   LIBCMTD:ftell.obj
 0001:00034db0       __XcptFilter               00435db0 f   LIBCMTD:winxfltr.obj
 0001:00034fd0       __wincmdln                 00435fd0 f   LIBCMTD:wincmdln.obj
 0001:00035090       __setenvp                  00436090 f   LIBCMTD:stdenvp.obj
 0001:000351e0       __setargv                  004361e0 f   LIBCMTD:stdargv.obj
 0001:000356f0       ___crtGetEnvironmentStringsA 004366f0 f   LIBCMTD:a_env.obj
 0001:00035914       __except_handler3          00436914 f   LIBCMTD:exsup3.obj
 0001:000359d1       __seh_longjmp_unwind@4     004369d1 f   LIBCMTD:exsup3.obj
 0001:000359f0       __FF_MSGBANNER             004369f0 f   LIBCMTD:crt0msg.obj
 0001:00035a40       __NMSG_WRITE               00436a40 f   LIBCMTD:crt0msg.obj
 0001:00035c00       __GET_RTERRMSG             00436c00 f   LIBCMTD:crt0msg.obj
 0001:00035c50       __write                    00436c50 f   LIBCMTD:write.obj
 0001:00035ce0       __write_lk                 00436ce0 f   LIBCMTD:write.obj
 0001:00035f60       __getbuf                   00436f60 f   LIBCMTD:_getbuf.obj
 0001:00036030       __ftelli64                 00437030 f   LIBCMTD:ftelli64.obj
 0001:000360a0       __ftelli64_lk              004370a0 f   LIBCMTD:ftelli64.obj
 0001:00036390       __fseeki64                 00437390 f   LIBCMTD:fseeki64.obj
 0001:00036400       __fseeki64_lk              00437400 f   LIBCMTD:fseeki64.obj
 0001:00036550       __commit                   00437550 f   LIBCMTD:commit.obj
 0001:00036630       __flswbuf                  00437630 f   LIBCMTD:_flswbuf.obj
 0001:000368c0       _wctomb                    004378c0 f   LIBCMTD:wctomb.obj
 0001:00036940       __wctomb_lk                00437940 f   LIBCMTD:wctomb.obj
 0001:000369e0       __filwbuf                  004379e0 f   LIBCMTD:_filwbuf.obj
 0001:00036be0       _mbtowc                    00437be0 f   LIBCMTD:mbtowc.obj
 0001:00036c60       __mbtowc_lk                00437c60 f   LIBCMTD:mbtowc.obj
 0001:00036dc0       ?__CxxUnhandledExceptionFilter@@YGJPAU_EXCEPTION_POINTERS@@@Z 00437dc0 f   LIBCMTD:unhandld.obj
 0001:00036e20       ?__CxxSetUnhandledExceptionFilter@@YAXXZ 00437e20 f   LIBCMTD:unhandld.obj
 0001:00036e40       ?__CxxRestoreUnhandledExceptionFilter@@YAXXZ 00437e40 f   LIBCMTD:unhandld.obj
 0001:00036e60       ___init_time               00437e60 f   LIBCMTD:inittime.obj
 0001:000377e0       ___init_numeric            004387e0 f   LIBCMTD:initnum.obj
 0001:00037b10       ___init_monetary           00438b10 f   LIBCMTD:initmon.obj
 0001:00037f70       ___init_ctype              00438f70 f   LIBCMTD:initctyp.obj
 0001:00038310       ___init_collate            00439310 f   LIBCMTD:initcoll.obj
 0001:00038320       _strcspn                   00439320 f   LIBCMTD:strcspn.obj
 0001:00038360       _strpbrk                   00439360 f   LIBCMTD:strpbrk.obj
 0001:000383a0       ___get_qualified_locale    004393a0 f   LIBCMTD:getqloc.obj
 0001:00039140       __itoa                     0043a140 f   LIBCMTD:xtoa.obj
 0001:00039260       __ltoa                     0043a260 f   LIBCMTD:xtoa.obj
 0001:000392a0       __ultoa                    0043a2a0 f   LIBCMTD:xtoa.obj
 0001:000392c0       __i64toa                   0043a2c0 f   LIBCMTD:xtoa.obj
 0001:00039410       __ui64toa                  0043a410 f   LIBCMTD:xtoa.obj
 0001:00039430       _signal                    0043a430 f   LIBCMTD:winsig.obj
 0001:00039700       _raise                     0043a700 f   LIBCMTD:winsig.obj
 0001:000399a0       ___fpecode                 0043a9a0 f   LIBCMTD:winsig.obj
 0001:000399b0       ___pxcptinfoptrs           0043a9b0 f   LIBCMTD:winsig.obj
 0001:000399c0       ___crtMessageBoxA          0043a9c0 f   LIBCMTD:crtmbox.obj
 0001:00039a80       __isatty                   0043aa80 f   LIBCMTD:isatty.obj
 0001:00039ac0       _isalpha                   0043aac0 f   LIBCMTD:_ctype.obj
 0001:00039b10       _isupper                   0043ab10 f   LIBCMTD:_ctype.obj
 0001:00039b50       _islower                   0043ab50 f   LIBCMTD:_ctype.obj
 0001:00039b90       _isdigit                   0043ab90 f   LIBCMTD:_ctype.obj
 0001:00039bd0       _isxdigit                  0043abd0 f   LIBCMTD:_ctype.obj
 0001:00039c20       _isspace                   0043ac20 f   LIBCMTD:_ctype.obj
 0001:00039c60       _ispunct                   0043ac60 f   LIBCMTD:_ctype.obj
 0001:00039ca0       _isalnum                   0043aca0 f   LIBCMTD:_ctype.obj
 0001:00039cf0       _isprint                   0043acf0 f   LIBCMTD:_ctype.obj
 0001:00039d40       _isgraph                   0043ad40 f   LIBCMTD:_ctype.obj
 0001:00039d90       _iscntrl                   0043ad90 f   LIBCMTD:_ctype.obj
 0001:00039dd0       ___isascii                 0043add0 f   LIBCMTD:_ctype.obj
 0001:00039de0       ___toascii                 0043ade0 f   LIBCMTD:_ctype.obj
 0001:00039df0       ___iscsymf                 0043adf0 f   LIBCMTD:_ctype.obj
 0001:00039e50       ___iscsym                  0043ae50 f   LIBCMTD:_ctype.obj
 0001:00039eb0       __allshl                   0043aeb0 f   LIBCMTD:llshl.obj
 0001:00039ed0       ___crtGetStringTypeA       0043aed0 f   LIBCMTD:a_str.obj
 0001:0003a090       _fdiv_main_routine         0043b090 f   LIBCMTD:adj_fdiv.obj
 0001:0003a1a7       __adj_fdiv_r               0043b1a7 f   LIBCMTD:adj_fdiv.obj
 0001:0003a646       __fdivp_sti_st             0043b646 f   LIBCMTD:adj_fdiv.obj
 0001:0003a659       __fdivrp_sti_st            0043b659 f   LIBCMTD:adj_fdiv.obj
 0001:0003a66c       __adj_fdiv_m32             0043b66c f   LIBCMTD:adj_fdiv.obj
 0001:0003a6b8       __adj_fdiv_m64             0043b6b8 f   LIBCMTD:adj_fdiv.obj
 0001:0003a704       __adj_fdiv_m16i            0043b704 f   LIBCMTD:adj_fdiv.obj
 0001:0003a738       __adj_fdiv_m32i            0043b738 f   LIBCMTD:adj_fdiv.obj
 0001:0003a76c       __adj_fdivr_m32            0043b76c f   LIBCMTD:adj_fdiv.obj
 0001:0003a7b8       __adj_fdivr_m64            0043b7b8 f   LIBCMTD:adj_fdiv.obj
 0001:0003a804       __adj_fdivr_m16i           0043b804 f   LIBCMTD:adj_fdiv.obj
 0001:0003a838       __adj_fdivr_m32i           0043b838 f   LIBCMTD:adj_fdiv.obj
 0001:0003a86c       __safe_fdiv                0043b86c f   LIBCMTD:adj_fdiv.obj
 0001:0003a881       __safe_fdivr               0043b881 f   LIBCMTD:adj_fdiv.obj
 0001:0003a896       __fprem_common             0043b896 f   LIBCMTD:adj_fdiv.obj
 0001:0003aa9c       __adj_fprem                0043ba9c f   LIBCMTD:adj_fdiv.obj
 0001:0003ab4e       __fprem1_common            0043bb4e f   LIBCMTD:adj_fdiv.obj
 0001:0003ad54       __adj_fprem1               0043bd54 f   LIBCMTD:adj_fdiv.obj
 0001:0003ae09       __safe_fprem               0043be09 f   LIBCMTD:adj_fdiv.obj
 0001:0003ae0f       __safe_fprem1              0043be0f f   LIBCMTD:adj_fdiv.obj
 0001:0003ae15       __adj_fpatan               0043be15 f   LIBCMTD:adj_fdiv.obj
 0001:0003ae18       __adj_fptan                0043be18 f   LIBCMTD:adj_fdiv.obj
 0001:0003ae20       __87except                 0043be20 f   LIBCMTD:87except.obj
 0001:0003afa0       __copysign                 0043bfa0 f   LIBCMTD:ieeemisc.obj
 0001:0003afd0       __chgsign                  0043bfd0 f   LIBCMTD:ieeemisc.obj
 0001:0003b000       __scalb                    0043c000 f   LIBCMTD:ieeemisc.obj
 0001:0003b020       __logb                     0043c020 f   LIBCMTD:ieeemisc.obj
 0001:0003b150       __nextafter                0043c150 f   LIBCMTD:ieeemisc.obj
 0001:0003b490       __finite                   0043c490 f   LIBCMTD:ieeemisc.obj
 0001:0003b4c0       __isnan                    0043c4c0 f   LIBCMTD:ieeemisc.obj
 0001:0003b510       __fpclass                  0043c510 f   LIBCMTD:ieeemisc.obj
 0001:0003b5f0       __statusfp                 0043c5f0 f   LIBCMTD:ieee87.obj
 0001:0003b610       __clearfp                  0043c610 f   LIBCMTD:ieee87.obj
 0001:0003b630       __control87                0043c630 f   LIBCMTD:ieee87.obj
 0001:0003b680       __controlfp                0043c680 f   LIBCMTD:ieee87.obj
 0001:0003b6a0       __fpreset                  0043c6a0 f   LIBCMTD:ieee87.obj
 0001:0003ba90       __ZeroTail                 0043ca90 f   LIBCMTD:intrncvt.obj
 0001:0003bb20       __IncMan                   0043cb20 f   LIBCMTD:intrncvt.obj
 0001:0003bbd0       __RoundMan                 0043cbd0 f   LIBCMTD:intrncvt.obj
 0001:0003bcb0       __CopyMan                  0043ccb0 f   LIBCMTD:intrncvt.obj
 0001:0003bd00       __FillZeroMan              0043cd00 f   LIBCMTD:intrncvt.obj
 0001:0003bd30       __IsZeroMan                0043cd30 f   LIBCMTD:intrncvt.obj
 0001:0003bd70       __ShrMan                   0043cd70 f   LIBCMTD:intrncvt.obj
 0001:0003be60       __ld12cvt                  0043ce60 f   LIBCMTD:intrncvt.obj
 0001:0003c0b0       __ld12tod                  0043d0b0 f   LIBCMTD:intrncvt.obj
 0001:0003c0d0       __ld12tof                  0043d0d0 f   LIBCMTD:intrncvt.obj
 0001:0003c0f0       __ld12told                 0043d0f0 f   LIBCMTD:intrncvt.obj
 0001:0003c1b0       __atodbl                   0043d1b0 f   LIBCMTD:intrncvt.obj
 0001:0003c1f0       __atoldbl                  0043d1f0 f   LIBCMTD:intrncvt.obj
 0001:0003c230       __atoflt                   0043d230 f   LIBCMTD:intrncvt.obj
 0001:0003c270       __fptostr                  0043d270 f   LIBCMTD:_fptostr.obj
 0001:0003c370       __fltout2                  0043d370 f   LIBCMTD:cfout.obj
 0001:0003c3f0       ___dtold                   0043d3f0 f   LIBCMTD:cfout.obj
 0001:0003c560       __fptrap                   0043d560 f   LIBCMTD:crt0fp.obj
 0001:0003c570       __matherr                  0043d570 f   LIBCMTD:matherr.obj
 0001:0003c580       __open                     0043d580 f   LIBCMTD:open.obj
 0001:0003c5c0       __sopen                    0043d5c0 f   LIBCMTD:open.obj
 0001:0003cb20       ?_ValidateRead@@YAHPBXI@Z  0043db20 f   LIBCMTD:validate.obj
 0001:0003cb50       ?_ValidateWrite@@YAHPAXI@Z 0043db50 f   LIBCMTD:validate.obj
 0001:0003cb80       ?_ValidateExecute@@YAHP6GHXZ@Z 0043db80 f   LIBCMTD:validate.obj
 0001:0003cbb0       _abort                     0043dbb0 f   LIBCMTD:abort.obj
 0001:0003cbd0       __ismbbkalnum              0043dbd0 f   LIBCMTD:ismbbyte.obj
 0001:0003cbf0       __ismbbkprint              0043dbf0 f   LIBCMTD:ismbbyte.obj
 0001:0003cc10       __ismbbkpunct              0043dc10 f   LIBCMTD:ismbbyte.obj
 0001:0003cc30       __ismbbalnum               0043dc30 f   LIBCMTD:ismbbyte.obj
 0001:0003cc50       __ismbbalpha               0043dc50 f   LIBCMTD:ismbbyte.obj
 0001:0003cc70       __ismbbgraph               0043dc70 f   LIBCMTD:ismbbyte.obj
 0001:0003cc90       __ismbbprint               0043dc90 f   LIBCMTD:ismbbyte.obj
 0001:0003ccb0       __ismbbpunct               0043dcb0 f   LIBCMTD:ismbbyte.obj
 0001:0003ccd0       __ismbblead                0043dcd0 f   LIBCMTD:ismbbyte.obj
 0001:0003ccf0       __ismbbtrail               0043dcf0 f   LIBCMTD:ismbbyte.obj
 0001:0003cd10       __ismbbkana                0043dd10 f   LIBCMTD:ismbbyte.obj
 0001:0003cdc0       __lseeki64                 0043ddc0 f   LIBCMTD:lseeki64.obj
 0001:0003ce60       __lseeki64_lk              0043de60 f   LIBCMTD:lseeki64.obj
 0001:0003cf20       __Getdays                  0043df20 f   LIBCMTD:strftime.obj
 0001:0003d050       __Getmonths                0043e050 f   LIBCMTD:strftime.obj
 0001:0003d180       __Gettnames                0043e180 f   LIBCMTD:strftime.obj
 0001:0003d4f0       _strftime                  0043e4f0 f   LIBCMTD:strftime.obj
 0001:0003d510       __Strftime                 0043e510 f   LIBCMTD:strftime.obj
 0001:0003e390       ___getlocaleinfo           0043f390 f   LIBCMTD:inithelp.obj
 0001:0003e620       _localeconv                0043f620 f   LIBCMTD:lconv.obj
 0001:0003e630       ___crtGetStringTypeW       0043f630 f   LIBCMTD:w_str.obj
 0001:0003e8a0       __stricmp                  0043f8a0 f   LIBCMTD:stricmp.obj
 0001:0003e8a0       __strcmpi                  0043f8a0 f   LIBCMTD:stricmp.obj
 0001:0003e970       __strnicmp                 0043f970 f   LIBCMTD:strnicmp.obj
 0001:0003ea80       _ldexp                     0043fa80 f   LIBCMTD:ldexp.obj
 0001:0003ed40       ___addl                    0043fd40 f   LIBCMTD:mantold.obj
 0001:0003ed80       ___add_12                  0043fd80 f   LIBCMTD:mantold.obj
 0001:0003ee30       ___shl_12                  0043fe30 f   LIBCMTD:mantold.obj
 0001:0003ee90       ___shr_12                  0043fe90 f   LIBCMTD:mantold.obj
 0001:0003ef00       ___mtold12                 0043ff00 f   LIBCMTD:mantold.obj
 0001:0003f040       ___strgtold12              00440040 f   LIBCMTD:strgtold.obj
 0001:0003fb70       ___STRINGTOLD              00440b70 f   LIBCMTD:strgtold.obj
 0001:0003fbc0       _$I10_OUTPUT               00440bc0 f   LIBCMTD:x10fout.obj
 0001:000400e0       __chsize                   004410e0 f   LIBCMTD:chsize.obj
 0001:00040160       __chsize_lk                00441160 f   LIBCMTD:chsize.obj
 0001:00040390       ___tzset                   00441390 f   LIBCMTD:tzset.obj
 0001:000403d0       __tzset                    004413d0 f   LIBCMTD:tzset.obj
 0001:000407a0       __isindst                  004417a0 f   LIBCMTD:tzset.obj
 0001:00040cd0       ___crtGetLocaleInfoW       00441cd0 f   LIBCMTD:w_loc.obj
 0001:00040e70       ___crtGetLocaleInfoA       00441e70 f   LIBCMTD:a_loc.obj
 0001:00041020       ___ld12mul                 00442020 f   LIBCMTD:tenpow.obj
 0001:00041460       ___multtenpow12            00442460 f   LIBCMTD:tenpow.obj
 0001:00041530       __setmode                  00442530 f   LIBCMTD:setmode.obj
 0001:000415b0       __setmode_lk               004425b0 f   LIBCMTD:setmode.obj
 0001:00041680       _getenv                    00442680 f   LIBCMTD:getenv.obj
 0001:000416b0       __getenv_lk                004426b0 f   LIBCMTD:getenv.obj
 0001:00041780       __mbsnbicoll               00442780 f   LIBCMTD:mbsnbico.obj
 0001:000417d0       ___wtomb_environ           004427d0 f   LIBCMTD:wtombenv.obj
 0001:00041880       ___crtCompareStringA       00442880 f   LIBCMTD:a_cmp.obj
 0001:00041cd0       ___crtsetenv               00442cd0 f   LIBCMTD:setenv.obj
 0001:00042120       __mbschr                   00443120 f   LIBCMTD:mbschr.obj
 0001:00042210       _InternetReadFile@16       00443210 f   wininet:WININET.dll
 0001:00042216       _HttpSendRequestA@20       00443216 f   wininet:WININET.dll
 0001:0004221c       _HttpOpenRequestA@32       0044321c f   wininet:WININET.dll
 0001:00042222       _InternetConnectA@32       00443222 f   wininet:WININET.dll
 0001:00042228       _InternetOpenA@20          00443228 f   wininet:WININET.dll
 0001:0004222e       _InternetCloseHandle@4     0044322e f   wininet:WININET.dll
 0001:00042234       _GetLastError@0            00443234 f   kernel32:KERNEL32.dll
 0001:0004223a       _Sleep@4                   0044323a f   kernel32:KERNEL32.dll
 0001:00042240       _CreateThread@24           00443240 f   kernel32:KERNEL32.dll
 0001:00042246       _GetModuleFileNameA@12     00443246 f   kernel32:KERNEL32.dll
 0001:0004224c       _ExitThread@4              0044324c f   kernel32:KERNEL32.dll
 0001:00042252       _LeaveCriticalSection@4    00443252 f   kernel32:KERNEL32.dll
 0001:00042258       _EnterCriticalSection@4    00443258 f   kernel32:KERNEL32.dll
 0001:0004225e       _GetTickCount@0            0044325e f   kernel32:KERNEL32.dll
 0001:00042264       _InitializeCriticalSectionAndSpinCount@8 00443264 f   kernel32:KERNEL32.dll
 0001:0004226a       _DeleteCriticalSection@4   0044326a f   kernel32:KERNEL32.dll
 0001:00042270       _GetLocalTime@4            00443270 f   kernel32:KERNEL32.dll
 0001:00042276       _SetConsoleCtrlHandler@8   00443276 f   kernel32:KERNEL32.dll
 0001:0004227c       _GetStdHandle@4            0044327c f   kernel32:KERNEL32.dll
 0001:00042282       _AllocConsole@0            00443282 f   kernel32:KERNEL32.dll
 0001:00042288       _CloseHandle@4             00443288 f   kernel32:KERNEL32.dll
 0001:0004228e       _WriteFile@20              0044328e f   kernel32:KERNEL32.dll
 0001:00042294       _CreateFileA@28            00443294 f   kernel32:KERNEL32.dll
 0001:0004229a       _QueryPerformanceCounter@4 0044329a f   kernel32:KERNEL32.dll
 0001:000422a0       _QueryPerformanceFrequency@4 004432a0 f   kernel32:KERNEL32.dll
 0001:000422a6       _ExitProcess@4             004432a6 f   kernel32:KERNEL32.dll
 0001:000422ac       _CreateProcessA@40         004432ac f   kernel32:KERNEL32.dll
 0001:000422b2       _FindClose@4               004432b2 f   kernel32:KERNEL32.dll
 0001:000422b8       _FindNextFileA@8           004432b8 f   kernel32:KERNEL32.dll
 0001:000422be       _FindFirstFileA@8          004432be f   kernel32:KERNEL32.dll
 0001:000422c4       _GetTimeFormatA@24         004432c4 f   kernel32:KERNEL32.dll
 0001:000422ca       _GetDateFormatA@24         004432ca f   kernel32:KERNEL32.dll
 0001:000422d0       _GetFileSize@8             004432d0 f   kernel32:KERNEL32.dll
 0001:000422d6       _GetFileAttributesA@4      004432d6 f   kernel32:KERNEL32.dll
 0001:000422dc       _FileTimeToSystemTime@8    004432dc f   kernel32:KERNEL32.dll
 0001:000422e2       _FileTimeToLocalFileTime@8 004432e2 f   kernel32:KERNEL32.dll
 0001:000422e8       _ReadFile@20               004432e8 f   kernel32:KERNEL32.dll
 0001:000422ee       _SetFilePointer@16         004432ee f   kernel32:KERNEL32.dll
 0001:000422f4       _GetSystemDirectoryA@8     004432f4 f   kernel32:KERNEL32.dll
 0001:000422fa       _LoadLibraryA@4            004432fa f   kernel32:KERNEL32.dll
 0001:00042300       _GetProcAddress@8          00443300 f   kernel32:KERNEL32.dll
 0001:00042306       _GetModuleHandleA@4        00443306 f   kernel32:KERNEL32.dll
 0001:0004230c       _FormatMessageA@28         0044330c f   kernel32:KERNEL32.dll
 0001:00042312       _GlobalUnlock@4            00443312 f   kernel32:KERNEL32.dll
 0001:00042318       _GlobalLock@4              00443318 f   kernel32:KERNEL32.dll
 0001:0004231e       _UnmapViewOfFile@4         0044331e f   kernel32:KERNEL32.dll
 0001:00042324       _MapViewOfFile@20          00443324 f   kernel32:KERNEL32.dll
 0001:0004232a       _CreateFileMappingA@24     0044332a f   kernel32:KERNEL32.dll
 0001:00042330       _SetFileTime@16            00443330 f   kernel32:KERNEL32.dll
 0001:00042336       _GetFileTime@16            00443336 f   kernel32:KERNEL32.dll
 0001:0004233c       _ExpandEnvironmentStringsA@12 0044333c f   kernel32:KERNEL32.dll
 0001:00042342       _SetFileAttributesA@8      00443342 f   kernel32:KERNEL32.dll
 0001:00042348       _GetTempPathA@8            00443348 f   kernel32:KERNEL32.dll
 0001:0004234e       _WideCharToMultiByte@32    0044334e f   kernel32:KERNEL32.dll
 0001:00042354       _MultiByteToWideChar@24    00443354 f   kernel32:KERNEL32.dll
 0001:0004235a       _GetComputerNameA@8        0044335a f   kernel32:KERNEL32.dll
 0001:00042360       _GetCurrentProcess@0       00443360 f   kernel32:KERNEL32.dll
 0001:00042366       _TerminateProcess@8        00443366 f   kernel32:KERNEL32.dll
 0001:0004236c       _OpenProcess@12            0044336c f   kernel32:KERNEL32.dll
 0001:00042372       _DeleteFileA@4             00443372 f   kernel32:KERNEL32.dll
 0001:00042378       _GetCurrentProcessId@0     00443378 f   kernel32:KERNEL32.dll
 0001:0004237e       _CopyFileA@12              0044337e f   kernel32:KERNEL32.dll
 0001:00042384       _WaitForSingleObject@8     00443384 f   kernel32:KERNEL32.dll
 0001:0004238a       _CreateMutexA@12           0044338a f   kernel32:KERNEL32.dll
 0001:00042390       _MoveFileA@8               00443390 f   kernel32:KERNEL32.dll
 0001:00042396       _TerminateThread@8         00443396 f   kernel32:KERNEL32.dll
 0001:0004239c       _GetExitCodeProcess@8      0044339c f   kernel32:KERNEL32.dll
 0001:000423a2       _PeekNamedPipe@24          004433a2 f   kernel32:KERNEL32.dll
 0001:000423a8       _DuplicateHandle@28        004433a8 f   kernel32:KERNEL32.dll
 0001:000423ae       _CreatePipe@16             004433ae f   kernel32:KERNEL32.dll
 0001:000423b4       _GetLocaleInfoA@16         004433b4 f   kernel32:KERNEL32.dll
 0001:000423ba       _GetVersionExA@4           004433ba f   kernel32:KERNEL32.dll
 0001:000423c0       _GetLogicalDrives@0        004433c0 f   kernel32:KERNEL32.dll
 0001:000423c6       _WaitForMultipleObjects@16 004433c6 f   kernel32:KERNEL32.dll
 0001:000423cc       _GenerateConsoleCtrlEvent@8 004433cc f   kernel32:KERNEL32.dll
 0001:000423d2       _InitializeCriticalSection@4 004433d2 f   kernel32:KERNEL32.dll
 0001:000423d8       _InterlockedExchange@8     004433d8 f   kernel32:KERNEL32.dll
 0001:000423de       _InterlockedDecrement@4    004433de f   kernel32:KERNEL32.dll
 0001:000423e4       _InterlockedIncrement@4    004433e4 f   kernel32:KERNEL32.dll
 0001:000423ea       _SetStdHandle@8            004433ea f   kernel32:KERNEL32.dll
 0001:000423f0       _GetFileType@4             004433f0 f   kernel32:KERNEL32.dll
 0001:000423f6       _IsBadWritePtr@8           004433f6 f   kernel32:KERNEL32.dll
 0001:000423fc       _IsBadReadPtr@8            004433fc f   kernel32:KERNEL32.dll
 0001:00042402       _HeapValidate@12           00443402 f   kernel32:KERNEL32.dll
 0001:00042408       _RtlUnwind@16              00443408 f   kernel32:KERNEL32.dll
 0001:0004240e       _GetStartupInfoA@4         0044340e f   kernel32:KERNEL32.dll
 0001:00042414       _GetCommandLineA@0         00443414 f   kernel32:KERNEL32.dll
 0001:0004241a       _GetVersion@0              0044341a f   kernel32:KERNEL32.dll
 0001:00042420       _RaiseException@16         00443420 f   kernel32:KERNEL32.dll
 0001:00042426       _FatalAppExitA@8           00443426 f   kernel32:KERNEL32.dll
 0001:0004242c       _DebugBreak@0              0044342c f   kernel32:KERNEL32.dll
 0001:00042432       _OutputDebugStringA@4      00443432 f   kernel32:KERNEL32.dll
 0001:00042438       _GetCurrentThreadId@0      00443438 f   kernel32:KERNEL32.dll
 0001:0004243e       _TlsSetValue@8             0044343e f   kernel32:KERNEL32.dll
 0001:00042444       _TlsAlloc@0                00443444 f   kernel32:KERNEL32.dll
 0001:0004244a       _TlsFree@4                 0044344a f   kernel32:KERNEL32.dll
 0001:00042450       _SetLastError@4            00443450 f   kernel32:KERNEL32.dll
 0001:00042456       _TlsGetValue@4             00443456 f   kernel32:KERNEL32.dll
 0001:0004245c       _GetCurrentThread@0        0044345c f   kernel32:KERNEL32.dll
 0001:00042462       _SetHandleCount@4          00443462 f   kernel32:KERNEL32.dll
 0001:00042468       _HeapAlloc@12              00443468 f   kernel32:KERNEL32.dll
 0001:0004246e       _HeapReAlloc@16            0044346e f   kernel32:KERNEL32.dll
 0001:00042474       _HeapFree@12               00443474 f   kernel32:KERNEL32.dll
 0001:0004247a       _HeapDestroy@4             0044347a f   kernel32:KERNEL32.dll
 0001:00042480       _HeapCreate@12             00443480 f   kernel32:KERNEL32.dll
 0001:00042486       _VirtualFree@12            00443486 f   kernel32:KERNEL32.dll
 0001:0004248c       _VirtualAlloc@16           0044348c f   kernel32:KERNEL32.dll
 0001:00042492       _LCMapStringA@24           00443492 f   kernel32:KERNEL32.dll
 0001:00042498       _LCMapStringW@24           00443498 f   kernel32:KERNEL32.dll
 0001:0004249e       _GetCPInfo@8               0044349e f   kernel32:KERNEL32.dll
 0001:000424a4       _GetACP@0                  004434a4 f   kernel32:KERNEL32.dll
 0001:000424aa       _GetOEMCP@0                004434aa f   kernel32:KERNEL32.dll
 0001:000424b0       _UnhandledExceptionFilter@4 004434b0 f   kernel32:KERNEL32.dll
 0001:000424b6       _FreeEnvironmentStringsA@4 004434b6 f   kernel32:KERNEL32.dll
 0001:000424bc       _FreeEnvironmentStringsW@4 004434bc f   kernel32:KERNEL32.dll
 0001:000424c2       _GetEnvironmentStrings@0   004434c2 f   kernel32:KERNEL32.dll
 0001:000424c8       _GetEnvironmentStringsW@0  004434c8 f   kernel32:KERNEL32.dll
 0001:000424ce       _FlushFileBuffers@4        004434ce f   kernel32:KERNEL32.dll
 0001:000424d4       _SetUnhandledExceptionFilter@4 004434d4 f   kernel32:KERNEL32.dll
 0001:000424da       _IsValidLocale@8           004434da f   kernel32:KERNEL32.dll
 0001:000424e0       _IsValidCodePage@4         004434e0 f   kernel32:KERNEL32.dll
 0001:000424e6       _EnumSystemLocalesA@8      004434e6 f   kernel32:KERNEL32.dll
 0001:000424ec       _GetUserDefaultLCID@0      004434ec f   kernel32:KERNEL32.dll
 0001:000424f2       _GetStringTypeA@20         004434f2 f   kernel32:KERNEL32.dll
 0001:000424f8       _GetStringTypeW@16         004434f8 f   kernel32:KERNEL32.dll
 0001:000424fe       _IsBadCodePtr@4            004434fe f   kernel32:KERNEL32.dll
 0001:00042504       _SetEndOfFile@4            00443504 f   kernel32:KERNEL32.dll
 0001:0004250a       _GetTimeZoneInformation@4  0044350a f   kernel32:KERNEL32.dll
 0001:00042510       _GetLocaleInfoW@16         00443510 f   kernel32:KERNEL32.dll
 0001:00042516       _CompareStringA@24         00443516 f   kernel32:KERNEL32.dll
 0001:0004251c       _CompareStringW@24         0044351c f   kernel32:KERNEL32.dll
 0001:00042522       _SetEnvironmentVariableA@8 00443522 f   kernel32:KERNEL32.dll
 0001:00042530       _strdup                    00443530 f   LIBCMTD:strdup.obj
 0001:00042530       __strdup                   00443530 f   LIBCMTD:strdup.obj
 0002:00000028       __real@8@3fff8000000000000000 00444028     cJSON.obj
 0002:00000030       __real@8@4002a000000000000000 00444030     cJSON.obj
 0002:00000038       __real@8@bfff8000000000000000 00444038     cJSON.obj
 0002:00000040       __real@8@401cee6b280000000000 00444040     cJSON.obj
 0002:00000048       __real@8@3feb8637bd05af6c6800 00444048     cJSON.obj
 0002:00000050       __real@8@40c69f4f2726179a2000 00444050     cJSON.obj
 0002:00000058       __real@8@c01e8000000000000000 00444058     cJSON.obj
 0002:00000060       __real@8@401dfffffffe00000000 00444060     cJSON.obj
 0002:00000068       __real@8@3fcb8000000000000000 00444068     cJSON.obj
 0002:00000470       __real@8@40098000000000000000 00444470     download.obj
 0002:00000478       ?npos@?$basic_string@DU?$char_traits@D@std@@V?$allocator@D@2@@std@@2IB 00444478     facebook.obj
 0002:0000047c       ?_C@?1??_Nullstr@?$basic_string@DU?$char_traits@D@std@@V?$allocator@D@2@@std@@CAPBDXZ@4DB 0044447c     facebook.obj
 0002:00000484       ??_7?$basic_ostream@DU?$char_traits@D@std@@@std@@6B@ 00444484     libcpmtd:iostream.obj
 0002:00000488       ??_8?$basic_ostream@DU?$char_traits@D@std@@@std@@7B@ 00444488     libcpmtd:iostream.obj
 0002:00000494       ??_7?$basic_ios@DU?$char_traits@D@std@@@std@@6B@ 00444494     libcpmtd:iostream.obj
 0002:0000049c       ??_7?$basic_istream@DU?$char_traits@D@std@@@std@@6B@ 0044449c     libcpmtd:iostream.obj
 0002:000004a0       ??_8?$basic_istream@DU?$char_traits@D@std@@@std@@7B@ 004444a0     libcpmtd:iostream.obj
 0002:000004ac       ??_7?$basic_filebuf@DU?$char_traits@D@std@@@std@@6B@ 004444ac     libcpmtd:iostream.obj
 0002:000004e4       ??_7?$basic_streambuf@DU?$char_traits@D@std@@@std@@6B@ 004444e4     libcpmtd:iostream.obj
 0002:0000051c       ??_7ios_base@std@@6B@      0044451c     libcpmtd:iostream.obj
 0002:00000524       ??_7?$basic_ostream@GU?$char_traits@G@std@@@std@@6B@ 00444524     libcpmtd:wiostrea.obj
 0002:00000528       ??_8?$basic_ostream@GU?$char_traits@G@std@@@std@@7B@ 00444528     libcpmtd:wiostrea.obj
 0002:00000534       ??_7?$basic_ios@GU?$char_traits@G@std@@@std@@6B@ 00444534     libcpmtd:wiostrea.obj
 0002:0000053c       ??_7?$basic_istream@GU?$char_traits@G@std@@@std@@6B@ 0044453c     libcpmtd:wiostrea.obj
 0002:00000540       ??_8?$basic_istream@GU?$char_traits@G@std@@@std@@7B@ 00444540     libcpmtd:wiostrea.obj
 0002:0000054c       ??_7?$basic_filebuf@GU?$char_traits@G@std@@@std@@6B@ 0044454c     libcpmtd:wiostrea.obj
 0002:00000584       ??_7?$basic_streambuf@GU?$char_traits@G@std@@@std@@6B@ 00444584     libcpmtd:wiostrea.obj
 0002:000005b8       ??_C@_0BA@HHMB@string?5too?5long?$AA@ 004445b8     libcpmtd:string.obj
 0002:000005cc       ??_7logic_error@std@@6B@   004445cc     libcpmtd:string.obj
 0002:000005dc       ??_7length_error@std@@6B@  004445dc     libcpmtd:string.obj
 0002:000005e8       ??_C@_00A@?$AA@            004445e8     libcpmtd:string.obj
 0002:000005ec       ??_C@_0BI@EEBE@invalid?5string?5position?$AA@ 004445ec     libcpmtd:string.obj
 0002:00000608       ??_7out_of_range@std@@6B@  00444608     libcpmtd:string.obj
 0002:00000618       ?_Fpz@std@@3_JB            00444618     libcpmtd:ios.obj
 0002:00000620       ??_C@_0BA@NGIA@ios?3?3eofbit?5set?$AA@ 00444620     libcpmtd:ios.obj
 0002:00000630       ??_C@_0BB@KPBH@ios?3?3failbit?5set?$AA@ 00444630     libcpmtd:ios.obj
 0002:00000644       ??_C@_0BA@HGGD@ios?3?3badbit?5set?$AA@ 00444644     libcpmtd:ios.obj
 0002:00000658       ??_7runtime_error@std@@6B@ 00444658     libcpmtd:ios.obj
 0002:00000668       ??_7failure@ios_base@std@@6B@ 00444668     libcpmtd:ios.obj
 0002:00000674       ??_C@_0BP@INPK@invalid?5ios?3?3iword?1pword?5index?$AA@ 00444674     libcpmtd:ios.obj
 0002:00000694       ?table_size@?$ctype@D@std@@2IB 00444694     libcpmtd:locale0.obj
 0002:00000698       ??_C@_01FDHG@?$CK?$AA@     00444698     libcpmtd:locale0.obj
 0002:0000069c       ??_C@_01FKHJ@C?$AA@        0044469c     libcpmtd:locale0.obj
 0002:000006a4       ??_7_Locimp@locale@std@@6B@ 004446a4     libcpmtd:locale0.obj
 0002:000006ac       ??_7facet@locale@std@@6B@  004446ac     libcpmtd:locale0.obj
 0002:000006b0       ??_C@_09CDHA@xmbtowc?4c?$AA@ 004446b0     libcpmtd:xmbtowc.obj
 0002:000006bc       ??_C@_0CD@NPPL@MB_CUR_MAX?5?$DN?$DN?51?5?$HM?$HM?5MB_CUR_MAX?5?$DN?$DN@ 004446bc     libcpmtd:xmbtowc.obj
 0002:000006e0       ?nothrow@std@@3Unothrow_t@1@B 004446e0     libcpmtd:nomemory.obj
 0002:000006e4       ??_C@_0P@LJNA@bad?5allocation?$AA@ 004446e4     libcpmtd:nomemory.obj
 0002:000006f8       ??_7bad_alloc@std@@6B@     004446f8     libcpmtd:nomemory.obj
 0002:00000704       ??_C@_0P@LNLA@format?5?$CB?$DN?5NULL?$AA@ 00444704     LIBCMTD:sprintf.obj
 0002:00000714       ??_C@_09NEAG@sprintf?4c?$AA@ 00444714     LIBCMTD:sprintf.obj
 0002:00000720       ??_C@_0P@OOIN@string?5?$CB?$DN?5NULL?$AA@ 00444720     LIBCMTD:sprintf.obj
 0002:00000730       ??_C@_08EJDA@sscanf?4c?$AA@ 00444730     LIBCMTD:sscanf.obj
 0002:0000073c       ??_C@_08CEA@onexit?4c?$AA@ 0044473c     LIBCMTD:onexit.obj
 0002:00000748       ??_C@_0L@HE@vsprintf?4c?$AA@ 00444748     LIBCMTD:vsnprint.obj
 0002:00000754       ??_C@_09GCII@setvbuf?4c?$AA@ 00444754     LIBCMTD:setvbuf.obj
 0002:00000760       ??_C@_0M@KJPK@str?5?$CB?$DN?5NULL?$AA@ 00444760     LIBCMTD:setvbuf.obj
 0002:0000076c       ??_C@_07HPAH@_file?4c?$AA@ 0044476c     LIBCMTD:_file.obj
 0002:00000774       ??_C@_0BJ@FJHO@_osfile?$CIfiledes?$CJ?5?$CG?5FOPEN?$AA@ 00444774     LIBCMTD:fdopen.obj
 0002:00000790       ??_C@_0CH@GEBB@?$CIunsigned?$CJfiledes?5?$DM?5?$CIunsigned?$CJ_n@ 00444790     LIBCMTD:fdopen.obj
 0002:000007b8       ??_C@_08PNN@fdopen?4c?$AA@ 004447b8     LIBCMTD:fdopen.obj
 0002:000007c4       ??_C@_0N@BKPP@mode?5?$CB?$DN?5NULL?$AA@ 004447c4     LIBCMTD:fdopen.obj
 0002:000007d4       ??_C@_09LNLM@osfinfo?4c?$AA@ 004447d4     LIBCMTD:osfinfo.obj
 0002:000007e0       ??_C@_06DPMO@Client?$AA@   004447e0     LIBCMTD:dbgheap.obj
 0002:000007e8       ??_C@_06BAFM@Ignore?$AA@   004447e8     LIBCMTD:dbgheap.obj
 0002:000007f0       ??_C@_03DICE@CRT?$AA@      004447f0     LIBCMTD:dbgheap.obj
 0002:000007f4       ??_C@_06BILL@Normal?$AA@   004447f4     LIBCMTD:dbgheap.obj
 0002:000007fc       ??_C@_04NEN@Free?$AA@      004447fc     LIBCMTD:dbgheap.obj
 0002:00000804       ??_C@_0DC@CGID@Error?3?5memory?5allocation?3?5bad?5me@ 00444804     LIBCMTD:dbgheap.obj
 0002:00000838       ??_C@_0CE@FMIA@Invalid?5allocation?5size?3?5?$CFu?5byte@ 00444838     LIBCMTD:dbgheap.obj
 0002:0000085c       ??_C@_02DILL@?$CFs?$AA@    0044485c     LIBCMTD:dbgheap.obj
 0002:00000860       ??_C@_0CB@CPBI@Client?5hook?5allocation?5failure?4?6@ 00444860     LIBCMTD:dbgheap.obj
 0002:00000884       ??_C@_0DF@DKHF@Client?5hook?5allocation?5failure?5a@ 00444884     LIBCMTD:dbgheap.obj
 0002:000008bc       ??_C@_09IMJC@dbgheap?4c?$AA@ 004448bc     LIBCMTD:dbgheap.obj
 0002:000008c8       ??_C@_0BC@EPKL@_CrtCheckMemory?$CI?$CJ?$AA@ 004448c8     LIBCMTD:dbgheap.obj
 0002:000008dc       ??_C@_0BK@JDHA@_pFirstBlock?5?$DN?$DN?5pOldBlock?$AA@ 004448dc     LIBCMTD:dbgheap.obj
 0002:000008f8       ??_C@_0BJ@NMEF@_pLastBlock?5?$DN?$DN?5pOldBlock?$AA@ 004448f8     LIBCMTD:dbgheap.obj
 0002:00000914       ??_C@_0DC@BOCN@fRealloc?5?$HM?$HM?5?$CI?$CBfRealloc?5?$CG?$CG?5pNewBl@ 00444914     LIBCMTD:dbgheap.obj
 0002:00000948       ??_C@_0DK@DKOM@_BLOCK_TYPE?$CIpOldBlock?9?$DOnBlockUse@ 00444948     LIBCMTD:dbgheap.obj
 0002:00000984       ??_C@_0EF@EDKM@pOldBlock?9?$DOnLine?5?$DN?$DN?5IGNORE_LINE?5@ 00444984     LIBCMTD:dbgheap.obj
 0002:000009cc       ??_C@_0CC@GPMO@_CrtIsValidHeapPointer?$CIpUserData@ 004449cc     LIBCMTD:dbgheap.obj
 0002:000009f0       ??_C@_0CN@FHGE@Allocation?5too?5large?5or?5negative@ 004449f0     LIBCMTD:dbgheap.obj
 0002:00000a20       ??_C@_0CE@EAMN@Client?5hook?5re?9allocation?5failur@ 00444a20     LIBCMTD:dbgheap.obj
 0002:00000a44       ??_C@_0DI@KKMM@Client?5hook?5re?9allocation?5failur@ 00444a44     LIBCMTD:dbgheap.obj
 0002:00000a7c       ??_C@_0BG@JCEC@_pFirstBlock?5?$DN?$DN?5pHead?$AA@ 00444a7c     LIBCMTD:dbgheap.obj
 0002:00000a94       ??_C@_0BF@NLNN@_pLastBlock?5?$DN?$DN?5pHead?$AA@ 00444a94     LIBCMTD:dbgheap.obj
 0002:00000aac       ??_C@_0BO@PLHH@pHead?9?$DOnBlockUse?5?$DN?$DN?5nBlockUse?$AA@ 00444aac     LIBCMTD:dbgheap.obj
 0002:00000acc       ??_C@_0DN@KKIO@pHead?9?$DOnLine?5?$DN?$DN?5IGNORE_LINE?5?$CG?$CG?5p@ 00444acc     LIBCMTD:dbgheap.obj
 0002:00000b0c       ??_C@_0CK@OJNB@DAMAGE?3?5after?5?$CFhs?5block?5?$CI?$CD?$CFd?$CJ?5at@ 00444b0c     LIBCMTD:dbgheap.obj
 0002:00000b38       ??_C@_0CL@IJIL@DAMAGE?3?5before?5?$CFhs?5block?5?$CI?$CD?$CFd?$CJ?5a@ 00444b38     LIBCMTD:dbgheap.obj
 0002:00000b64       ??_C@_0CH@PHOC@_BLOCK_TYPE_IS_VALID?$CIpHead?9?$DOnBlo@ 00444b64     LIBCMTD:dbgheap.obj
 0002:00000b8c       ??_C@_0BL@MBNA@Client?5hook?5free?5failure?4?6?$AA@ 00444b8c     LIBCMTD:dbgheap.obj
 0002:00000ba8       ??_C@_0DK@EKKL@memory?5check?5error?5at?50x?$CF08X?5?$DN?50@ 00444ba8     LIBCMTD:dbgheap.obj
 0002:00000be4       ??_C@_0CJ@GCII@?$CFhs?5located?5at?50x?$CF08X?5is?5?$CFu?5byte@ 00444be4     LIBCMTD:dbgheap.obj
 0002:00000c10       ??_C@_0CA@EJPI@?$CFhs?5allocated?5at?5file?5?$CFhs?$CI?$CFd?$CJ?4?6?$AA@ 00444c10     LIBCMTD:dbgheap.obj
 0002:00000c30       ??_C@_0CJ@LHHG@DAMAGE?3?5on?5top?5of?5Free?5block?5at?5@ 00444c30     LIBCMTD:dbgheap.obj
 0002:00000c5c       ??_C@_07GJHM@DAMAGED?$AA@  00444c5c     LIBCMTD:dbgheap.obj
 0002:00000c64       ??_C@_0CL@ODIE@_heapchk?5fails?5with?5unknown?5retu@ 00444c64     LIBCMTD:dbgheap.obj
 0002:00000c90       ??_C@_0CC@EHNC@_heapchk?5fails?5with?5_HEAPBADPTR?4@ 00444c90     LIBCMTD:dbgheap.obj
 0002:00000cb4       ??_C@_0CC@JNDP@_heapchk?5fails?5with?5_HEAPBADEND?4@ 00444cb4     LIBCMTD:dbgheap.obj
 0002:00000cd8       ??_C@_0CD@DNMG@_heapchk?5fails?5with?5_HEAPBADNODE@ 00444cd8     LIBCMTD:dbgheap.obj
 0002:00000cfc       ??_C@_0CE@JMCB@_heapchk?5fails?5with?5_HEAPBADBEGI@ 00444cfc     LIBCMTD:dbgheap.obj
 0002:00000d20       ??_C@_0CD@MEMI@Bad?5memory?5block?5found?5at?50x?$CF08X@ 00444d20     LIBCMTD:dbgheap.obj
 0002:00000d44       ??_C@_0CI@GMAO@_CrtMemCheckPoint?3?5NULL?5state?5po@ 00444d44     LIBCMTD:dbgheap.obj
 0002:00000d6c       ??_C@_0CI@MNAE@_CrtMemDifference?3?5NULL?5state?5po@ 00444d6c     LIBCMTD:dbgheap.obj
 0002:00000d94       ??_C@_0BH@PKIJ@Object?5dump?5complete?4?6?$AA@ 00444d94     LIBCMTD:dbgheap.obj
 0002:00000dac       ??_C@_0DB@DBPF@crt?5block?5at?50x?$CF08X?0?5subtype?5?$CFx?0@ 00444dac     LIBCMTD:dbgheap.obj
 0002:00000de0       ??_C@_0CI@JLM@normal?5block?5at?50x?$CF08X?0?5?$CFu?5bytes@ 00444de0     LIBCMTD:dbgheap.obj
 0002:00000e08       ??_C@_0DE@PFEA@client?5block?5at?50x?$CF08X?0?5subtype?5@ 00444e08     LIBCMTD:dbgheap.obj
 0002:00000e3c       ??_C@_06MBCE@?$HL?$CFld?$HN?5?$AA@ 00444e3c     LIBCMTD:dbgheap.obj
 0002:00000e44       ??_C@_0L@BLDJ@?$CFhs?$CI?$CFd?$CJ?5?3?5?$AA@ 00444e44     LIBCMTD:dbgheap.obj
 0002:00000e50       ??_C@_0BE@FEMA@?$CDFile?5Error?$CD?$CI?$CFd?$CJ?5?3?5?$AA@ 00444e50     LIBCMTD:dbgheap.obj
 0002:00000e64       ??_C@_0BE@FPPM@Dumping?5objects?5?9?$DO?6?$AA@ 00444e64     LIBCMTD:dbgheap.obj
 0002:00000e78       ??_C@_0BA@POLM@?5Data?3?5?$DM?$CFs?$DO?5?$CFs?6?$AA@ 00444e78     LIBCMTD:dbgheap.obj
 0002:00000e88       ??_C@_05JLAO@?$CF?42X?5?$AA@ 00444e88     LIBCMTD:dbgheap.obj
 0002:00000e90       ??_C@_0BI@KONA@Detected?5memory?5leaks?$CB?6?$AA@ 00444e90     LIBCMTD:dbgheap.obj
 0002:00000ea8       ??_C@_0BP@LCCN@Total?5allocations?3?5?$CFld?5bytes?4?6?$AA@ 00444ea8     LIBCMTD:dbgheap.obj
 0002:00000ec8       ??_C@_0CB@COID@Largest?5number?5used?3?5?$CFld?5bytes?4?6@ 00444ec8     LIBCMTD:dbgheap.obj
 0002:00000eec       ??_C@_0BO@MEJD@?$CFld?5bytes?5in?5?$CFld?5?$CFhs?5Blocks?4?6?$AA@ 00444eec     LIBCMTD:dbgheap.obj
 0002:00000f0c       ??_C@_08PHBD@fclose?4c?$AA@ 00444f0c     LIBCMTD:fclose.obj
 0002:00000f18       ??_C@_0P@FHEA@stream?5?$CB?$DN?5NULL?$AA@ 00444f18     LIBCMTD:fclose.obj
 0002:00000f28       ??_C@_0BC@IPFL@?$CKmode?5?$CB?$DN?5_T?$CI?8?20?8?$CJ?$AA@ 00444f28     LIBCMTD:fopen.obj
 0002:00000f3c       ??_C@_0BC@GOED@?$CKfile?5?$CB?$DN?5_T?$CI?8?20?8?$CJ?$AA@ 00444f3c     LIBCMTD:fopen.obj
 0002:00000f50       ??_C@_07OMGG@fopen?4c?$AA@ 00444f50     LIBCMTD:fopen.obj
 0002:00000f58       ??_C@_0N@MCKG@file?5?$CB?$DN?5NULL?$AA@ 00444f58     LIBCMTD:fopen.obj
 0002:00000f68       ??_C@_08GNFC@printf?4c?$AA@ 00444f68     LIBCMTD:printf.obj
 0002:00000f74       ??_C@_09DLOM@fprintf?4c?$AA@ 00444f74     LIBCMTD:fprintf.obj
 0002:00000f80       ??_C@_0L@IBOD@mbstowcs?4c?$AA@ 00444f80     LIBCMTD:mbstowcs.obj
 0002:00000f8c       ??_C@_09MFCA@s?5?$CB?$DN?5NULL?$AA@ 00444f8c     LIBCMTD:mbstowcs.obj
 0002:00000f98       ??_C@_07LIGC@fgets?4c?$AA@ 00444f98     LIBCMTD:fgets.obj
 0002:00000fa0       ??_C@_07HFEM@fseek?4c?$AA@ 00444fa0     LIBCMTD:fseek.obj
 0002:00000fb8       ??_7type_info@@6B@         00444fb8     LIBCMTD:typinfo.obj
 0002:00000fbc       ??_C@_07CJDP@fputc?4c?$AA@ 00444fbc     LIBCMTD:fputc.obj
 0002:00000fc4       ??_C@_08JKP@ungetc?4c?$AA@ 00444fc4     LIBCMTD:ungetc.obj
 0002:00000fd0       ??_C@_07JJAI@fgetc?4c?$AA@ 00444fd0     LIBCMTD:fgetc.obj
 0002:00000fd8       ??_C@_08JFHL@fputwc?4c?$AA@ 00444fd8     LIBCMTD:fputwc.obj
 0002:00000fe4       ??_C@_09JKFL@ungetwc?4c?$AA@ 00444fe4     LIBCMTD:ungetwc.obj
 0002:00000ff0       ??_C@_08OPML@fgetwc?4c?$AA@ 00444ff0     LIBCMTD:fgetwc.obj
 0002:00001000       ??_7exception@@6B@         00445000     LIBCMTD:stdexcpt.obj
 0002:00001008       ??_C@_0BC@OIDF@Unknown?5exception?$AA@ 00445008     LIBCMTD:stdexcpt.obj
 0002:00001040       ??_C@_07PDLA@mlock?4c?$AA@ 00445040     LIBCMTD:mlock.obj
 0002:00001048       ??_C@_07PCLE@LC_TIME?$AA@  00445048     LIBCMTD:setlocal.obj
 0002:00001050       ??_C@_0L@NKG@LC_NUMERIC?$AA@ 00445050     LIBCMTD:setlocal.obj
 0002:0000105c       ??_C@_0M@CBIH@LC_MONETARY?$AA@ 0044505c     LIBCMTD:setlocal.obj
 0002:00001068       ??_C@_08LFGE@LC_CTYPE?$AA@ 00445068     LIBCMTD:setlocal.obj
 0002:00001074       ??_C@_0L@CFLC@LC_COLLATE?$AA@ 00445074     LIBCMTD:setlocal.obj
 0002:00001080       ??_C@_06GCPK@LC_ALL?$AA@   00445080     LIBCMTD:setlocal.obj
 0002:00001088       ??_C@_01FAJB@?$DL?$AA@     00445088     LIBCMTD:setlocal.obj
 0002:0000108c       ??_C@_02BGDO@?$DN?$DL?$AA@ 0044508c     LIBCMTD:setlocal.obj
 0002:00001090       ??_C@_0L@MOEE@setlocal?4c?$AA@ 00445090     LIBCMTD:setlocal.obj
 0002:0000109c       ??_C@_01KPOD@?$DN?$AA@     0044509c     LIBCMTD:setlocal.obj
 0002:000010a0       ??_C@_03DBOJ@_?4?0?$AA@    004450a0     LIBCMTD:setlocal.obj
 0002:000010a4       ??_C@_01PJCK@?4?$AA@       004450a4     LIBCMTD:setlocal.obj
 0002:000010a8       ??_C@_01NON@_?$AA@         004450a8     LIBCMTD:setlocal.obj
 0002:000010ac       ??_C@_0BB@BLL@Assertion?5Failed?$AA@ 004450ac     LIBCMTD:dbgrpt.obj
 0002:000010c0       ??_C@_05CKBG@Error?$AA@    004450c0     LIBCMTD:dbgrpt.obj
 0002:000010c8       ??_C@_07JCGI@Warning?$AA@  004450c8     LIBCMTD:dbgrpt.obj
 0002:000010d0       ??_C@_0M@ODEP@?$CFs?$CI?$CFd?$CJ?5?3?5?$CFs?$AA@ 004450d0     LIBCMTD:dbgrpt.obj
 0002:000010dc       ??_C@_01BJG@?6?$AA@        004450dc     LIBCMTD:dbgrpt.obj
 0002:000010e0       ??_C@_01FEHD@?$AN?$AA@     004450e0     LIBCMTD:dbgrpt.obj
 0002:000010e4       ??_C@_0BC@OIMC@Assertion?5failed?$CB?$AA@ 004450e4     LIBCMTD:dbgrpt.obj
 0002:000010f8       ??_C@_0BD@BEAK@Assertion?5failed?3?5?$AA@ 004450f8     LIBCMTD:dbgrpt.obj
 0002:0000110c       ??_C@_0CL@LCCP@_CrtDbgReport?3?5String?5too?5long?5o@ 0044510c     LIBCMTD:dbgrpt.obj
 0002:00001138       ??_C@_0DC@EMDK@Second?5Chance?5Assertion?5Failed?3?5@ 00445138     LIBCMTD:dbgrpt.obj
 0002:0000116c       ??_C@_09NJAK@wsprintfA?$AA@ 0044516c     LIBCMTD:dbgrpt.obj
 0002:00001178       ??_C@_0L@HKL@user32?4dll?$AA@ 00445178     LIBCMTD:dbgrpt.obj
 0002:00001184       ??_C@_0CD@GCMD@Microsoft?5Visual?5C?$CL?$CL?5Debug?5Libra@ 00445184     LIBCMTD:dbgrpt.obj
 0002:000011a8       ??_C@_0FD@EBDD@Debug?5?$CFs?$CB?6?6Program?3?5?$CFs?$CFs?$CFs?$CFs?$CFs?$CFs@ 004451a8     LIBCMTD:dbgrpt.obj
 0002:000011fc       ??_C@_09DCKN@?6Module?3?5?$AA@ 004451fc     LIBCMTD:dbgrpt.obj
 0002:00001208       ??_C@_07HJII@?6File?3?5?$AA@ 00445208     LIBCMTD:dbgrpt.obj
 0002:00001210       ??_C@_07LFGN@?6Line?3?5?$AA@ 00445210     LIBCMTD:dbgrpt.obj
 0002:00001218       ??_C@_02JJJH@?6?6?$AA@     00445218     LIBCMTD:dbgrpt.obj
 0002:0000121c       ??_C@_0N@NOAB@Expression?3?5?$AA@ 0044521c     LIBCMTD:dbgrpt.obj
 0002:0000122c       ??_C@_0HD@BHFH@?6?6For?5information?5on?5how?5your?5pr@ 0044522c     LIBCMTD:dbgrpt.obj
 0002:000012a0       ??_C@_03NAME@?4?4?4?$AA@   004452a0     LIBCMTD:dbgrpt.obj
 0002:000012a4       ??_C@_0BH@NNCD@?$DMprogram?5name?5unknown?$DO?$AA@ 004452a4     LIBCMTD:dbgrpt.obj
 0002:000012bc       ??_C@_08GFHP@dbgrpt?4c?$AA@ 004452bc     LIBCMTD:dbgrpt.obj
 0002:000012c8       ??_C@_0BG@FBEA@szUserMessage?5?$CB?$DN?5NULL?$AA@ 004452c8     LIBCMTD:dbgrpt.obj
 0002:000012e0       ??_C@_0DP@IHIN@?$CI?$CCinconsistent?5IOB?5fields?$CC?0?5stre@ 004452e0     LIBCMTD:_flsbuf.obj
 0002:00001320       ??_C@_09LGEI@_flsbuf?4c?$AA@ 00445320     LIBCMTD:_flsbuf.obj
 0002:0000132c       ___lookuptable             0044532c     LIBCMTD:output.obj
 0002:00001388       ??_C@_1O@POHA@?$AA?$CI?$AAn?$AAu?$AAl?$AAl?$AA?$CJ?$AA?$AA@ 00445388     LIBCMTD:output.obj
 0002:00001398       ??_C@_06ONKE@?$CInull?$CJ?$AA@ 00445398     LIBCMTD:output.obj
 0002:000013a0       ??_C@_08MIHI@output?4c?$AA@ 004453a0     LIBCMTD:output.obj
 0002:000013ac       ??_C@_0P@PIHB@ch?5?$CB?$DN?5_T?$CI?8?20?8?$CJ?$AA@ 004453ac     LIBCMTD:output.obj
 0002:000013bc       ??_C@_0L@ENLJ@tidtable?4c?$AA@ 004453bc     LIBCMTD:tidtable.obj
 0002:000013c8       ??_C@_07IEFA@input?4c?$AA@ 004453c8     LIBCMTD:input.obj
 0002:000013d0       ??_C@_0L@JIE@_freebuf?4c?$AA@ 004453d0     LIBCMTD:_freebuf.obj
 0002:000013dc       ??_C@_08KFDJ@ioinit?4c?$AA@ 004453dc     LIBCMTD:ioinit.obj
 0002:000013e8       ??_C@_08HJEP@stream?4c?$AA@ 004453e8     LIBCMTD:stream.obj
 0002:00001408       __DEFAULT_CW_in_mem        00445408     LIBCMTD:common.obj
 0002:0000140a       __pi_by_2_to_61            0044540a     LIBCMTD:common.obj
 0002:00001448       __real@8@00000000000000000000 00445448     LIBCMTD:powhlp.obj
 0002:00001450       __real@8@40008000000000000000 00445450     LIBCMTD:powhlp.obj
 0002:00001458       ??_C@_0BK@JEGK@IsProcessorFeaturePresent?$AA@ 00445458     LIBCMTD:testfdiv.obj
 0002:00001474       ??_C@_08OBID@KERNEL32?$AA@ 00445474     LIBCMTD:testfdiv.obj
 0002:00001480       ??_C@_05OFLO@e?$CL000?$AA@ 00445480     LIBCMTD:cvt.obj
 0002:00001488       ??_C@_03GAFO@_yn?$AA@      00445488     LIBCMTD:fpexcept.obj
 0002:0000148c       ??_C@_03GNLD@_y1?$AA@      0044548c     LIBCMTD:fpexcept.obj
 0002:00001490       ??_C@_03MHCE@_y0?$AA@      00445490     LIBCMTD:fpexcept.obj
 0002:00001494       ??_C@_05PAK@frexp?$AA@     00445494     LIBCMTD:fpexcept.obj
 0002:0000149c       ??_C@_04JKCH@fmod?$AA@     0044549c     LIBCMTD:fpexcept.obj
 0002:000014a4       ??_C@_06GGHF@_hypot?$AA@   004454a4     LIBCMTD:fpexcept.obj
 0002:000014ac       ??_C@_05JNMC@_cabs?$AA@    004454ac     LIBCMTD:fpexcept.obj
 0002:000014b4       ??_C@_05MEKH@ldexp?$AA@    004454b4     LIBCMTD:fpexcept.obj
 0002:000014bc       ??_C@_04KAOJ@modf?$AA@     004454bc     LIBCMTD:fpexcept.obj
 0002:000014c4       ??_C@_04EHAJ@fabs?$AA@     004454c4     LIBCMTD:fpexcept.obj
 0002:000014cc       ??_C@_05MFBN@floor?$AA@    004454cc     LIBCMTD:fpexcept.obj
 0002:000014d4       ??_C@_04JJMP@ceil?$AA@     004454d4     LIBCMTD:fpexcept.obj
 0002:000014dc       ??_C@_03JLPI@tan?$AA@      004454dc     LIBCMTD:fpexcept.obj
 0002:000014e0       ??_C@_03DLFL@cos?$AA@      004454e0     LIBCMTD:fpexcept.obj
 0002:000014e4       ??_C@_03JAMN@sin?$AA@      004454e4     LIBCMTD:fpexcept.obj
 0002:000014e8       ??_C@_04LMBE@sqrt?$AA@     004454e8     LIBCMTD:fpexcept.obj
 0002:000014f0       ??_C@_05BFPO@atan2?$AA@    004454f0     LIBCMTD:fpexcept.obj
 0002:000014f8       ??_C@_04EAGN@atan?$AA@     004454f8     LIBCMTD:fpexcept.obj
 0002:00001500       ??_C@_04OAMO@acos?$AA@     00445500     LIBCMTD:fpexcept.obj
 0002:00001508       ??_C@_04ELFI@asin?$AA@     00445508     LIBCMTD:fpexcept.obj
 0002:00001510       ??_C@_04LFAD@tanh?$AA@     00445510     LIBCMTD:fpexcept.obj
 0002:00001518       ??_C@_04PFKD@cosh?$AA@     00445518     LIBCMTD:fpexcept.obj
 0002:00001520       ??_C@_04NPAI@sinh?$AA@     00445520     LIBCMTD:fpexcept.obj
 0002:00001528       ??_C@_05IJHH@log10?$AA@    00445528     LIBCMTD:fpexcept.obj
 0002:00001530       ??_C@_03BGKD@log?$AA@      00445530     LIBCMTD:fpexcept.obj
 0002:00001534       ??_C@_03EGFG@pow?$AA@      00445534     LIBCMTD:fpexcept.obj
 0002:00001538       ??_C@_03CDGJ@exp?$AA@      00445538     LIBCMTD:fpexcept.obj
 0002:0000153c       ??_C@_01A@?$AA?$AA@        0044553c     LIBCMTD:a_map.obj
 0002:00001540       ??_C@_13A@?$AA?$AA?$AA?$AA@ 00445540     LIBCMTD:a_map.obj
 0002:00001560       ??_C@_09DNOI@_filbuf?4c?$AA@ 00445560     LIBCMTD:_filbuf.obj
 0002:0000156c       ??_C@_07INLA@_open?4c?$AA@ 0044556c     LIBCMTD:_open.obj
 0002:00001574       ??_C@_0BB@COCE@filename?5?$CB?$DN?5NULL?$AA@ 00445574     LIBCMTD:_open.obj
 0002:00001600       ??_C@_09JNND@_sftbuf?4c?$AA@ 00445600     LIBCMTD:_sftbuf.obj
 0002:0000160c       ??_C@_0BH@EOPG@flag?5?$DN?$DN?50?5?$HM?$HM?5flag?5?$DN?$DN?51?$AA@ 0044560c     LIBCMTD:_sftbuf.obj
 0002:00001624       ??_C@_07CMIP@ftell?4c?$AA@ 00445624     LIBCMTD:ftell.obj
 0002:0000162c       ??_C@_09IGKD@stdenvp?4c?$AA@ 0044562c     LIBCMTD:stdenvp.obj
 0002:00001638       ??_C@_09MPMN@stdargv?4c?$AA@ 00445638     LIBCMTD:stdargv.obj
 0002:00001644       ??_C@_07BNNE@a_env?4c?$AA@ 00445644     LIBCMTD:a_env.obj
 0002:0000164c       ??_C@_0P@GGKG@runtime?5error?5?$AA@ 0044564c     LIBCMTD:crt0msg.obj
 0002:0000165c       ??_C@_02PIMC@?$AN?6?$AA@   0044565c     LIBCMTD:crt0msg.obj
 0002:00001660       ??_C@_0O@DELO@TLOSS?5error?$AN?6?$AA@ 00445660     LIBCMTD:crt0msg.obj
 0002:00001670       ??_C@_0N@OMLL@SING?5error?$AN?6?$AA@ 00445670     LIBCMTD:crt0msg.obj
 0002:00001680       ??_C@_0P@OJAK@DOMAIN?5error?$AN?6?$AA@ 00445680     LIBCMTD:crt0msg.obj
 0002:00001690       ??_C@_0CF@EANP@R6028?$AN?6?9?5unable?5to?5initialize?5he@ 00445690     LIBCMTD:crt0msg.obj
 0002:000016b8       ??_C@_0DF@ECGN@R6027?$AN?6?9?5not?5enough?5space?5for?5lo@ 004456b8     LIBCMTD:crt0msg.obj
 0002:000016f0       ??_C@_0DF@FKAC@R6026?$AN?6?9?5not?5enough?5space?5for?5st@ 004456f0     LIBCMTD:crt0msg.obj
 0002:00001728       ??_C@_0CG@DPMN@R6025?$AN?6?9?5pure?5virtual?5function?5c@ 00445728     LIBCMTD:crt0msg.obj
 0002:00001750       ??_C@_0DF@CKIP@R6024?$AN?6?9?5not?5enough?5space?5for?5_o@ 00445750     LIBCMTD:crt0msg.obj
 0002:00001788       ??_C@_0CJ@GGOE@R6019?$AN?6?9?5unable?5to?5open?5console?5@ 00445788     LIBCMTD:crt0msg.obj
 0002:000017b4       ??_C@_0CB@LBOB@R6018?$AN?6?9?5unexpected?5heap?5error?$AN?6@ 004457b4     LIBCMTD:crt0msg.obj
 0002:000017d8       ??_C@_0CN@FPEG@R6017?$AN?6?9?5unexpected?5multithread?5@ 004457d8     LIBCMTD:crt0msg.obj
 0002:00001808       ??_C@_0CM@OBIC@R6016?$AN?6?9?5not?5enough?5space?5for?5th@ 00445808     LIBCMTD:crt0msg.obj
 0002:00001834       ??_C@_0CB@HPAL@?$AN?6abnormal?5program?5termination?$AN?6@ 00445834     LIBCMTD:crt0msg.obj
 0002:00001858       ??_C@_0CM@JOOB@R6009?$AN?6?9?5not?5enough?5space?5for?5en@ 00445858     LIBCMTD:crt0msg.obj
 0002:00001884       ??_C@_0CK@OIBL@R6008?$AN?6?9?5not?5enough?5space?5for?5ar@ 00445884     LIBCMTD:crt0msg.obj
 0002:000018b0       ??_C@_0CF@LKPB@R6002?$AN?6?9?5floating?5point?5not?5load@ 004458b0     LIBCMTD:crt0msg.obj
 0002:000018d8       ??_C@_0CF@JPDF@Microsoft?5Visual?5C?$CL?$CL?5Runtime?5Lib@ 004458d8     LIBCMTD:crt0msg.obj
 0002:00001900       ??_C@_0BK@DEOK@Runtime?5Error?$CB?6?6Program?3?5?$AA@ 00445900     LIBCMTD:crt0msg.obj
 0002:0000191c       ??_C@_09EMDO@_getbuf?4c?$AA@ 0044591c     LIBCMTD:_getbuf.obj
 0002:00001928       ??_C@_0L@JOEJ@ftelli64?4c?$AA@ 00445928     LIBCMTD:ftelli64.obj
 0002:00001934       ??_C@_0L@GDOJ@fseeki64?4c?$AA@ 00445934     LIBCMTD:fseeki64.obj
 0002:00001940       ??_C@_08MOLN@mbtowc?4c?$AA@ 00445940     LIBCMTD:mbtowc.obj
 0002:0000194c       ??_C@_0L@EEGJ@inittime?4c?$AA@ 0044594c     LIBCMTD:inittime.obj
 0002:00001958       ??_C@_09IMJJ@initnum?4c?$AA@ 00445958     LIBCMTD:initnum.obj
 0002:00001964       ??_C@_09KPNI@initmon?4c?$AA@ 00445964     LIBCMTD:initmon.obj
 0002:00001970       ??_C@_0L@COIL@initctyp?4c?$AA@ 00445970     LIBCMTD:initctyp.obj
 0002:0000197c       ??_C@_08OBJD@Paraguay?$AA@ 0044597c     LIBCMTD:getqloc.obj
 0002:00001988       ??_C@_07GLKH@Uruguay?$AA@  00445988     LIBCMTD:getqloc.obj
 0002:00001990       ??_C@_05FPFC@Chile?$AA@    00445990     LIBCMTD:getqloc.obj
 0002:00001998       ??_C@_07IIGF@Ecuador?$AA@  00445998     LIBCMTD:getqloc.obj
 0002:000019a0       ??_C@_09PKAL@Argentina?$AA@ 004459a0     LIBCMTD:getqloc.obj
 0002:000019ac       ??_C@_04LKAH@Peru?$AA@     004459ac     LIBCMTD:getqloc.obj
 0002:000019b4       ??_C@_08NEEM@Colombia?$AA@ 004459b4     LIBCMTD:getqloc.obj
 0002:000019c0       ??_C@_09ODEB@Venezuela?$AA@ 004459c0     LIBCMTD:getqloc.obj
 0002:000019cc       ??_C@_0BD@CLEL@Dominican?5Republic?$AA@ 004459cc     LIBCMTD:getqloc.obj
 0002:000019e0       ??_C@_0N@MDGL@South?5Africa?$AA@ 004459e0     LIBCMTD:getqloc.obj
 0002:000019f0       ??_C@_06NKBG@Panama?$AA@   004459f0     LIBCMTD:getqloc.obj
 0002:000019f8       ??_C@_0L@BMHO@Luxembourg?$AA@ 004459f8     LIBCMTD:getqloc.obj
 0002:00001a04       ??_C@_0L@IMDK@Costa?5Rica?$AA@ 00445a04     LIBCMTD:getqloc.obj
 0002:00001a10       ??_C@_0M@BLJF@Switzerland?$AA@ 00445a10     LIBCMTD:getqloc.obj
 0002:00001a1c       ??_C@_09KBOL@Guatemala?$AA@ 00445a1c     LIBCMTD:getqloc.obj
 0002:00001a28       ??_C@_06JNAK@Canada?$AA@   00445a28     LIBCMTD:getqloc.obj
 0002:00001a30       ??_C@_0BG@OLLP@Spanish?5?9?5Modern?5Sort?$AA@ 00445a30     LIBCMTD:getqloc.obj
 0002:00001a48       ??_C@_09IDKE@Australia?$AA@ 00445a48     LIBCMTD:getqloc.obj
 0002:00001a54       ??_C@_07JJJJ@English?$AA@  00445a54     LIBCMTD:getqloc.obj
 0002:00001a5c       ??_C@_07NMDO@Austria?$AA@  00445a5c     LIBCMTD:getqloc.obj
 0002:00001a64       ??_C@_06DEFE@German?$AA@   00445a64     LIBCMTD:getqloc.obj
 0002:00001a6c       ??_C@_07JAIH@Belgium?$AA@  00445a6c     LIBCMTD:getqloc.obj
 0002:00001a74       ??_C@_06BNLJ@Mexico?$AA@   00445a74     LIBCMTD:getqloc.obj
 0002:00001a7c       ??_C@_07JHAG@Spanish?$AA@  00445a7c     LIBCMTD:getqloc.obj
 0002:00001a84       ??_C@_06DADE@Basque?$AA@   00445a84     LIBCMTD:getqloc.obj
 0002:00001a8c       ??_C@_06ENFP@Sweden?$AA@   00445a8c     LIBCMTD:getqloc.obj
 0002:00001a94       ??_C@_07JPMH@Swedish?$AA@  00445a94     LIBCMTD:getqloc.obj
 0002:00001a9c       ??_C@_07IEKF@Iceland?$AA@  00445a9c     LIBCMTD:getqloc.obj
 0002:00001aa4       ??_C@_09KNEA@Icelandic?$AA@ 00445aa4     LIBCMTD:getqloc.obj
 0002:00001ab0       ??_C@_06IJOD@France?$AA@   00445ab0     LIBCMTD:getqloc.obj
 0002:00001ab8       ??_C@_06EINI@French?$AA@   00445ab8     LIBCMTD:getqloc.obj
 0002:00001ac0       ??_C@_07FOOE@Finland?$AA@  00445ac0     LIBCMTD:getqloc.obj
 0002:00001ac8       ??_C@_07OJOM@Finnish?$AA@  00445ac8     LIBCMTD:getqloc.obj
 0002:00001ad0       ??_C@_05FFAC@Spain?$AA@    00445ad0     LIBCMTD:getqloc.obj
 0002:00001ad8       ??_C@_0BL@BIHM@Spanish?5?9?5Traditional?5Sort?$AA@ 00445ad8     LIBCMTD:getqloc.obj
 0002:00001af4       ??_C@_0O@GLHB@united?9states?$AA@ 00445af4     LIBCMTD:getqloc.obj
 0002:00001b04       ??_C@_0P@IIKK@united?9kingdom?$AA@ 00445b04     LIBCMTD:getqloc.obj
 0002:00001b14       ??_C@_0BC@FHBO@trinidad?5?$CG?5tobago?$AA@ 00445b14     LIBCMTD:getqloc.obj
 0002:00001b28       ??_C@_0M@BDFM@south?9korea?$AA@ 00445b28     LIBCMTD:getqloc.obj
 0002:00001b34       ??_C@_0N@CKFA@south?9africa?$AA@ 00445b34     LIBCMTD:getqloc.obj
 0002:00001b44       ??_C@_0M@HNHN@south?5korea?$AA@ 00445b44     LIBCMTD:getqloc.obj
 0002:00001b50       ??_C@_0N@MKDO@south?5africa?$AA@ 00445b50     LIBCMTD:getqloc.obj
 0002:00001b60       ??_C@_06KFFJ@slovak?$AA@   00445b60     LIBCMTD:getqloc.obj
 0002:00001b68       ??_C@_0M@NMAC@puerto?9rico?$AA@ 00445b68     LIBCMTD:getqloc.obj
 0002:00001b74       ??_C@_08EJOH@pr?9china?$AA@ 00445b74     LIBCMTD:getqloc.obj
 0002:00001b80       ??_C@_08CHMG@pr?5china?$AA@ 00445b80     LIBCMTD:getqloc.obj
 0002:00001b8c       ??_C@_02OCJK@nz?$AA@       00445b8c     LIBCMTD:getqloc.obj
 0002:00001b90       ??_C@_0M@MMKA@new?9zealand?$AA@ 00445b90     LIBCMTD:getqloc.obj
 0002:00001b9c       ??_C@_09MGEH@hong?9kong?$AA@ 00445b9c     LIBCMTD:getqloc.obj
 0002:00001ba8       ??_C@_07CCAK@holland?$AA@  00445ba8     LIBCMTD:getqloc.obj
 0002:00001bb0       ??_C@_0O@MEPL@great?5britain?$AA@ 00445bb0     LIBCMTD:getqloc.obj
 0002:00001bc0       ??_C@_07LGIB@england?$AA@  00445bc0     LIBCMTD:getqloc.obj
 0002:00001bc8       ??_C@_05BMOA@czech?$AA@    00445bc8     LIBCMTD:getqloc.obj
 0002:00001bd0       ??_C@_05NMPB@china?$AA@    00445bd0     LIBCMTD:getqloc.obj
 0002:00001bd8       ??_C@_07GN@britain?$AA@    00445bd8     LIBCMTD:getqloc.obj
 0002:00001be0       ??_C@_07DLAK@america?$AA@  00445be0     LIBCMTD:getqloc.obj
 0002:00001be8       ??_C@_03IPEP@usa?$AA@      00445be8     LIBCMTD:getqloc.obj
 0002:00001bec       ??_C@_02PILH@us?$AA@       00445bec     LIBCMTD:getqloc.obj
 0002:00001bf0       ??_C@_02FHP@uk?$AA@        00445bf0     LIBCMTD:getqloc.obj
 0002:00001bf4       ??_C@_05DEAI@swiss?$AA@    00445bf4     LIBCMTD:getqloc.obj
 0002:00001bfc       ??_C@_0BA@LIAF@swedish?9finland?$AA@ 00445bfc     LIBCMTD:getqloc.obj
 0002:00001c0c       ??_C@_0BC@FMEG@spanish?9venezuela?$AA@ 00445c0c     LIBCMTD:getqloc.obj
 0002:00001c20       ??_C@_0BA@BNMG@spanish?9uruguay?$AA@ 00445c20     LIBCMTD:getqloc.obj
 0002:00001c30       ??_C@_0BE@BKDJ@spanish?9puerto?5rico?$AA@ 00445c30     LIBCMTD:getqloc.obj
 0002:00001c44       ??_C@_0N@JIBL@spanish?9peru?$AA@ 00445c44     LIBCMTD:getqloc.obj
 0002:00001c54       ??_C@_0BB@OGOF@spanish?9paraguay?$AA@ 00445c54     LIBCMTD:getqloc.obj
 0002:00001c68       ??_C@_0P@LLFA@spanish?9panama?$AA@ 00445c68     LIBCMTD:getqloc.obj
 0002:00001c78       ??_C@_0BC@BBJM@spanish?9nicaragua?$AA@ 00445c78     LIBCMTD:getqloc.obj
 0002:00001c8c       ??_C@_0P@NJBN@spanish?9modern?$AA@ 00445c8c     LIBCMTD:getqloc.obj
 0002:00001c9c       ??_C@_0BA@NHDN@spanish?9mexican?$AA@ 00445c9c     LIBCMTD:getqloc.obj
 0002:00001cac       ??_C@_0BB@JHOJ@spanish?9honduras?$AA@ 00445cac     LIBCMTD:getqloc.obj
 0002:00001cc0       ??_C@_0BC@BOOM@spanish?9guatemala?$AA@ 00445cc0     LIBCMTD:getqloc.obj
 0002:00001cd4       ??_C@_0BE@EELI@spanish?9el?5salvador?$AA@ 00445cd4     LIBCMTD:getqloc.obj
 0002:00001ce8       ??_C@_0BA@POAE@spanish?9ecuador?$AA@ 00445ce8     LIBCMTD:getqloc.obj
 0002:00001cf8       ??_C@_0BL@LDKN@spanish?9dominican?5republic?$AA@ 00445cf8     LIBCMTD:getqloc.obj
 0002:00001d14       ??_C@_0BD@HPMH@spanish?9costa?5rica?$AA@ 00445d14     LIBCMTD:getqloc.obj
 0002:00001d28       ??_C@_0BB@NDDK@spanish?9colombia?$AA@ 00445d28     LIBCMTD:getqloc.obj
 0002:00001d3c       ??_C@_0O@BJHA@spanish?9chile?$AA@ 00445d3c     LIBCMTD:getqloc.obj
 0002:00001d4c       ??_C@_0BA@OBNG@spanish?9bolivia?$AA@ 00445d4c     LIBCMTD:getqloc.obj
 0002:00001d5c       ??_C@_0BC@EFAM@spanish?9argentina?$AA@ 00445d5c     LIBCMTD:getqloc.obj
 0002:00001d70       ??_C@_0BF@KMMM@portuguese?9brazilian?$AA@ 00445d70     LIBCMTD:getqloc.obj
 0002:00001d88       ??_C@_0BC@BAAE@norwegian?9nynorsk?$AA@ 00445d88     LIBCMTD:getqloc.obj
 0002:00001d9c       ??_C@_0BB@PBHK@norwegian?9bokmal?$AA@ 00445d9c     LIBCMTD:getqloc.obj
 0002:00001db0       ??_C@_09EHKL@norwegian?$AA@ 00445db0     LIBCMTD:getqloc.obj
 0002:00001dbc       ??_C@_0O@BEAN@italian?9swiss?$AA@ 00445dbc     LIBCMTD:getqloc.obj
 0002:00001dcc       ??_C@_0O@OIFK@irish?9english?$AA@ 00445dcc     LIBCMTD:getqloc.obj
 0002:00001ddc       ??_C@_0N@NBPL@german?9swiss?$AA@ 00445ddc     LIBCMTD:getqloc.obj
 0002:00001dec       ??_C@_0BC@ICFJ@german?9luxembourg?$AA@ 00445dec     LIBCMTD:getqloc.obj
 0002:00001e00       ??_C@_0BE@GGPC@german?9lichtenstein?$AA@ 00445e00     LIBCMTD:getqloc.obj
 0002:00001e14       ??_C@_0BA@MKDC@german?9austrian?$AA@ 00445e14     LIBCMTD:getqloc.obj
 0002:00001e24       ??_C@_0N@ODNB@french?9swiss?$AA@ 00445e24     LIBCMTD:getqloc.obj
 0002:00001e34       ??_C@_0BC@MGCM@french?9luxembourg?$AA@ 00445e34     LIBCMTD:getqloc.obj
 0002:00001e48       ??_C@_0BA@NABK@french?9canadian?$AA@ 00445e48     LIBCMTD:getqloc.obj
 0002:00001e58       ??_C@_0P@CJNO@french?9belgian?$AA@ 00445e58     LIBCMTD:getqloc.obj
 0002:00001e68       ??_C@_0M@LJOL@english?9usa?$AA@ 00445e68     LIBCMTD:getqloc.obj
 0002:00001e74       ??_C@_0L@FMNC@english?9us?$AA@ 00445e74     LIBCMTD:getqloc.obj
 0002:00001e80       ??_C@_0L@KBBK@english?9uk?$AA@ 00445e80     LIBCMTD:getqloc.obj
 0002:00001e8c       ??_C@_0BK@NDDE@english?9trinidad?5y?5tobago?$AA@ 00445e8c     LIBCMTD:getqloc.obj
 0002:00001ea8       ??_C@_0BF@LKML@english?9south?5africa?$AA@ 00445ea8     LIBCMTD:getqloc.obj
 0002:00001ec0       ??_C@_0L@EGPP@english?9nz?$AA@ 00445ec0     LIBCMTD:getqloc.obj
 0002:00001ecc       ??_C@_0BA@HLH@english?9jamaica?$AA@ 00445ecc     LIBCMTD:getqloc.obj
 0002:00001edc       ??_C@_0M@PMJI@english?9ire?$AA@ 00445edc     LIBCMTD:getqloc.obj
 0002:00001ee8       ??_C@_0BC@HINE@english?9caribbean?$AA@ 00445ee8     LIBCMTD:getqloc.obj
 0002:00001efc       ??_C@_0M@DCFH@english?9can?$AA@ 00445efc     LIBCMTD:getqloc.obj
 0002:00001f08       ??_C@_0P@DGHK@english?9belize?$AA@ 00445f08     LIBCMTD:getqloc.obj
 0002:00001f18       ??_C@_0M@FLHK@english?9aus?$AA@ 00445f18     LIBCMTD:getqloc.obj
 0002:00001f24       ??_C@_0BB@HNCK@english?9american?$AA@ 00445f24     LIBCMTD:getqloc.obj
 0002:00001f38       ??_C@_0O@PAMI@dutch?9belgian?$AA@ 00445f38     LIBCMTD:getqloc.obj
 0002:00001f48       ??_C@_0BE@FPEJ@chinese?9traditional?$AA@ 00445f48     LIBCMTD:getqloc.obj
 0002:00001f5c       ??_C@_0BC@CHFL@chinese?9singapore?$AA@ 00445f5c     LIBCMTD:getqloc.obj
 0002:00001f70       ??_C@_0BD@DCMH@chinese?9simplified?$AA@ 00445f70     LIBCMTD:getqloc.obj
 0002:00001f84       ??_C@_0BB@JMOE@chinese?9hongkong?$AA@ 00445f84     LIBCMTD:getqloc.obj
 0002:00001f98       ??_C@_07NGFN@chinese?$AA@  00445f98     LIBCMTD:getqloc.obj
 0002:00001fa0       ??_C@_03PCOI@chi?$AA@      00445fa0     LIBCMTD:getqloc.obj
 0002:00001fa4       ??_C@_03FIHP@chh?$AA@      00445fa4     LIBCMTD:getqloc.obj
 0002:00001fa8       ??_C@_08HFLO@canadian?$AA@ 00445fa8     LIBCMTD:getqloc.obj
 0002:00001fb4       ??_C@_07INIJ@belgian?$AA@  00445fb4     LIBCMTD:getqloc.obj
 0002:00001fbc       ??_C@_0L@LCCA@australian?$AA@ 00445fbc     LIBCMTD:getqloc.obj
 0002:00001fc8       ??_C@_0BB@BJIO@american?9english?$AA@ 00445fc8     LIBCMTD:getqloc.obj
 0002:00001fdc       ??_C@_0BB@DAGO@american?5english?$AA@ 00445fdc     LIBCMTD:getqloc.obj
 0002:00001ff0       ??_C@_08HENB@american?$AA@ 00445ff0     LIBCMTD:getqloc.obj
 0002:00001ffc       ??_C@_03DGJE@OCP?$AA@      00445ffc     LIBCMTD:getqloc.obj
 0002:00002000       ??_C@_03EKFG@ACP?$AA@      00446000     LIBCMTD:getqloc.obj
 0002:00002004       ??_C@_08CNMA@winsig?4c?$AA@ 00446004     LIBCMTD:winsig.obj
 0002:00002010       ??_C@_0BD@NJFP@GetLastActivePopup?$AA@ 00446010     LIBCMTD:crtmbox.obj
 0002:00002024       ??_C@_0BA@GILI@GetActiveWindow?$AA@ 00446024     LIBCMTD:crtmbox.obj
 0002:00002034       ??_C@_0M@PKCK@MessageBoxA?$AA@ 00446034     LIBCMTD:crtmbox.obj
 0002:0000204c       ??_C@_07CJME@H?3mm?3ss?$AA@ 0044604c     LIBCMTD:strftime.obj
 0002:00002054       ??_C@_0BE@MHI@dddd?0?5MMMM?5dd?0?5yyyy?$AA@ 00446054     LIBCMTD:strftime.obj
 0002:00002068       ??_C@_06HCAD@M?1d?1yy?$AA@ 00446068     LIBCMTD:strftime.obj
 0002:00002070       ??_C@_02DBLP@PM?$AA@       00446070     LIBCMTD:strftime.obj
 0002:00002074       ??_C@_02ENLM@AM?$AA@       00446074     LIBCMTD:strftime.obj
 0002:00002078       ??_C@_08LIDF@December?$AA@ 00446078     LIBCMTD:strftime.obj
 0002:00002084       ??_C@_08NJLI@November?$AA@ 00446084     LIBCMTD:strftime.obj
 0002:00002090       ??_C@_07IAMM@October?$AA@  00446090     LIBCMTD:strftime.obj
 0002:00002098       ??_C@_09MKGD@September?$AA@ 00446098     LIBCMTD:strftime.obj
 0002:000020a4       ??_C@_06PADP@August?$AA@   004460a4     LIBCMTD:strftime.obj
 0002:000020ac       ??_C@_04PIJO@July?$AA@     004460ac     LIBCMTD:strftime.obj
 0002:000020b4       ??_C@_04ICFP@June?$AA@     004460b4     LIBCMTD:strftime.obj
 0002:000020bc       ??_C@_05JFGC@April?$AA@    004460bc     LIBCMTD:strftime.obj
 0002:000020c4       ??_C@_05FGPD@March?$AA@    004460c4     LIBCMTD:strftime.obj
 0002:000020cc       ??_C@_08PGBA@February?$AA@ 004460cc     LIBCMTD:strftime.obj
 0002:000020d8       ??_C@_07BPKJ@January?$AA@  004460d8     LIBCMTD:strftime.obj
 0002:000020e0       ??_C@_03PGJO@Dec?$AA@      004460e0     LIBCMTD:strftime.obj
 0002:000020e4       ??_C@_03PDLM@Nov?$AA@      004460e4     LIBCMTD:strftime.obj
 0002:000020e8       ??_C@_03BLHK@Oct?$AA@      004460e8     LIBCMTD:strftime.obj
 0002:000020ec       ??_C@_03DPFM@Sep?$AA@      004460ec     LIBCMTD:strftime.obj
 0002:000020f0       ??_C@_03CMCH@Aug?$AA@      004460f0     LIBCMTD:strftime.obj
 0002:000020f4       ??_C@_03OBKI@Jul?$AA@      004460f4     LIBCMTD:strftime.obj
 0002:000020f8       ??_C@_03LEIG@Jun?$AA@      004460f8     LIBCMTD:strftime.obj
 0002:000020fc       ??_C@_03MGHB@May?$AA@      004460fc     LIBCMTD:strftime.obj
 0002:00002100       ??_C@_03MJJM@Apr?$AA@      00446100     LIBCMTD:strftime.obj
 0002:00002104       ??_C@_03GNHA@Mar?$AA@      00446104     LIBCMTD:strftime.obj
 0002:00002108       ??_C@_03PICE@Feb?$AA@      00446108     LIBCMTD:strftime.obj
 0002:0000210c       ??_C@_03IEIF@Jan?$AA@      0044610c     LIBCMTD:strftime.obj
 0002:00002110       ??_C@_08FAKH@Saturday?$AA@ 00446110     LIBCMTD:strftime.obj
 0002:0000211c       ??_C@_06ONCK@Friday?$AA@   0044611c     LIBCMTD:strftime.obj
 0002:00002124       ??_C@_08CCFO@Thursday?$AA@ 00446124     LIBCMTD:strftime.obj
 0002:00002130       ??_C@_09PBIN@Wednesday?$AA@ 00446130     LIBCMTD:strftime.obj
 0002:0000213c       ??_C@_07BMBC@Tuesday?$AA@  0044613c     LIBCMTD:strftime.obj
 0002:00002144       ??_C@_06CHLK@Monday?$AA@   00446144     LIBCMTD:strftime.obj
 0002:0000214c       ??_C@_06OOEM@Sunday?$AA@   0044614c     LIBCMTD:strftime.obj
 0002:00002154       ??_C@_03MPKK@Sat?$AA@      00446154     LIBCMTD:strftime.obj
 0002:00002158       ??_C@_03FINJ@Fri?$AA@      00446158     LIBCMTD:strftime.obj
 0002:0000215c       ??_C@_03HIKC@Thu?$AA@      0044615c     LIBCMTD:strftime.obj
 0002:00002160       ??_C@_03HECK@Wed?$AA@      00446160     LIBCMTD:strftime.obj
 0002:00002164       ??_C@_03ECCP@Tue?$AA@      00446164     LIBCMTD:strftime.obj
 0002:00002168       ??_C@_03PIEP@Mon?$AA@      00446168     LIBCMTD:strftime.obj
 0002:0000216c       ??_C@_03FHEP@Sun?$AA@      0044616c     LIBCMTD:strftime.obj
 0002:00002170       ??_C@_03MKGK@a?1p?$AA@     00446170     LIBCMTD:strftime.obj
 0002:00002174       ??_C@_05BDJK@am?1pm?$AA@   00446174     LIBCMTD:strftime.obj
 0002:0000217c       ??_C@_0L@HKCB@inithelp?4c?$AA@ 0044617c     LIBCMTD:inithelp.obj
 0002:000021a0       ??_C@_06PAPI@1?$CDQNAN?$AA@ 004461a0     LIBCMTD:x10fout.obj
 0002:000021a8       ??_C@_05BGNL@1?$CDINF?$AA@ 004461a8     LIBCMTD:x10fout.obj
 0002:000021b0       ??_C@_05EDPF@1?$CDIND?$AA@ 004461b0     LIBCMTD:x10fout.obj
 0002:000021b8       ??_C@_06LKFM@1?$CDSNAN?$AA@ 004461b8     LIBCMTD:x10fout.obj
 0002:000021c0       ??_C@_08EIOK@chsize?4c?$AA@ 004461c0     LIBCMTD:chsize.obj
 0002:000021cc       ??_C@_09NPGF@size?5?$DO?$DN?50?$AA@ 004461cc     LIBCMTD:chsize.obj
 0002:000021d8       ___dnames                  004461d8     LIBCMTD:timeset.obj
 0002:000021f0       ___mnames                  004461f0     LIBCMTD:timeset.obj
 0002:00002218       ??_C@_07DEKI@tzset?4c?$AA@ 00446218     LIBCMTD:tzset.obj
 0002:00002220       ??_C@_02JHIA@TZ?$AA@       00446220     LIBCMTD:tzset.obj
 0002:00002244       ??_C@_0L@EJNO@wtombenv?4c?$AA@ 00446244     LIBCMTD:wtombenv.obj
 0002:00002250       ??_C@_07FOIK@a_cmp?4c?$AA@ 00446250     LIBCMTD:a_cmp.obj
 0002:00002258       ??_C@_0DN@PPKB@cchCount1?$DN?$DN0?5?$CG?$CG?5cchCount2?$DN?$DN1?5?$HM?$HM?5@ 00446258     LIBCMTD:a_cmp.obj
 0002:000022b0       ??_C@_08FEIK@setenv?4c?$AA@ 004462b0     LIBCMTD:setenv.obj
 0002:000022c0       ??_R1A@A@3A@ios_base@std@@8 004462c0     libcpmtd:iostream.obj
 0002:000022d8       ??_R1A@A@3BA@?$basic_ios@DU?$char_traits@D@std@@@std@@8 004462d8     libcpmtd:iostream.obj
 0002:000022f0       ??_R1A@?0A@A@?$basic_ostream@DU?$char_traits@D@std@@@std@@8 004462f0     libcpmtd:iostream.obj
 0002:00002308       ??_R2?$basic_ostream@DU?$char_traits@D@std@@@std@@8 00446308     libcpmtd:iostream.obj
 0002:00002318       ??_R3?$basic_ostream@DU?$char_traits@D@std@@@std@@8 00446318     libcpmtd:iostream.obj
 0002:00002328       ??_R4?$basic_ostream@DU?$char_traits@D@std@@@std@@6B@ 00446328     libcpmtd:iostream.obj
 0002:00002340       ??_R1A@?0A@A@ios_base@std@@8 00446340     libcpmtd:iostream.obj
 0002:00002358       ??_R1A@?0A@A@?$basic_ios@DU?$char_traits@D@std@@@std@@8 00446358     libcpmtd:iostream.obj
 0002:00002370       ??_R2?$basic_ios@DU?$char_traits@D@std@@@std@@8 00446370     libcpmtd:iostream.obj
 0002:00002380       ??_R3?$basic_ios@DU?$char_traits@D@std@@@std@@8 00446380     libcpmtd:iostream.obj
 0002:00002390       ??_R4?$basic_ios@DU?$char_traits@D@std@@@std@@6B@ 00446390     libcpmtd:iostream.obj
 0002:000023a8       ??_R1A@?0A@A@?$basic_istream@DU?$char_traits@D@std@@@std@@8 004463a8     libcpmtd:iostream.obj
 0002:000023c0       ??_R2?$basic_istream@DU?$char_traits@D@std@@@std@@8 004463c0     libcpmtd:iostream.obj
 0002:000023d0       ??_R3?$basic_istream@DU?$char_traits@D@std@@@std@@8 004463d0     libcpmtd:iostream.obj
 0002:000023e0       ??_R4?$basic_istream@DU?$char_traits@D@std@@@std@@6B@ 004463e0     libcpmtd:iostream.obj
 0002:000023f8       ??_R1A@?0A@A@?$basic_streambuf@DU?$char_traits@D@std@@@std@@8 004463f8     libcpmtd:iostream.obj
 0002:00002410       ??_R1A@?0A@A@?$basic_filebuf@DU?$char_traits@D@std@@@std@@8 00446410     libcpmtd:iostream.obj
 0002:00002428       ??_R2?$basic_filebuf@DU?$char_traits@D@std@@@std@@8 00446428     libcpmtd:iostream.obj
 0002:00002438       ??_R3?$basic_filebuf@DU?$char_traits@D@std@@@std@@8 00446438     libcpmtd:iostream.obj
 0002:00002448       ??_R4?$basic_filebuf@DU?$char_traits@D@std@@@std@@6B@ 00446448     libcpmtd:iostream.obj
 0002:0000245c       ??_R2?$basic_streambuf@DU?$char_traits@D@std@@@std@@8 0044645c     libcpmtd:iostream.obj
 0002:00002468       ??_R3?$basic_streambuf@DU?$char_traits@D@std@@@std@@8 00446468     libcpmtd:iostream.obj
 0002:00002478       ??_R4?$basic_streambuf@DU?$char_traits@D@std@@@std@@6B@ 00446478     libcpmtd:iostream.obj
 0002:0000248c       ??_R2ios_base@std@@8       0044648c     libcpmtd:iostream.obj
 0002:00002498       ??_R3ios_base@std@@8       00446498     libcpmtd:iostream.obj
 0002:000024a8       ??_R4ios_base@std@@6B@     004464a8     libcpmtd:iostream.obj
 0002:000024c0       ??_R1A@A@3BA@?$basic_ios@GU?$char_traits@G@std@@@std@@8 004464c0     libcpmtd:wiostrea.obj
 0002:000024d8       ??_R1A@?0A@A@?$basic_ostream@GU?$char_traits@G@std@@@std@@8 004464d8     libcpmtd:wiostrea.obj
 0002:000024f0       ??_R2?$basic_ostream@GU?$char_traits@G@std@@@std@@8 004464f0     libcpmtd:wiostrea.obj
 0002:00002500       ??_R3?$basic_ostream@GU?$char_traits@G@std@@@std@@8 00446500     libcpmtd:wiostrea.obj
 0002:00002510       ??_R4?$basic_ostream@GU?$char_traits@G@std@@@std@@6B@ 00446510     libcpmtd:wiostrea.obj
 0002:00002528       ??_R1A@?0A@A@?$basic_ios@GU?$char_traits@G@std@@@std@@8 00446528     libcpmtd:wiostrea.obj
 0002:00002540       ??_R2?$basic_ios@GU?$char_traits@G@std@@@std@@8 00446540     libcpmtd:wiostrea.obj
 0002:00002550       ??_R3?$basic_ios@GU?$char_traits@G@std@@@std@@8 00446550     libcpmtd:wiostrea.obj
 0002:00002560       ??_R4?$basic_ios@GU?$char_traits@G@std@@@std@@6B@ 00446560     libcpmtd:wiostrea.obj
 0002:00002578       ??_R1A@?0A@A@?$basic_istream@GU?$char_traits@G@std@@@std@@8 00446578     libcpmtd:wiostrea.obj
 0002:00002590       ??_R2?$basic_istream@GU?$char_traits@G@std@@@std@@8 00446590     libcpmtd:wiostrea.obj
 0002:000025a0       ??_R3?$basic_istream@GU?$char_traits@G@std@@@std@@8 004465a0     libcpmtd:wiostrea.obj
 0002:000025b0       ??_R4?$basic_istream@GU?$char_traits@G@std@@@std@@6B@ 004465b0     libcpmtd:wiostrea.obj
 0002:000025c8       ??_R1A@?0A@A@?$basic_streambuf@GU?$char_traits@G@std@@@std@@8 004465c8     libcpmtd:wiostrea.obj
 0002:000025e0       ??_R1A@?0A@A@?$basic_filebuf@GU?$char_traits@G@std@@@std@@8 004465e0     libcpmtd:wiostrea.obj
 0002:000025f8       ??_R2?$basic_filebuf@GU?$char_traits@G@std@@@std@@8 004465f8     libcpmtd:wiostrea.obj
 0002:00002608       ??_R3?$basic_filebuf@GU?$char_traits@G@std@@@std@@8 00446608     libcpmtd:wiostrea.obj
 0002:00002618       ??_R4?$basic_filebuf@GU?$char_traits@G@std@@@std@@6B@ 00446618     libcpmtd:wiostrea.obj
 0002:0000262c       ??_R2?$basic_streambuf@GU?$char_traits@G@std@@@std@@8 0044662c     libcpmtd:wiostrea.obj
 0002:00002638       ??_R3?$basic_streambuf@GU?$char_traits@G@std@@@std@@8 00446638     libcpmtd:wiostrea.obj
 0002:00002648       ??_R4?$basic_streambuf@GU?$char_traits@G@std@@@std@@6B@ 00446648     libcpmtd:wiostrea.obj
 0002:00002660       ??_R1A@?0A@A@exception@@8  00446660     libcpmtd:string.obj
 0002:00002678       ??_R1A@?0A@A@logic_error@std@@8 00446678     libcpmtd:string.obj
 0002:00002690       ??_R2logic_error@std@@8    00446690     libcpmtd:string.obj
 0002:000026a0       ??_R3logic_error@std@@8    004466a0     libcpmtd:string.obj
 0002:000026b0       ??_R4logic_error@std@@6B@  004466b0     libcpmtd:string.obj
 0002:000026c8       ??_R1A@?0A@A@length_error@std@@8 004466c8     libcpmtd:string.obj
 0002:000026e0       ??_R2length_error@std@@8   004466e0     libcpmtd:string.obj
 0002:000026f0       ??_R3length_error@std@@8   004466f0     libcpmtd:string.obj
 0002:00002700       ??_R4length_error@std@@6B@ 00446700     libcpmtd:string.obj
 0002:00002718       ??_R1A@?0A@A@out_of_range@std@@8 00446718     libcpmtd:string.obj
 0002:00002730       ??_R2out_of_range@std@@8   00446730     libcpmtd:string.obj
 0002:00002740       ??_R3out_of_range@std@@8   00446740     libcpmtd:string.obj
 0002:00002750       ??_R4out_of_range@std@@6B@ 00446750     libcpmtd:string.obj
 0002:00002768       ??_R1A@?0A@A@runtime_error@std@@8 00446768     libcpmtd:ios.obj
 0002:00002780       ??_R2runtime_error@std@@8  00446780     libcpmtd:ios.obj
 0002:00002790       ??_R3runtime_error@std@@8  00446790     libcpmtd:ios.obj
 0002:000027a0       ??_R4runtime_error@std@@6B@ 004467a0     libcpmtd:ios.obj
 0002:000027b8       ??_R1A@?0A@A@failure@ios_base@std@@8 004467b8     libcpmtd:ios.obj
 0002:000027d0       ??_R2failure@ios_base@std@@8 004467d0     libcpmtd:ios.obj
 0002:000027e0       ??_R3failure@ios_base@std@@8 004467e0     libcpmtd:ios.obj
 0002:000027f0       ??_R4failure@ios_base@std@@6B@ 004467f0     libcpmtd:ios.obj
 0002:00002808       ??_R1A@?0A@A@facet@locale@std@@8 00446808     libcpmtd:locale0.obj
 0002:00002820       ??_R1A@?0A@A@_Locimp@locale@std@@8 00446820     libcpmtd:locale0.obj
 0002:00002838       ??_R2_Locimp@locale@std@@8 00446838     libcpmtd:locale0.obj
 0002:00002848       ??_R3_Locimp@locale@std@@8 00446848     libcpmtd:locale0.obj
 0002:00002858       ??_R4_Locimp@locale@std@@6B@ 00446858     libcpmtd:locale0.obj
 0002:0000286c       ??_R2facet@locale@std@@8   0044686c     libcpmtd:locale0.obj
 0002:00002878       ??_R3facet@locale@std@@8   00446878     libcpmtd:locale0.obj
 0002:00002888       ??_R4facet@locale@std@@6B@ 00446888     libcpmtd:locale0.obj
 0002:000028a0       ??_R1A@?0A@A@bad_alloc@std@@8 004468a0     libcpmtd:nomemory.obj
 0002:000028b8       ??_R2bad_alloc@std@@8      004468b8     libcpmtd:nomemory.obj
 0002:000028c8       ??_R3bad_alloc@std@@8      004468c8     libcpmtd:nomemory.obj
 0002:000028d8       ??_R4bad_alloc@std@@6B@    004468d8     libcpmtd:nomemory.obj
 0002:000028f0       ??_R1A@?0A@A@type_info@@8  004468f0     LIBCMTD:typinfo.obj
 0002:00002908       ??_R2type_info@@8          00446908     LIBCMTD:typinfo.obj
 0002:00002910       ??_R3type_info@@8          00446910     LIBCMTD:typinfo.obj
 0002:00002920       ??_R4type_info@@6B@        00446920     LIBCMTD:typinfo.obj
 0002:00002934       ??_R2exception@@8          00446934     LIBCMTD:stdexcpt.obj
 0002:00002940       ??_R3exception@@8          00446940     LIBCMTD:stdexcpt.obj
 0002:00002950       ??_R4exception@@6B@        00446950     LIBCMTD:stdexcpt.obj
 0002:00002ff0       __CT??_R0?AVexception@@@8??0exception@@QAE@ABV0@@Z12 00446ff0     libcpmtd:string.obj
 0002:00003010       __CT??_R0?AVlogic_error@std@@@8??0logic_error@std@@QAE@ABV01@@Z28 00447010     libcpmtd:string.obj
 0002:00003030       __CT??_R0?AVlength_error@std@@@8??0length_error@std@@QAE@ABV01@@Z28 00447030     libcpmtd:string.obj
 0002:00003050       __CTA3?AVlength_error@std@@ 00447050     libcpmtd:string.obj
 0002:00003060       __TI3?AVlength_error@std@@ 00447060     libcpmtd:string.obj
 0002:000030c0       __CTA2?AVlogic_error@std@@ 004470c0     libcpmtd:string.obj
 0002:000030d0       __TI2?AVlogic_error@std@@  004470d0     libcpmtd:string.obj
 0002:00003130       __CT??_R0?AVout_of_range@std@@@8??0out_of_range@std@@QAE@ABV01@@Z28 00447130     libcpmtd:string.obj
 0002:00003150       __CTA3?AVout_of_range@std@@ 00447150     libcpmtd:string.obj
 0002:00003160       __TI3?AVout_of_range@std@@ 00447160     libcpmtd:string.obj
 0002:00003198       __CT??_R0?AVruntime_error@std@@@8??0runtime_error@std@@QAE@ABV01@@Z28 00447198     libcpmtd:ios.obj
 0002:000031b8       __CT??_R0?AVfailure@ios_base@std@@@8??0failure@ios_base@std@@QAE@ABV012@@Z28 004471b8     libcpmtd:ios.obj
 0002:000031d8       __CTA3?AVfailure@ios_base@std@@ 004471d8     libcpmtd:ios.obj
 0002:000031e8       __TI3?AVfailure@ios_base@std@@ 004471e8     libcpmtd:ios.obj
 0002:00003248       __CTA2?AVruntime_error@std@@ 00447248     libcpmtd:ios.obj
 0002:00003258       __TI2?AVruntime_error@std@@ 00447258     libcpmtd:ios.obj
 0002:00003480       __CT??_R0?AVbad_alloc@std@@@8??0bad_alloc@std@@QAE@ABV01@@Z12 00447480     libcpmtd:nomemory.obj
 0002:000034a0       __CTA2?AVbad_alloc@std@@   004474a0     libcpmtd:nomemory.obj
 0002:000034b0       __TI2?AVbad_alloc@std@@    004474b0     libcpmtd:nomemory.obj
 0003:00000000       ___xc_a                    00448000     LIBCMTD:crt0init.obj
 0003:000002bc       ___xc_z                    004482bc     LIBCMTD:crt0init.obj
 0003:000002c0       ___xi_a                    004482c0     LIBCMTD:crt0init.obj
 0003:000002d4       ___xi_z                    004482d4     LIBCMTD:crt0init.obj
 0003:000002d8       ___xp_a                    004482d8     LIBCMTD:crt0init.obj
 0003:000002e0       ___xp_z                    004482e0     LIBCMTD:crt0init.obj
 0003:000002e4       ___xt_a                    004482e4     LIBCMTD:crt0init.obj
 0003:000002ec       ___xt_z                    004482ec     LIBCMTD:crt0init.obj
 0003:00000688       ?autostart@@3PAUAUTOSTART@@A 00448688     autostart.obj
 0003:00000c04       ?rpcfp_bindstr@@3PADA      00448c04     fphost.obj
 0003:00000c50       ?rpcfp_inqifids@@3PADA     00448c50     fphost.obj
 0003:00000c6c       ?w2kuuid_sig@@3PADA        00448c6c     fphost.obj
 0003:00000c80       ?wxpuuid_sig@@3PADA        00448c80     fphost.obj
 0003:00001588       ?keys@@3PAUKEYS@@A         00449588     keylogger.obj
 0003:00002798       ?reverseshell@@3PAEA       0044a798     lsass.obj
 0003:000028d8       ?bindshell@@3PAEA          0044a8d8     lsass.obj
 0003:00002a70       ?req1@@3PADA               0044aa70     lsass.obj
 0003:00002afc       ?req2@@3PADA               0044aafc     lsass.obj
 0003:00002ba8       ?req3@@3PADA               0044aba8     lsass.obj
 0003:00002c88       ?req4@@3PADA               0044ac88     lsass.obj
 0003:00002cec       ?req5@@3PADA               0044acec     lsass.obj
 0003:00002d58       ?req6@@3PADA               0044ad58     lsass.obj
 0003:00002dfc       ?req7@@3PADA               0044adfc     lsass.obj
 0003:00002e7c       ?shit1@@3PADA              0044ae7c     lsass.obj
 0003:00002f10       ?req8@@3PADA               0044af10     lsass.obj
 0003:00002f7c       ?req9@@3PADA               0044af7c     lsass.obj
 0003:00002ff0       ?shit3@@3PADA              0044aff0     lsass.obj
 0003:00003078       ?dport@@3HA                0044b078     lsass.obj
 0003:00003080       ?ttarget@@3PAUtargets@@A   0044b080     lsass.obj
 0003:00003280       ?netcommand@@3PAUNetCommand@@A 0044b280     net.obj
 0003:00004194       ?port@@3HA                 0044c194     rBot.obj
 0003:00004198       ?port2@@3HA                0044c198     rBot.obj
 0003:0000419c       ?socks4port@@3HA           0044c19c     rBot.obj
 0003:000041a0       ?tftpport@@3HA             0044c1a0     rBot.obj
 0003:000041a4       ?httpport@@3HA             0044c1a4     rBot.obj
 0003:000041a8       ?rloginport@@3HA           0044c1a8     rBot.obj
 0003:000041ac       ?topiccmd@@3HA             0044c1ac     rBot.obj
 0003:000041b0       ?AutoStart@@3HA            0044c1b0     rBot.obj
 0003:000041b4       ?prefix@@3DA               0044c1b4     rBot.obj
 0003:000041b8       ?maxrand@@3HA              0044c1b8     rBot.obj
 0003:000041bc       ?nicktype@@3HA             0044c1bc     rBot.obj
 0003:000041c0       ?nickprefix@@3HA           0044c1c0     rBot.obj
 0003:000041c4       ?botid@@3PADA              0044c1c4     rBot.obj
 0003:000041cc       ?version@@3PADA            0044c1cc     rBot.obj
 0003:000041ec       ?password@@3PADA           0044c1ec     rBot.obj
 0003:000041f4       ?server@@3PADA             0044c1f4     rBot.obj
 0003:00004200       ?channel@@3PADA            0044c200     rBot.obj
 0003:00004208       ?chanpass@@3PADA           0044c208     rBot.obj
 0003:00004210       ?filename@@3PADA           0044c210     rBot.obj
 0003:0000421c       ?keylogfile@@3PADA         0044c21c     rBot.obj
 0003:00004228       ?valuename@@3PADA          0044c228     rBot.obj
 0003:00004244       ?nickconst@@3PADA          0044c244     rBot.obj
 0003:00004248       ?szLocalPayloadFile@@3PADA 0044c248     rBot.obj
 0003:00004258       ?modeonconn@@3PADA         0044c258     rBot.obj
 0003:00004260       ?exploitchan@@3PADA        0044c260     rBot.obj
 0003:00004264       ?keylogchan@@3PADA         0044c264     rBot.obj
 0003:00004268       ?psniffchan@@3PADA         0044c268     rBot.obj
 0003:0000426c       ?command_prefix@@3PADA     0044c26c     rBot.obj
 0003:00004270       ?authost@@3PAPADA          0044c270     rBot.obj
 0003:00004274       ?versionlist@@3PAPADA      0044c274     rBot.obj
 0003:00004284       ?regkey1@@3PADA            0044c284     rBot.obj
 0003:000042b4       ?regkey2@@3PADA            0044c2b4     rBot.obj
 0003:000042ec       ?regkey3@@3PADA            0044c2ec     rBot.obj
 0003:00004304       ?regkey4@@3PADA            0044c304     rBot.obj
 0003:0000432c       ?usernames@@3PAPADA        0044c32c     rBot.obj
 0003:0000437c       ?passwords@@3PAPADA        0044c37c     rBot.obj
 0003:000045ac       ?anum@@3HA                 0044c5ac     rBot.obj
 0003:00006db8       ?rnick@@3PAURNICK@@A       0044edb8     rndnick.obj
 0003:00006ec8       ?ShareList@@3PAUNetShares@@A 0044eec8     secure.obj
 0003:0000753c       ?xor65535decoder@@3PADA    0044f53c     shellcode.obj
 0003:00007554       ?xor255decoder@@3PADA      0044f554     shellcode.obj
 0003:0000756c       ?tftp_Shellcode@@3PADA     0044f56c     shellcode.obj
 0003:00007900       ?_Init_cnt@Init@ios_base@std@@0HA 0044f900     libcpmtd:iostream.obj
 0003:00007908       ??_R0?AVios_base@std@@@8   0044f908     libcpmtd:iostream.obj
 0003:00007928       ??_R0?AV?$basic_ios@DU?$char_traits@D@std@@@std@@@8 0044f928     libcpmtd:iostream.obj
 0003:00007960       ??_R0?AV?$basic_ostream@DU?$char_traits@D@std@@@std@@@8 0044f960     libcpmtd:iostream.obj
 0003:000079a0       ??_R0?AV?$basic_istream@DU?$char_traits@D@std@@@std@@@8 0044f9a0     libcpmtd:iostream.obj
 0003:000079e0       ??_R0?AV?$basic_streambuf@DU?$char_traits@D@std@@@std@@@8 0044f9e0     libcpmtd:iostream.obj
 0003:00007a20       ??_R0?AV?$basic_filebuf@DU?$char_traits@D@std@@@std@@@8 0044fa20     libcpmtd:iostream.obj
 0003:00007a5c       ?_Init_cnt@_Winit@std@@0HA 0044fa5c     libcpmtd:wiostrea.obj
 0003:00007a60       ??_R0?AV?$basic_ios@GU?$char_traits@G@std@@@std@@@8 0044fa60     libcpmtd:wiostrea.obj
 0003:00007a98       ??_R0?AV?$basic_ostream@GU?$char_traits@G@std@@@std@@@8 0044fa98     libcpmtd:wiostrea.obj
 0003:00007ad8       ??_R0?AV?$basic_istream@GU?$char_traits@G@std@@@std@@@8 0044fad8     libcpmtd:wiostrea.obj
 0003:00007b18       ??_R0?AV?$basic_streambuf@GU?$char_traits@G@std@@@std@@@8 0044fb18     libcpmtd:wiostrea.obj
 0003:00007b58       ??_R0?AV?$basic_filebuf@GU?$char_traits@G@std@@@std@@@8 0044fb58     libcpmtd:wiostrea.obj
 0003:00007b98       ??_R0?AVexception@@@8      0044fb98     libcpmtd:string.obj
 0003:00007bb0       ??_R0?AVlogic_error@std@@@8 0044fbb0     libcpmtd:string.obj
 0003:00007bd0       ??_R0?AVlength_error@std@@@8 0044fbd0     libcpmtd:string.obj
 0003:00007bf0       ??_R0?AVout_of_range@std@@@8 0044fbf0     libcpmtd:string.obj
 0003:00007c10       ?_Sync@ios_base@std@@0_NA  0044fc10     libcpmtd:ios.obj
 0003:00007c18       ??_R0?AVruntime_error@std@@@8 0044fc18     libcpmtd:ios.obj
 0003:00007c38       ??_R0?AVfailure@ios_base@std@@@8 0044fc38     libcpmtd:ios.obj
 0003:00007c60       ??_R0?AVfacet@locale@std@@@8 0044fc60     libcpmtd:locale0.obj
 0003:00007c80       ??_R0?AV_Locimp@locale@std@@@8 0044fc80     libcpmtd:locale0.obj
 0003:00007ca8       ??_R0?AVbad_alloc@std@@@8  0044fca8     libcpmtd:nomemory.obj
 0003:00007cd0       __iob                      0044fcd0     LIBCMTD:_file.obj
 0003:00007f50       __crtDbgFlag               0044ff50     LIBCMTD:dbgheap.obj
 0003:00007f58       __crtBreakAlloc            0044ff58     LIBCMTD:dbgheap.obj
 0003:00007f80       __half                     0044ff80     LIBCMTD:pow.obj
 0003:00007f8c       __fltused                  0044ff8c     LIBCMTD:fpinit.obj
 0003:00007f90       __ldused                   0044ff90     LIBCMTD:fpinit.obj
 0003:00007f94       __FPinit                   0044ff94     LIBCMTD:fpinit.obj
 0003:00007f98       __FPmtinit                 0044ff98     LIBCMTD:fpinit.obj
 0003:00007f9c       __FPmtterm                 0044ff9c     LIBCMTD:fpinit.obj
 0003:00007fb0       __NLG_Destination          0044ffb0     LIBCMTD:exsup.obj
 0003:00007fc0       __aexit_rtn                0044ffc0     LIBCMTD:wincrt0.obj
 0003:00007fc4       ___app_type                0044ffc4     LIBCMTD:wincrt0.obj
 0003:00007fc8       ??_R0?AVtype_info@@@8      0044ffc8     LIBCMTD:typinfo.obj
 0003:00007fe0       ?__pMyUnhandledExceptionFilter@@3PAXA 0044ffe0     LIBCMTD:throw.obj
 0003:00007fe4       __locktable                0044ffe4     LIBCMTD:mlock.obj
 0003:000081b0       ___lc_category             004501b0     LIBCMTD:setlocal.obj
 0003:000081f8       __pctype                   004501f8     LIBCMTD:ctype.obj
 0003:000081fc       __pwctype                  004501fc     LIBCMTD:ctype.obj
 0003:00008200       __ctype                    00450200     LIBCMTD:ctype.obj
 0003:00008570       __crtAssertBusy            00450570     LIBCMTD:dbgrpt.obj
 0003:00008574       __CrtDbgMode               00450574     LIBCMTD:dbgrpt.obj
 0003:00008580       __CrtDbgFile               00450580     LIBCMTD:dbgrpt.obj
 0003:00008598       ___mb_cur_max              00450598     LIBCMTD:nlsdata1.obj
 0003:0000859c       ___decimal_point           0045059c     LIBCMTD:nlsdata1.obj
 0003:000085a0       ___decimal_point_length    004505a0     LIBCMTD:nlsdata1.obj
 0003:000085a4       ___nullstring              004505a4     LIBCMTD:output.obj
 0003:000085a8       ___wnullstring             004505a8     LIBCMTD:output.obj
 0003:000085ac       ___tlsindex                004505ac     LIBCMTD:tidtable.obj
 0003:000085c0       ___badioinfo               004505c0     LIBCMTD:ioinit.obj
 0003:000085e4       __pfnAllocHook             004505e4     LIBCMTD:dbghook.obj
 0003:000085e8       __amblksiz                 004505e8     LIBCMTD:heapinit.obj
 0003:000085ec       ___sbh_threshold           004505ec     LIBCMTD:sbheap.obj
 0003:000085f0       __infinity                 004505f0     LIBCMTD:87tran.obj
 0003:000085fa       __minfinity                004505fa     LIBCMTD:87tran.obj
 0003:00008604       __logemax                  00450604     LIBCMTD:87tran.obj
 0003:0000862a       __OP_EXPjmptab             0045062a     LIBCMTD:87tran.obj
 0003:00008650       __indefinite               00450650     LIBCMTD:87disp.obj
 0003:0000865a       __piby2                    0045065a     LIBCMTD:87disp.obj
 0003:00008680       __cfltcvt_tab              00450680     LIBCMTD:cmiscdat.obj
 0003:00008770       __d_inf                    00450770     LIBCMTD:util.obj
 0003:00008778       __d_ind                    00450778     LIBCMTD:util.obj
 0003:00008780       __d_max                    00450780     LIBCMTD:util.obj
 0003:00008788       __d_min                    00450788     LIBCMTD:util.obj
 0003:00008790       __d_mzero                  00450790     LIBCMTD:util.obj
 0003:000087c0       ?__pInconsistency@@3P6AXXZA 004507c0     LIBCMTD:hooks.obj
 0003:000088c0       __XcptActTab               004508c0     LIBCMTD:winxfltr.obj
 0003:00008938       __First_FPE_Indx           00450938     LIBCMTD:winxfltr.obj
 0003:0000893c       __Num_FPE                  0045093c     LIBCMTD:winxfltr.obj
 0003:00008940       __XcptActTabSize           00450940     LIBCMTD:winxfltr.obj
 0003:00008944       __XcptActTabCount          00450944     LIBCMTD:winxfltr.obj
 0003:000089e0       ___rgLocInfo               004509e0     LIBCMTD:getqloc.obj
 0003:00008e84       ___rglangidNotDefault      00450e84     LIBCMTD:getqloc.obj
 0003:00008e98       ___rg_country              00450e98     LIBCMTD:getqloc.obj
 0003:00008f50       ___rg_language             00450f50     LIBCMTD:getqloc.obj
 0003:000092f0       __matherr_flag             004512f0     LIBCMTD:matherr.obj
 0003:000092f4       ___lc_time_curr            004512f4     LIBCMTD:strftime.obj
 0003:000092f8       ___lc_time_c               004512f8     LIBCMTD:strftime.obj
 0003:000093a8       ___lconv_static_decimal    004513a8     LIBCMTD:lconv.obj
 0003:000093b0       ___lconv_c                 004513b0     LIBCMTD:lconv.obj
 0003:000093e0       ___lconv                   004513e0     LIBCMTD:lconv.obj
 0003:000093f0       __timezone                 004513f0     LIBCMTD:timeset.obj
 0003:000093f4       __daylight                 004513f4     LIBCMTD:timeset.obj
 0003:000093f8       __dstbias                  004513f8     LIBCMTD:timeset.obj
 0003:0000947c       __tzname                   0045147c     LIBCMTD:timeset.obj
 0003:000094a4       __lpdays                   004514a4     LIBCMTD:days.obj
 0003:000094d8       __days                     004514d8     LIBCMTD:days.obj
 0003:00009510       __pow10pos                 00451510     LIBCMTD:constpow.obj
 0003:00009670       __pow10neg                 00451670     LIBCMTD:constpow.obj
 0003:000097d0       ?advinfo@@3PAUADVINFO@@A   004517d0     advscan.obj
 0003:00009fd0       ?CriticalSection@@3U_RTL_CRITICAL_SECTION@@A 00451fd0     advscan.obj
 0003:0000a648       ?exploit@@3PAUEXPLOIT@@A   00452648     advscan.obj
 0003:0000a684       ?loga@@3PAY0IA@DA          00452684     aliaslog.obj
 0003:0000e694       ?Window@@3PAUHWND__@@A     00456694     capture.obj
 0003:0000eba8       ?fDeleteDC@@3P6GHPAUHDC__@@@ZA 00456ba8     loaddlls.obj
 0003:0000ebac       ?fModule32First@@3P6GHPAXPAUtagMODULEENTRY32@@@ZA 00456bac     loaddlls.obj
 0003:0000ebb0       ?fInternetGetConnectedStateEx@@3P6GHPAKPADKK@ZA 00456bb0     loaddlls.obj
 0003:0000ebb4       ?fNetUserDel@@3P6GKPBG0@ZA 00456bb4     loaddlls.obj
 0003:0000ebb8       ?fNetShareDel@@3P6GKPAG0K@ZA 00456bb8     loaddlls.obj
 0003:0000ebbc       ?fSelectObject@@3P6GPAXPAUHDC__@@PAX@ZA 00456bbc     loaddlls.obj
 0003:0000ebc0       ?fGetKeyState@@3P6GFH@ZA   00456bc0     loaddlls.obj
 0003:0000ebc4       ?fNetUserAdd@@3P6GKPBGKPAEPAK@ZA 00456bc4     loaddlls.obj
 0003:0000ebc8       ?fOpenService@@3P6GPAUSC_HANDLE__@@PAU1@PBDK@ZA 00456bc8     loaddlls.obj
 0003:0000ebcc       ?fStartService@@3P6GHPAUSC_HANDLE__@@KPAPBD@ZA 00456bcc     loaddlls.obj
 0003:0000ebd0       ?fIsValidSecurityDescriptor@@3P6GHPAX@ZA 00456bd0     loaddlls.obj
 0003:0000ebd4       ?__fWSAFDIsSet@@3P6GHIPAUfd_set@@@ZA 00456bd4     loaddlls.obj
 0003:0000ebd8       ?fGetDiskFreeSpaceEx@@3P6GHPBDPAT_ULARGE_INTEGER@@11@ZA 00456bd8     loaddlls.obj
 0003:0000ebdc       ?fNetShareAdd@@3P6GKPAGKPAEPAK@ZA 00456bdc     loaddlls.obj
 0003:0000ebe0       ?fCloseServiceHandle@@3P6GHPAUSC_HANDLE__@@@ZA 00456be0     loaddlls.obj
 0003:0000ebe4       ?fInternetCrackUrl@@3P6GHPBDKKPAUURL_COMPONENTSA@@@ZA 00456be4     loaddlls.obj
 0003:0000ebe8       ?fRegQueryValueEx@@3P6GJPAUHKEY__@@PBDPAK2PAE2@ZA 00456be8     loaddlls.obj
 0003:0000ebec       ?fInternetOpenUrl@@3P6GPAXPAXPBD1KKPAK@ZA 00456bec     loaddlls.obj
 0003:0000ebf0       ?fQueryPerformanceFrequency@@3P6GHPAT_LARGE_INTEGER@@@ZA 00456bf0     loaddlls.obj
 0003:0000ebf4       ?fInternetReadFile@@3P6GHPAX0KPAK@ZA 00456bf4     loaddlls.obj
 0003:0000ebf8       ?fWSAAsyncSelect@@3P6GHIPAUHWND__@@IJ@ZA 00456bf8     loaddlls.obj
 0003:0000ebfc       ?fProcess32Next@@3P6GHPAXPAUtagPROCESSENTRY32@@@ZA 00456bfc     loaddlls.obj
 0003:0000ec00       ?fIcmpSendEcho@@3P6GKPAXK0GPAUip_option_information@@0KK@ZA 00456c00     loaddlls.obj
 0003:0000ec04       ?fDnsFlushResolverCache@@3P6GHXZA 00456c04     loaddlls.obj
 0003:0000ec08       ?fQueryPerformanceCounter@@3P6GHPAT_LARGE_INTEGER@@@ZA 00456c08     loaddlls.obj
 0003:0000ec0c       ?fGetDIBColorTable@@3P6GIPAUHDC__@@IIPAUtagRGBQUAD@@@ZA 00456c0c     loaddlls.obj
 0003:0000ec10       ?fntohl@@3P6GKK@ZA         00456c10     loaddlls.obj
 0003:0000ec14       ?fNetRemoteTOD@@3P6GKPBGPAPAE@ZA 00456c14     loaddlls.obj
 0003:0000ec18       ?fntohs@@3P6GGG@ZA         00456c18     loaddlls.obj
 0003:0000ec1c       ?fWNetCancelConnection2W@@3P6GKPBGKH@ZA 00456c1c     loaddlls.obj
 0003:0000ec20       ?fInternetGetConnectedState@@3P6GHPAKK@ZA 00456c20     loaddlls.obj
 0003:0000ec24       ?fExitWindowsEx@@3P6GHIK@ZA 00456c24     loaddlls.obj
 0003:0000ec28       ?fNetShareEnum@@3P6GKPAGKPAPAEKPAK22@ZA 00456c28     loaddlls.obj
 0003:0000ec2c       ?fControlService@@3P6GHPAUSC_HANDLE__@@KPAU_SERVICE_STATUS@@@ZA 00456c2c     loaddlls.obj
 0003:0000ec30       ?fDeleteService@@3P6GHPAUSC_HANDLE__@@@ZA 00456c30     loaddlls.obj
 0003:0000ec34       ?fcapCreateCaptureWindow@@3P6GPAUHWND__@@PBDKHHHHPAU1@H@ZA 00456c34     loaddlls.obj
 0003:0000ec38       ?fgetpeername@@3P6GHIPAUsockaddr@@PAH@ZA 00456c38     loaddlls.obj
 0003:0000ec3c       ?fWSACleanup@@3P6GHXZA     00456c3c     loaddlls.obj
 0003:0000ec40       ?fDeleteObject@@3P6GHPAX@ZA 00456c40     loaddlls.obj
 0003:0000ec44       ?fNetUserEnum@@3P6GKPBGKKPAPAEKPAK22@ZA 00456c44     loaddlls.obj
 0003:0000ec48       ?fRegDeleteValue@@3P6GJPAUHKEY__@@PBD@ZA 00456c48     loaddlls.obj
 0003:0000ec4c       ?fGetLogicalDriveStrings@@3P6GKKPAD@ZA 00456c4c     loaddlls.obj
 0003:0000ec50       ?fShellExecute@@3P6GPAUHINSTANCE__@@PAUHWND__@@PBD111H@ZA 00456c50     loaddlls.obj
 0003:0000ec54       ?fWSAStartup@@3P6GHGPAUWSAData@@@ZA 00456c54     loaddlls.obj
 0003:0000ec58       ?fHttpSendRequest@@3P6GHPAXPBDK0K@ZA 00456c58     loaddlls.obj
 0003:0000ec5c       ?fNetScheduleJobAdd@@3P6GKPBGPAEPAK@ZA 00456c5c     loaddlls.obj
 0003:0000ec64       ?fSQLAllocHandle@@3P6GFFPAXPAPAX@ZA 00456c64     loaddlls.obj
 0003:0000ec68       ?fGetForegroundWindow@@3P6GPAUHWND__@@XZA 00456c68     loaddlls.obj
 0003:0000ec6c       ?fIcmpCreateFile@@3P6GPAXXZA 00456c6c     loaddlls.obj
 0003:0000ec70       ?fSQLDisconnect@@3P6GFPAX@ZA 00456c70     loaddlls.obj
 0003:0000ec74       ?fWSAGetLastError@@3P6GHXZA 00456c74     loaddlls.obj
 0003:0000ec78       ?fInternetOpen@@3P6GPAXPBDK00K@ZA 00456c78     loaddlls.obj
 0003:0000ec7c       ?fGetWindowText@@3P6GHPAUHWND__@@PADH@ZA 00456c7c     loaddlls.obj
 0003:0000ec80       ?fIsWindow@@3P6GHPAUHWND__@@@ZA 00456c80     loaddlls.obj
 0003:0000ec84       ?fgetsockname@@3P6GHIPAUsockaddr@@PAH@ZA 00456c84     loaddlls.obj
 0003:0000ec88       ?fconnect@@3P6GHIPBUsockaddr@@H@ZA 00456c88     loaddlls.obj
 0003:0000ec8c       ?fWSAIoctl@@3P6GHIKPAXK0KPAKPAU_OVERLAPPED@@P6GXKK2K@Z@ZA 00456c8c     loaddlls.obj
 0003:0000ec90       ?ih@@3PAXA                 00456c90     loaddlls.obj
 0003:0000ec94       ?fRegCreateKeyEx@@3P6GJPAUHKEY__@@PBDKPADKKPAU_SECURITY_ATTRIBUTES@@PAPAU1@PAK@ZA 00456c94     loaddlls.obj
 0003:0000ec98       ?fgethostbyaddr@@3P6GPAUhostent@@PBDHH@ZA 00456c98     loaddlls.obj
 0003:0000ec9c       ?fLookupPrivilegeValue@@3P6GHPBD0PAU_LUID@@@ZA 00456c9c     loaddlls.obj
 0003:0000eca0       ?fEnumServicesStatus@@3P6GHPAUSC_HANDLE__@@KKPAU_ENUM_SERVICE_STATUSA@@KPAK22@ZA 00456ca0     loaddlls.obj
 0003:0000eca4       ?fSQLExecDirect@@3P6GFPAXPAEJ@ZA 00456ca4     loaddlls.obj
 0003:0000eca8       ?fHttpOpenRequest@@3P6GPAXPAXPBD111PAPBDKPAK@ZA 00456ca8     loaddlls.obj
 0003:0000ecac       ?fGetAsyncKeyState@@3P6GFH@ZA 00456cac     loaddlls.obj
 0003:0000ecb0       ?fOpenClipboard@@3P6GHPAUHWND__@@@ZA 00456cb0     loaddlls.obj
 0003:0000ecb4       ?fInternetConnect@@3P6GPAXPAXPBDG11KKPAK@ZA 00456cb4     loaddlls.obj
 0003:0000ecb8       ?frecvfrom@@3P6GHIPADHHPAUsockaddr@@PAH@ZA 00456cb8     loaddlls.obj
 0003:0000ecbc       ?fRegCloseKey@@3P6GJPAUHKEY__@@@ZA 00456cbc     loaddlls.obj
 0003:0000ecc0       ?fsetsockopt@@3P6GHIHHPBDH@ZA 00456cc0     loaddlls.obj
 0003:0000ecc4       ?fOpenProcessToken@@3P6GHPAXKPAPAX@ZA 00456cc4     loaddlls.obj
 0003:0000ecc8       ?fselect@@3P6GHHPAUfd_set@@00PBUtimeval@@@ZA 00456cc8     loaddlls.obj
 0003:0000eccc       ?fCreateDC@@3P6GPAUHDC__@@PBD00PBU_devicemodeA@@@ZA 00456ccc     loaddlls.obj
 0003:0000ecd0       ?fGetClipboardData@@3P6GPAXI@ZA 00456cd0     loaddlls.obj
 0003:0000ecd4       ?fOpenSCManager@@3P6GPAUSC_HANDLE__@@PBD0K@ZA 00456cd4     loaddlls.obj
 0003:0000ecd8       ?fDnsFlushResolverCacheEntry_A@@3P6GJPBD@ZA 00456cd8     loaddlls.obj
 0003:0000ecdc       ?fhtonl@@3P6GKK@ZA         00456cdc     loaddlls.obj
 0003:0000ece0       ?fhtons@@3P6GGG@ZA         00456ce0     loaddlls.obj
 0003:0000ece4       ?fProcess32First@@3P6GHPAXPAUtagPROCESSENTRY32@@@ZA 00456ce4     loaddlls.obj
 0003:0000ece8       ?fGetDeviceCaps@@3P6GHPAUHDC__@@H@ZA 00456ce8     loaddlls.obj
 0003:0000ecec       ?fFindWindow@@3P6GPAUHWND__@@PBD0@ZA 00456cec     loaddlls.obj
 0003:0000ecf0       ?fNetMessageBufferSend@@3P6GKPBG00PAEK@ZA 00456cf0     loaddlls.obj
 0003:0000ecf4       ?fgethostname@@3P6GHPADH@ZA 00456cf4     loaddlls.obj
 0003:0000ecf8       ?frecv@@3P6GHIPADHH@ZA     00456cf8     loaddlls.obj
 0003:0000ecfc       ?fSQLFreeHandle@@3P6GFFPAX@ZA 00456cfc     loaddlls.obj
 0003:0000ed00       ?fCreateToolhelp32Snapshot@@3P6GPAXKK@ZA 00456d00     loaddlls.obj
 0003:0000ed04       ?fRegSetValueEx@@3P6GJPAUHKEY__@@PBDKKPBEK@ZA 00456d04     loaddlls.obj
 0003:0000ed08       ?flisten@@3P6GHIH@ZA       00456d08     loaddlls.obj
 0003:0000ed0c       ?fbind@@3P6GHIPBUsockaddr@@H@ZA 00456d0c     loaddlls.obj
 0003:0000ed10       ?fcapGetDriverDescription@@3P6GHGPADH0H@ZA 00456d10     loaddlls.obj
 0003:0000ed14       ?fInternetCloseHandle@@3P6GHPAX@ZA 00456d14     loaddlls.obj
 0003:0000ed18       ?fRegisterServiceProcess@@3P6GKKK@ZA 00456d18     loaddlls.obj
 0003:0000ed1c       ?fSQLDriverConnect@@3P6GFPAXPAUHWND__@@PAEF2FPAFG@ZA 00456d1c     loaddlls.obj
 0003:0000ed20       ?finet_addr@@3P6GKPBD@ZA   00456d20     loaddlls.obj
 0003:0000ed24       ?fCreateDIBSection@@3P6GPAUHBITMAP__@@PAUHDC__@@PBUtagBITMAPINFO@@IPAPAXPAXK@ZA 00456d24     loaddlls.obj
 0003:0000ed28       ?fBitBlt@@3P6GHPAUHDC__@@HHHH0HHK@ZA 00456d28     loaddlls.obj
 0003:0000ed2c       ?fCreateCompatibleDC@@3P6GPAUHDC__@@PAU1@@ZA 00456d2c     loaddlls.obj
 0003:0000ed30       ?fsend@@3P6GHIPBDHH@ZA     00456d30     loaddlls.obj
 0003:0000ed34       ?fCloseClipboard@@3P6GHXZA 00456d34     loaddlls.obj
 0003:0000ed38       ?fNetUserGetInfo@@3P6GKPBG0KPAPAE@ZA 00456d38     loaddlls.obj
 0003:0000ed3c       ?fSendMessage@@3P6GJPAUHWND__@@IIJ@ZA 00456d3c     loaddlls.obj
 0003:0000ed40       ?fGetDriveType@@3P6GIPBD@ZA 00456d40     loaddlls.obj
 0003:0000ed44       ?fsendto@@3P6GHIPBDHHPBUsockaddr@@H@ZA 00456d44     loaddlls.obj
 0003:0000ed48       ?fWNetCancelConnection2@@3P6GKPBDKH@ZA 00456d48     loaddlls.obj
 0003:0000ed4c       ?fAdjustTokenPrivileges@@3P6GHPAXHPAU_TOKEN_PRIVILEGES@@K1PAK@ZA 00456d4c     loaddlls.obj
 0003:0000ed50       ?fRegOpenKeyEx@@3P6GJPAUHKEY__@@PBDKKPAPAU1@@ZA 00456d50     loaddlls.obj
 0003:0000ed54       ?fSHChangeNotify@@3P6GXJIPBX0@ZA 00456d54     loaddlls.obj
 0003:0000ed58       ?fDeleteIpNetEntry@@3P6GKPAU_MIB_IPNETROW@@@ZA 00456d58     loaddlls.obj
 0003:0000ed5c       ?fGetIpNetTable@@3P6GKPAU_MIB_IPNETTABLE@@PAKH@ZA 00456d5c     loaddlls.obj
 0003:0000ed60       ?fsocket@@3P6GIHHH@ZA      00456d60     loaddlls.obj
 0003:0000ed64       ?fgethostbyname@@3P6GPAUhostent@@PBD@ZA 00456d64     loaddlls.obj
 0003:0000ed68       ?fSQLSetEnvAttr@@3P6GFPAXJ0J@ZA 00456d68     loaddlls.obj
 0003:0000ed6c       ?finet_ntoa@@3P6GPADUin_addr@@@ZA 00456d6c     loaddlls.obj
 0003:0000ed70       ?fNetApiBufferFree@@3P6GKPAX@ZA 00456d70     loaddlls.obj
 0003:0000ed74       ?faccept@@3P6GIIPAUsockaddr@@PAH@ZA 00456d74     loaddlls.obj
 0003:0000ed78       ?fclosesocket@@3P6GHI@ZA   00456d78     loaddlls.obj
 0003:0000ed7c       ?fioctlsocket@@3P6GHIJPAK@ZA 00456d7c     loaddlls.obj
 0003:0000ed80       ?fWNetAddConnection2W@@3P6GKPAU_NETRESOURCEW@@PBG1K@ZA 00456d80     loaddlls.obj
 0003:0000ed84       ?fWSASocket@@3P6GIHHHPAU_WSAPROTOCOL_INFOA@@IK@ZA 00456d84     loaddlls.obj
 0003:0000ed88       ?fWNetAddConnection2@@3P6GKPAU_NETRESOURCEA@@PBD1K@ZA 00456d88     loaddlls.obj
 0003:0000ed8c       ?fSetErrorMode@@3P6GII@ZA  00456d8c     loaddlls.obj
 0003:0000ed90       ?fDestroyWindow@@3P6GHPAUHWND__@@@ZA 00456d90     loaddlls.obj
 0003:0000ed98       ?fIcmpCloseHandle@@3P6GHPAX@ZA 00456d98     loaddlls.obj
 0003:0000ed9c       ?fSearchPath@@3P6GKPBD00KPADPAPAD@ZA 00456d9c     loaddlls.obj
 0003:0000eda0       ?nokernel32@@3HA           00456da0     loaddlls.obj
 0003:0000eda4       ?nokernel32err@@3KA        00456da4     loaddlls.obj
 0003:0000eda8       ?nouser32@@3HA             00456da8     loaddlls.obj
 0003:0000edac       ?nouser32err@@3KA          00456dac     loaddlls.obj
 0003:0000edb0       ?noadvapi32@@3HA           00456db0     loaddlls.obj
 0003:0000edb4       ?noadvapi32err@@3KA        00456db4     loaddlls.obj
 0003:0000edb8       ?nogdi32@@3HA              00456db8     loaddlls.obj
 0003:0000edbc       ?nogdi32err@@3KA           00456dbc     loaddlls.obj
 0003:0000edc0       ?nows2_32@@3HA             00456dc0     loaddlls.obj
 0003:0000edc4       ?nows2_32err@@3KA          00456dc4     loaddlls.obj
 0003:0000edc8       ?nowininet@@3HA            00456dc8     loaddlls.obj
 0003:0000edcc       ?nowinineterr@@3KA         00456dcc     loaddlls.obj
 0003:0000edd0       ?noicmp@@3HA               00456dd0     loaddlls.obj
 0003:0000edd4       ?noicmperr@@3KA            00456dd4     loaddlls.obj
 0003:0000edd8       ?nonetapi32@@3HA           00456dd8     loaddlls.obj
 0003:0000eddc       ?nonetapi32err@@3KA        00456ddc     loaddlls.obj
 0003:0000ede0       ?nodnsapi@@3HA             00456de0     loaddlls.obj
 0003:0000ede4       ?nodnsapierr@@3KA          00456de4     loaddlls.obj
 0003:0000ede8       ?noiphlpapi@@3HA           00456de8     loaddlls.obj
 0003:0000edec       ?noiphlpapierr@@3KA        00456dec     loaddlls.obj
 0003:0000edf0       ?nompr@@3HA                00456df0     loaddlls.obj
 0003:0000edf4       ?nomprerr@@3KA             00456df4     loaddlls.obj
 0003:0000edf8       ?noshell32@@3HA            00456df8     loaddlls.obj
 0003:0000edfc       ?noshell32err@@3KA         00456dfc     loaddlls.obj
 0003:0000ee00       ?noodbc32@@3HA             00456e00     loaddlls.obj
 0003:0000ee04       ?noodbc32err@@3KA          00456e04     loaddlls.obj
 0003:0000ee08       ?noavicap32@@3HA           00456e08     loaddlls.obj
 0003:0000ee0c       ?noavicap32err@@3KA        00456e0c     loaddlls.obj
 0003:0000f930       ?aliases@@3PAUALIAS@@A     00457930     rBot.obj
 0003:000104b0       ?threads@@3PAUTHREAD@@A    004584b0     rBot.obj
 0003:000338b4       ?started@@3KA              0047b8b4     rBot.obj
 0003:000338b8       ?mainirc@@3UIRC@@A         0047b8b8     rBot.obj
 0003:00033a20       ?rndfilename@@3HA          0047ba20     rBot.obj
 0003:00033a24       ?serverpass@@3PADA         0047ba24     rBot.obj
 0003:00033a28       ?server2@@3PADA            0047ba28     rBot.obj
 0003:00033a2c       ?channel2@@3PADA           0047ba2c     rBot.obj
 0003:00033a30       ?chanpass2@@3PADA          0047ba30     rBot.obj
 0003:00033a34       ?success@@3HA              0047ba34     rBot.obj
 0003:00033a38       ?current_version@@3HA      0047ba38     rBot.obj
 0003:00033a60       ?pipe_Hproc@@3PAXA         0047ba60     remotecmd.obj
 0003:00033a64       ?pipe_read@@3PAXA          0047ba64     remotecmd.obj
 0003:00033a6c       ?hChildInWrDupe@@3PAXA     0047ba6c     remotecmd.obj
 0003:00033a70       ?pipe_write@@3PAXA         0047ba70     remotecmd.obj
 0003:00033a74       ?pipe_chan@@3PADA          0047ba74     remotecmd.obj
 0003:00033aa8       ?pipesock@@3IA             0047baa8     remotecmd.obj
 0003:00033ac4       ?DebugFlag@@3HA            0047bac4     rlogind.obj
 0003:00033ac8       ?InsecureFlag@@3HA         0047bac8     rlogind.obj
 0003:00033acc       ?LogFlag@@3HA              0047bacc     rlogind.obj
 0003:00033cf8       ?xorhelp@@3DA              0047bcf8     shellcode.obj
 0003:00033d78       ?clog@std@@3V?$basic_ostream@DU?$char_traits@D@std@@@1@A 0047bd78     libcpmtd:iostream.obj
 0003:00033e08       ?cout@std@@3V?$basic_ostream@DU?$char_traits@D@std@@@1@A 0047be08     libcpmtd:iostream.obj
 0003:00033e98       ?cin@std@@3V?$basic_istream@DU?$char_traits@D@std@@@1@A 0047be98     libcpmtd:iostream.obj
 0003:00033f30       ?cerr@std@@3V?$basic_ostream@DU?$char_traits@D@std@@@1@A 0047bf30     libcpmtd:iostream.obj
 0003:00033f68       ?wcerr@std@@3V?$basic_ostream@GU?$char_traits@G@std@@@1@A 0047bf68     libcpmtd:wiostrea.obj
 0003:00033fa8       ?wclog@std@@3V?$basic_ostream@GU?$char_traits@G@std@@@1@A 0047bfa8     libcpmtd:wiostrea.obj
 0003:00033fe0       ?wcin@std@@3V?$basic_istream@GU?$char_traits@G@std@@@1@A 0047bfe0     libcpmtd:wiostrea.obj
 0003:000340d0       ?wcout@std@@3V?$basic_ostream@GU?$char_traits@G@std@@@1@A 0047c0d0     libcpmtd:wiostrea.obj
 0003:0003417c       ?_Index@ios_base@std@@0HA  0047c17c     libcpmtd:ios.obj
 0003:000341b4       ?_Clocptr@_Locimp@locale@std@@0PAV123@A 0047c1b4     libcpmtd:locale0.obj
 0003:000341b8       ?_Global@_Locimp@locale@std@@0PAV123@A 0047c1b8     libcpmtd:locale0.obj
 0003:000341bc       ?_Id_cnt@id@locale@std@@0HA 0047c1bc     libcpmtd:locale0.obj
 0003:000341c0       ?_Cltab@?$ctype@D@std@@0PBFB 0047c1c0     libcpmtd:locale0.obj
 0003:000341e4       __cflush                   0047c1e4     LIBCMTD:_file.obj
 0003:000341fc       ___fastflag                0047c1fc     LIBCMTD:fpinit.obj
 0003:00034200       __adjust_fdiv              0047c200     LIBCMTD:fpinit.obj
 0003:00034204       __umaskval                 0047c204     LIBCMTD:crt0dat.obj
 0003:00034208       __osver                    0047c208     LIBCMTD:crt0dat.obj
 0003:0003420c       __winver                   0047c20c     LIBCMTD:crt0dat.obj
 0003:00034210       __winmajor                 0047c210     LIBCMTD:crt0dat.obj
 0003:00034214       __winminor                 0047c214     LIBCMTD:crt0dat.obj
 0003:00034218       ___argc                    0047c218     LIBCMTD:crt0dat.obj
 0003:0003421c       ___argv                    0047c21c     LIBCMTD:crt0dat.obj
 0003:00034220       ___wargv                   0047c220     LIBCMTD:crt0dat.obj
 0003:00034224       __environ                  0047c224     LIBCMTD:crt0dat.obj
 0003:00034228       ___initenv                 0047c228     LIBCMTD:crt0dat.obj
 0003:0003422c       __wenviron                 0047c22c     LIBCMTD:crt0dat.obj
 0003:00034230       ___winitenv                0047c230     LIBCMTD:crt0dat.obj
 0003:00034234       __pgmptr                   0047c234     LIBCMTD:crt0dat.obj
 0003:00034238       __wpgmptr                  0047c238     LIBCMTD:crt0dat.obj
 0003:0003423c       __exitflag                 0047c23c     LIBCMTD:crt0dat.obj
 0003:00034240       __C_Termination_Done       0047c240     LIBCMTD:crt0dat.obj
 0003:00034244       __C_Exit_Done              0047c244     LIBCMTD:crt0dat.obj
 0003:0003424c       __aenvptr                  0047c24c     LIBCMTD:wincrt0.obj
 0003:00034250       __wenvptr                  0047c250     LIBCMTD:wincrt0.obj
 0003:00034254       ___error_mode              0047c254     LIBCMTD:wincrt0.obj
 0003:000342c4       ___lc_handle               0047c2c4     LIBCMTD:nlsdata2.obj
 0003:000342dc       ___lc_codepage             0047c2dc     LIBCMTD:nlsdata2.obj
 0003:000342e0       ___lc_collate_cp           0047c2e0     LIBCMTD:nlsdata2.obj
 0003:000342e8       __commode                  0047c2e8     LIBCMTD:ncommode.obj
 0003:000342ec       __newmode                  0047c2ec     LIBCMTD:_newmode.obj
 0003:000342f0       ?_pnhHeap@@3P6AHI@ZA       0047c2f0     LIBCMTD:handler.obj
 0003:000342f8       __stdbuf                   0047c2f8     LIBCMTD:_sftbuf.obj
 0003:0003440c       __adbgmsg                  0047c40c     LIBCMTD:crt0msg.obj
 0003:00034414       ___lc_time_intl            0047c414     LIBCMTD:inittime.obj
 0003:00034430       ___lc_id                   0047c430     LIBCMTD:nlsdata3.obj
 0003:000344a4       ___lconv_static_null       0047c4a4     LIBCMTD:lconv.obj
 0003:000344ac       __fmode                    0047c4ac     LIBCMTD:txtmode.obj
 0003:00034578       ??_B?1???id@?$ctype@G@std@@$D@@9@51 0047c578     <common>
 0003:0003457c       ?_Stinit@?1??_Init@?$basic_filebuf@GU?$char_traits@G@std@@@std@@IAEXPAU_iobuf@@W4_Initfl@23@@Z@4HA 0047c57c     <common>
 0003:00034580       ??_B?1???id@?$collate@D@std@@$D@@9@51 0047c580     <common>
 0003:00034584       ?_Stinit@?1??_Init@?$basic_filebuf@DU?$char_traits@D@std@@@std@@IAEXPAU_iobuf@@W4_Initfl@23@@Z@4HA 0047c584     <common>
 0003:00034588       ?_Stz@?$fpos@H@std@@0HA    0047c588     <common>
 0003:0003458c       ___alternate_form          0047c58c     <common>
 0003:00034590       ___no_lead_zeros           0047c590     <common>
 0003:00034594       ___mbcodepage              0047c594     <common>
 0003:000345a0       ___mbulinfo                0047c5a0     <common>
 0003:000345ac       ___ismbcodepage            0047c5ac     <common>
 0003:000345c0       __mbcasemap                0047c5c0     <common>
 0003:000346c0       __mbctype                  0047c6c0     <common>
 0003:000347c4       ___mblcid                  0047c7c4     <common>
 0003:000347c8       ___sbh_sizeHeaderList      0047c7c8     <common>
 0003:000347cc       ___sbh_indGroupDefer       0047c7cc     <common>
 0003:000347d0       ___sbh_pHeaderScan         0047c7d0     <common>
 0003:000347d4       ___sbh_pHeaderDefer        0047c7d4     <common>
 0003:000347d8       ___sbh_cntHeaderList       0047c7d8     <common>
 0003:000347dc       ___sbh_pHeaderList         0047c7dc     <common>
 0003:000347e0       __crtheap                  0047c7e0     <common>
 0003:00034800       ___pioinfo                 0047c800     <common>
 0003:00034900       __nhandle                  0047c900     <common>
 0003:00034904       __pfnReportHook            0047c904     <common>
 0003:00034908       ___setlc_active            0047c908     <common>
 0003:0003490c       ___unguarded_readlc_active 0047c90c     <common>
 0003:00034910       __acmdln                   0047c910     <common>
 0003:00034914       ___env_initialized         0047c914     <common>
 0003:00034918       ___mbctype_initialized     0047c918     <common>
 0003:0003491c       ___onexitend               0047c91c     <common>
 0003:00034920       ___onexitbegin             0047c920     <common>
 0003:00034924       __pfnDumpClient            0047c924     <common>
 0003:00034928       ___piob                    0047c928     <common>
 0003:00034940       __bufin                    0047c940     <common>
 0003:00035940       __nstream                  0047d940     <common>
 0004:00000000       __IMPORT_DESCRIPTOR_WININET 0047e000     wininet:WININET.dll
 0004:00000014       __IMPORT_DESCRIPTOR_KERNEL32 0047e014     kernel32:KERNEL32.dll
 0004:00000028       __NULL_IMPORT_DESCRIPTOR   0047e028     wininet:WININET.dll
 0004:00000254       __imp__GetExitCodeProcess@8 0047e254     kernel32:KERNEL32.dll
 0004:00000258       __imp__SetEnvironmentVariableA@8 0047e258     kernel32:KERNEL32.dll
 0004:0000025c       __imp__CompareStringW@24   0047e25c     kernel32:KERNEL32.dll
 0004:00000260       __imp__CompareStringA@24   0047e260     kernel32:KERNEL32.dll
 0004:00000264       __imp__GetLocaleInfoW@16   0047e264     kernel32:KERNEL32.dll
 0004:00000268       __imp__GetTimeZoneInformation@4 0047e268     kernel32:KERNEL32.dll
 0004:0000026c       __imp__SetEndOfFile@4      0047e26c     kernel32:KERNEL32.dll
 0004:00000270       __imp__GetLastError@0      0047e270     kernel32:KERNEL32.dll
 0004:00000274       __imp__Sleep@4             0047e274     kernel32:KERNEL32.dll
 0004:00000278       __imp__CreateThread@24     0047e278     kernel32:KERNEL32.dll
 0004:0000027c       __imp__GetModuleFileNameA@12 0047e27c     kernel32:KERNEL32.dll
 0004:00000280       __imp__ExitThread@4        0047e280     kernel32:KERNEL32.dll
 0004:00000284       __imp__LeaveCriticalSection@4 0047e284     kernel32:KERNEL32.dll
 0004:00000288       __imp__EnterCriticalSection@4 0047e288     kernel32:KERNEL32.dll
 0004:0000028c       __imp__GetTickCount@0      0047e28c     kernel32:KERNEL32.dll
 0004:00000290       __imp__InitializeCriticalSectionAndSpinCount@8 0047e290     kernel32:KERNEL32.dll
 0004:00000294       __imp__DeleteCriticalSection@4 0047e294     kernel32:KERNEL32.dll
 0004:00000298       __imp__GetLocalTime@4      0047e298     kernel32:KERNEL32.dll
 0004:0000029c       __imp__SetConsoleCtrlHandler@8 0047e29c     kernel32:KERNEL32.dll
 0004:000002a0       __imp__GetStdHandle@4      0047e2a0     kernel32:KERNEL32.dll
 0004:000002a4       __imp__AllocConsole@0      0047e2a4     kernel32:KERNEL32.dll
 0004:000002a8       __imp__CloseHandle@4       0047e2a8     kernel32:KERNEL32.dll
 0004:000002ac       __imp__WriteFile@20        0047e2ac     kernel32:KERNEL32.dll
 0004:000002b0       __imp__CreateFileA@28      0047e2b0     kernel32:KERNEL32.dll
 0004:000002b4       __imp__QueryPerformanceCounter@4 0047e2b4     kernel32:KERNEL32.dll
 0004:000002b8       __imp__QueryPerformanceFrequency@4 0047e2b8     kernel32:KERNEL32.dll
 0004:000002bc       __imp__ExitProcess@4       0047e2bc     kernel32:KERNEL32.dll
 0004:000002c0       __imp__CreateProcessA@40   0047e2c0     kernel32:KERNEL32.dll
 0004:000002c4       __imp__FindClose@4         0047e2c4     kernel32:KERNEL32.dll
 0004:000002c8       __imp__FindNextFileA@8     0047e2c8     kernel32:KERNEL32.dll
 0004:000002cc       __imp__FindFirstFileA@8    0047e2cc     kernel32:KERNEL32.dll
 0004:000002d0       __imp__GetTimeFormatA@24   0047e2d0     kernel32:KERNEL32.dll
 0004:000002d4       __imp__GetDateFormatA@24   0047e2d4     kernel32:KERNEL32.dll
 0004:000002d8       __imp__GetFileSize@8       0047e2d8     kernel32:KERNEL32.dll
 0004:000002dc       __imp__GetFileAttributesA@4 0047e2dc     kernel32:KERNEL32.dll
 0004:000002e0       __imp__FileTimeToSystemTime@8 0047e2e0     kernel32:KERNEL32.dll
 0004:000002e4       __imp__FileTimeToLocalFileTime@8 0047e2e4     kernel32:KERNEL32.dll
 0004:000002e8       __imp__ReadFile@20         0047e2e8     kernel32:KERNEL32.dll
 0004:000002ec       __imp__SetFilePointer@16   0047e2ec     kernel32:KERNEL32.dll
 0004:000002f0       __imp__GetSystemDirectoryA@8 0047e2f0     kernel32:KERNEL32.dll
 0004:000002f4       __imp__LoadLibraryA@4      0047e2f4     kernel32:KERNEL32.dll
 0004:000002f8       __imp__GetProcAddress@8    0047e2f8     kernel32:KERNEL32.dll
 0004:000002fc       __imp__GetModuleHandleA@4  0047e2fc     kernel32:KERNEL32.dll
 0004:00000300       __imp__FormatMessageA@28   0047e300     kernel32:KERNEL32.dll
 0004:00000304       __imp__GlobalUnlock@4      0047e304     kernel32:KERNEL32.dll
 0004:00000308       __imp__GlobalLock@4        0047e308     kernel32:KERNEL32.dll
 0004:0000030c       __imp__UnmapViewOfFile@4   0047e30c     kernel32:KERNEL32.dll
 0004:00000310       __imp__MapViewOfFile@20    0047e310     kernel32:KERNEL32.dll
 0004:00000314       __imp__CreateFileMappingA@24 0047e314     kernel32:KERNEL32.dll
 0004:00000318       __imp__SetFileTime@16      0047e318     kernel32:KERNEL32.dll
 0004:0000031c       __imp__GetFileTime@16      0047e31c     kernel32:KERNEL32.dll
 0004:00000320       __imp__ExpandEnvironmentStringsA@12 0047e320     kernel32:KERNEL32.dll
 0004:00000324       __imp__SetFileAttributesA@8 0047e324     kernel32:KERNEL32.dll
 0004:00000328       __imp__GetTempPathA@8      0047e328     kernel32:KERNEL32.dll
 0004:0000032c       __imp__WideCharToMultiByte@32 0047e32c     kernel32:KERNEL32.dll
 0004:00000330       __imp__MultiByteToWideChar@24 0047e330     kernel32:KERNEL32.dll
 0004:00000334       __imp__GetComputerNameA@8  0047e334     kernel32:KERNEL32.dll
 0004:00000338       __imp__GetCurrentProcess@0 0047e338     kernel32:KERNEL32.dll
 0004:0000033c       __imp__TerminateProcess@8  0047e33c     kernel32:KERNEL32.dll
 0004:00000340       __imp__OpenProcess@12      0047e340     kernel32:KERNEL32.dll
 0004:00000344       __imp__DeleteFileA@4       0047e344     kernel32:KERNEL32.dll
 0004:00000348       __imp__GetCurrentProcessId@0 0047e348     kernel32:KERNEL32.dll
 0004:0000034c       __imp__CopyFileA@12        0047e34c     kernel32:KERNEL32.dll
 0004:00000350       __imp__WaitForSingleObject@8 0047e350     kernel32:KERNEL32.dll
 0004:00000354       __imp__CreateMutexA@12     0047e354     kernel32:KERNEL32.dll
 0004:00000358       __imp__MoveFileA@8         0047e358     kernel32:KERNEL32.dll
 0004:0000035c       __imp__TerminateThread@8   0047e35c     kernel32:KERNEL32.dll
 0004:00000360       __imp__PeekNamedPipe@24    0047e360     kernel32:KERNEL32.dll
 0004:00000364       __imp__DuplicateHandle@28  0047e364     kernel32:KERNEL32.dll
 0004:00000368       __imp__CreatePipe@16       0047e368     kernel32:KERNEL32.dll
 0004:0000036c       __imp__GetLocaleInfoA@16   0047e36c     kernel32:KERNEL32.dll
 0004:00000370       __imp__GetVersionExA@4     0047e370     kernel32:KERNEL32.dll
 0004:00000374       __imp__GetLogicalDrives@0  0047e374     kernel32:KERNEL32.dll
 0004:00000378       __imp__WaitForMultipleObjects@16 0047e378     kernel32:KERNEL32.dll
 0004:0000037c       __imp__GenerateConsoleCtrlEvent@8 0047e37c     kernel32:KERNEL32.dll
 0004:00000380       __imp__InitializeCriticalSection@4 0047e380     kernel32:KERNEL32.dll
 0004:00000384       __imp__InterlockedExchange@8 0047e384     kernel32:KERNEL32.dll
 0004:00000388       __imp__InterlockedDecrement@4 0047e388     kernel32:KERNEL32.dll
 0004:0000038c       __imp__InterlockedIncrement@4 0047e38c     kernel32:KERNEL32.dll
 0004:00000390       __imp__SetStdHandle@8      0047e390     kernel32:KERNEL32.dll
 0004:00000394       __imp__GetFileType@4       0047e394     kernel32:KERNEL32.dll
 0004:00000398       __imp__IsBadWritePtr@8     0047e398     kernel32:KERNEL32.dll
 0004:0000039c       __imp__IsBadReadPtr@8      0047e39c     kernel32:KERNEL32.dll
 0004:000003a0       __imp__HeapValidate@12     0047e3a0     kernel32:KERNEL32.dll
 0004:000003a4       __imp__RtlUnwind@16        0047e3a4     kernel32:KERNEL32.dll
 0004:000003a8       __imp__GetStartupInfoA@4   0047e3a8     kernel32:KERNEL32.dll
 0004:000003ac       __imp__GetCommandLineA@0   0047e3ac     kernel32:KERNEL32.dll
 0004:000003b0       __imp__GetVersion@0        0047e3b0     kernel32:KERNEL32.dll
 0004:000003b4       __imp__RaiseException@16   0047e3b4     kernel32:KERNEL32.dll
 0004:000003b8       __imp__FatalAppExitA@8     0047e3b8     kernel32:KERNEL32.dll
 0004:000003bc       __imp__DebugBreak@0        0047e3bc     kernel32:KERNEL32.dll
 0004:000003c0       __imp__OutputDebugStringA@4 0047e3c0     kernel32:KERNEL32.dll
 0004:000003c4       __imp__GetCurrentThreadId@0 0047e3c4     kernel32:KERNEL32.dll
 0004:000003c8       __imp__TlsSetValue@8       0047e3c8     kernel32:KERNEL32.dll
 0004:000003cc       __imp__TlsAlloc@0          0047e3cc     kernel32:KERNEL32.dll
 0004:000003d0       __imp__TlsFree@4           0047e3d0     kernel32:KERNEL32.dll
 0004:000003d4       __imp__SetLastError@4      0047e3d4     kernel32:KERNEL32.dll
 0004:000003d8       __imp__TlsGetValue@4       0047e3d8     kernel32:KERNEL32.dll
 0004:000003dc       __imp__GetCurrentThread@0  0047e3dc     kernel32:KERNEL32.dll
 0004:000003e0       __imp__SetHandleCount@4    0047e3e0     kernel32:KERNEL32.dll
 0004:000003e4       __imp__HeapAlloc@12        0047e3e4     kernel32:KERNEL32.dll
 0004:000003e8       __imp__HeapReAlloc@16      0047e3e8     kernel32:KERNEL32.dll
 0004:000003ec       __imp__HeapFree@12         0047e3ec     kernel32:KERNEL32.dll
 0004:000003f0       __imp__HeapDestroy@4       0047e3f0     kernel32:KERNEL32.dll
 0004:000003f4       __imp__HeapCreate@12       0047e3f4     kernel32:KERNEL32.dll
 0004:000003f8       __imp__VirtualFree@12      0047e3f8     kernel32:KERNEL32.dll
 0004:000003fc       __imp__VirtualAlloc@16     0047e3fc     kernel32:KERNEL32.dll
 0004:00000400       __imp__LCMapStringA@24     0047e400     kernel32:KERNEL32.dll
 0004:00000404       __imp__LCMapStringW@24     0047e404     kernel32:KERNEL32.dll
 0004:00000408       __imp__GetCPInfo@8         0047e408     kernel32:KERNEL32.dll
 0004:0000040c       __imp__GetACP@0            0047e40c     kernel32:KERNEL32.dll
 0004:00000410       __imp__GetOEMCP@0          0047e410     kernel32:KERNEL32.dll
 0004:00000414       __imp__UnhandledExceptionFilter@4 0047e414     kernel32:KERNEL32.dll
 0004:00000418       __imp__FreeEnvironmentStringsA@4 0047e418     kernel32:KERNEL32.dll
 0004:0000041c       __imp__FreeEnvironmentStringsW@4 0047e41c     kernel32:KERNEL32.dll
 0004:00000420       __imp__GetEnvironmentStrings@0 0047e420     kernel32:KERNEL32.dll
 0004:00000424       __imp__GetEnvironmentStringsW@0 0047e424     kernel32:KERNEL32.dll
 0004:00000428       __imp__FlushFileBuffers@4  0047e428     kernel32:KERNEL32.dll
 0004:0000042c       __imp__SetUnhandledExceptionFilter@4 0047e42c     kernel32:KERNEL32.dll
 0004:00000430       __imp__IsValidLocale@8     0047e430     kernel32:KERNEL32.dll
 0004:00000434       __imp__IsValidCodePage@4   0047e434     kernel32:KERNEL32.dll
 0004:00000438       __imp__EnumSystemLocalesA@8 0047e438     kernel32:KERNEL32.dll
 0004:0000043c       __imp__GetUserDefaultLCID@0 0047e43c     kernel32:KERNEL32.dll
 0004:00000440       __imp__GetStringTypeA@20   0047e440     kernel32:KERNEL32.dll
 0004:00000444       __imp__GetStringTypeW@16   0047e444     kernel32:KERNEL32.dll
 0004:00000448       __imp__IsBadCodePtr@4      0047e448     kernel32:KERNEL32.dll
 0004:0000044c       \177KERNEL32_NULL_THUNK_DATA 0047e44c     kernel32:KERNEL32.dll
 0004:00000450       __imp__InternetCloseHandle@4 0047e450     wininet:WININET.dll
 0004:00000454       __imp__InternetOpenA@20    0047e454     wininet:WININET.dll
 0004:00000458       __imp__InternetConnectA@32 0047e458     wininet:WININET.dll
 0004:0000045c       __imp__HttpOpenRequestA@32 0047e45c     wininet:WININET.dll
 0004:00000460       __imp__HttpSendRequestA@20 0047e460     wininet:WININET.dll
 0004:00000464       __imp__InternetReadFile@16 0047e464     wininet:WININET.dll
 0004:00000468       \177WININET_NULL_THUNK_DATA 0047e468     wininet:WININET.dll

 entry point at        0001:000280b0

 Static symbols

 0001:0001b4ac       _$E30                      0041c4ac f   wildcard.obj
 0001:0001b4bb       _$E29                      0041c4bb f   wildcard.obj
 0001:0001b4cb       _$E17                      0041c4cb f   wildcard.obj
 0001:0001b4da       _$E14                      0041c4da f   wildcard.obj
 0001:0001b4e9       _$E16                      0041c4e9 f   wildcard.obj
 0001:0001b4f9       _$E15                      0041c4f9 f   wildcard.obj
 0001:0001b508       _$E23                      0041c508 f   wildcard.obj
 0001:0001b517       _$E20                      0041c517 f   wildcard.obj
 0001:0001b526       _$E22                      0041c526 f   wildcard.obj
 0001:0001b536       _$E21                      0041c536 f   wildcard.obj
 0001:0001b413       _$E30                      0041c413 f   visit.obj
 0001:0001b422       _$E29                      0041c422 f   visit.obj
 0001:0001b432       _$E17                      0041c432 f   visit.obj
 0001:0001b441       _$E14                      0041c441 f   visit.obj
 0001:0001b450       _$E16                      0041c450 f   visit.obj
 0001:0001b460       _$E15                      0041c460 f   visit.obj
 0001:0001b46f       _$E23                      0041c46f f   visit.obj
 0001:0001b47e       _$E20                      0041c47e f   visit.obj
 0001:0001b48d       _$E22                      0041c48d f   visit.obj
 0001:0001b49d       _$E21                      0041c49d f   visit.obj
 0001:0001b37a       _$E30                      0041c37a f   threads.obj
 0001:0001b389       _$E29                      0041c389 f   threads.obj
 0001:0001b399       _$E17                      0041c399 f   threads.obj
 0001:0001b3a8       _$E14                      0041c3a8 f   threads.obj
 0001:0001b3b7       _$E16                      0041c3b7 f   threads.obj
 0001:0001b3c7       _$E15                      0041c3c7 f   threads.obj
 0001:0001b3d6       _$E23                      0041c3d6 f   threads.obj
 0001:0001b3e5       _$E20                      0041c3e5 f   threads.obj
 0001:0001b3f4       _$E22                      0041c3f4 f   threads.obj
 0001:0001b404       _$E21                      0041c404 f   threads.obj
 0001:0001ad84       _$E30                      0041bd84 f   tftpd.obj
 0001:0001ad93       _$E29                      0041bd93 f   tftpd.obj
 0001:0001ada3       _$E17                      0041bda3 f   tftpd.obj
 0001:0001adb2       _$E14                      0041bdb2 f   tftpd.obj
 0001:0001adc1       _$E16                      0041bdc1 f   tftpd.obj
 0001:0001add1       _$E15                      0041bdd1 f   tftpd.obj
 0001:0001ade0       _$E23                      0041bde0 f   tftpd.obj
 0001:0001adef       _$E20                      0041bdef f   tftpd.obj
 0001:0001adfe       _$E22                      0041bdfe f   tftpd.obj
 0001:0001ae0e       _$E21                      0041be0e f   tftpd.obj
 0001:0001a5a8       _$E30                      0041b5a8 f   tcpflood.obj
 0001:0001a5b7       _$E29                      0041b5b7 f   tcpflood.obj
 0001:0001a5c7       _$E17                      0041b5c7 f   tcpflood.obj
 0001:0001a5d6       _$E14                      0041b5d6 f   tcpflood.obj
 0001:0001a5e5       _$E16                      0041b5e5 f   tcpflood.obj
 0001:0001a5f5       _$E15                      0041b5f5 f   tcpflood.obj
 0001:0001a604       _$E23                      0041b604 f   tcpflood.obj
 0001:0001a613       _$E20                      0041b613 f   tcpflood.obj
 0001:0001a622       _$E22                      0041b622 f   tcpflood.obj
 0001:0001a632       _$E21                      0041b632 f   tcpflood.obj
 0001:00019ee2       _$E30                      0041aee2 f   sysinfo.obj
 0001:00019ef1       _$E29                      0041aef1 f   sysinfo.obj
 0001:00019f01       _$E17                      0041af01 f   sysinfo.obj
 0001:00019f10       _$E14                      0041af10 f   sysinfo.obj
 0001:00019f1f       _$E16                      0041af1f f   sysinfo.obj
 0001:00019f2f       _$E15                      0041af2f f   sysinfo.obj
 0001:00019f3e       _$E23                      0041af3e f   sysinfo.obj
 0001:00019f4d       _$E20                      0041af4d f   sysinfo.obj
 0001:00019f5c       _$E22                      0041af5c f   sysinfo.obj
 0001:00019f6c       _$E21                      0041af6c f   sysinfo.obj
 0001:00019cc5       _$E30                      0041acc5 f   synflood.obj
 0001:00019cd4       _$E29                      0041acd4 f   synflood.obj
 0001:00019ce4       _$E17                      0041ace4 f   synflood.obj
 0001:00019cf3       _$E14                      0041acf3 f   synflood.obj
 0001:00019d02       _$E16                      0041ad02 f   synflood.obj
 0001:00019d12       _$E15                      0041ad12 f   synflood.obj
 0001:00019d21       _$E23                      0041ad21 f   synflood.obj
 0001:00019d30       _$E20                      0041ad30 f   synflood.obj
 0001:00019d3f       _$E22                      0041ad3f f   synflood.obj
 0001:00019d4f       _$E21                      0041ad4f f   synflood.obj
 0001:0001974d       _$E30                      0041a74d f   socks4.obj
 0001:0001975c       _$E29                      0041a75c f   socks4.obj
 0001:0001976c       _$E17                      0041a76c f   socks4.obj
 0001:0001977b       _$E14                      0041a77b f   socks4.obj
 0001:0001978a       _$E16                      0041a78a f   socks4.obj
 0001:0001979a       _$E15                      0041a79a f   socks4.obj
 0001:000197a9       _$E23                      0041a7a9 f   socks4.obj
 0001:000197b8       _$E20                      0041a7b8 f   socks4.obj
 0001:000197c7       _$E22                      0041a7c7 f   socks4.obj
 0001:000197d7       _$E21                      0041a7d7 f   socks4.obj
 0001:000196b4       _$E30                      0041a6b4 f   shellcode.obj
 0001:000196c3       _$E29                      0041a6c3 f   shellcode.obj
 0001:000196d3       _$E17                      0041a6d3 f   shellcode.obj
 0001:000196e2       _$E14                      0041a6e2 f   shellcode.obj
 0001:000196f1       _$E16                      0041a6f1 f   shellcode.obj
 0001:00019701       _$E15                      0041a701 f   shellcode.obj
 0001:00019710       _$E23                      0041a710 f   shellcode.obj
 0001:0001971f       _$E20                      0041a71f f   shellcode.obj
 0001:0001972e       _$E22                      0041a72e f   shellcode.obj
 0001:0001973e       _$E21                      0041a73e f   shellcode.obj
 0001:00018b7e       ?CreateSession@@YAPAUSESSION_DATA@@H@Z 00419b7e f   session.obj
 0001:00018cd9       ?StartShell@@YAPAXPAX0H@Z  00419cd9 f   session.obj
 0001:00018dd2       ?SessionReadShellThread@@YAXPAX@Z 00419dd2 f   session.obj
 0001:00018f03       ?SessionWriteShellThread@@YAXPAX@Z 00419f03 f   session.obj
 0001:000191f8       _$E30                      0041a1f8 f   session.obj
 0001:00019207       _$E29                      0041a207 f   session.obj
 0001:00019217       _$E17                      0041a217 f   session.obj
 0001:00019226       _$E14                      0041a226 f   session.obj
 0001:00019235       _$E16                      0041a235 f   session.obj
 0001:00019245       _$E15                      0041a245 f   session.obj
 0001:00019254       _$E23                      0041a254 f   session.obj
 0001:00019263       _$E20                      0041a263 f   session.obj
 0001:00019272       _$E22                      0041a272 f   session.obj
 0001:00019282       _$E21                      0041a282 f   session.obj
 0001:00018909       _$E30                      00419909 f   secure.obj
 0001:00018918       _$E29                      00419918 f   secure.obj
 0001:00018928       _$E17                      00419928 f   secure.obj
 0001:00018937       _$E14                      00419937 f   secure.obj
 0001:00018946       _$E16                      00419946 f   secure.obj
 0001:00018956       _$E15                      00419956 f   secure.obj
 0001:00018965       _$E23                      00419965 f   secure.obj
 0001:00018974       _$E20                      00419974 f   secure.obj
 0001:00018983       _$E22                      00419983 f   secure.obj
 0001:00018993       _$E21                      00419993 f   secure.obj
 0001:00017f5a       _$E30                      00418f5a f   scan.obj
 0001:00017f69       _$E29                      00418f69 f   scan.obj
 0001:00017f79       _$E17                      00418f79 f   scan.obj
 0001:00017f88       _$E14                      00418f88 f   scan.obj
 0001:00017f97       _$E16                      00418f97 f   scan.obj
 0001:00017fa7       _$E15                      00418fa7 f   scan.obj
 0001:00017fb6       _$E23                      00418fb6 f   scan.obj
 0001:00017fc5       _$E20                      00418fc5 f   scan.obj
 0001:00017fd4       _$E22                      00418fd4 f   scan.obj
 0001:00017fe4       _$E21                      00418fe4 f   scan.obj
 0001:00017c3b       _$E30                      00418c3b f   rndnick.obj
 0001:00017c4a       _$E29                      00418c4a f   rndnick.obj
 0001:00017c5a       _$E17                      00418c5a f   rndnick.obj
 0001:00017c69       _$E14                      00418c69 f   rndnick.obj
 0001:00017c78       _$E16                      00418c78 f   rndnick.obj
 0001:00017c88       _$E15                      00418c88 f   rndnick.obj
 0001:00017c97       _$E23                      00418c97 f   rndnick.obj
 0001:00017ca6       _$E20                      00418ca6 f   rndnick.obj
 0001:00017cb5       _$E22                      00418cb5 f   rndnick.obj
 0001:00017cc5       _$E21                      00418cc5 f   rndnick.obj
 0001:0001732f       ?GetStr@@YAHIPADH@Z        0041832f f   rlogind.obj
 0001:00017385       ?CheckLogin@@YAHPAD00K@Z   00418385 f   rlogind.obj
 0001:0001771a       ?CtrlHandler@@YAHK@Z       0041871a f   rlogind.obj
 0001:00017728       _$E30                      00418728 f   rlogind.obj
 0001:00017737       _$E29                      00418737 f   rlogind.obj
 0001:00017747       _$E17                      00418747 f   rlogind.obj
 0001:00017756       _$E14                      00418756 f   rlogind.obj
 0001:00017765       _$E16                      00418765 f   rlogind.obj
 0001:00017775       _$E15                      00418775 f   rlogind.obj
 0001:00017784       _$E23                      00418784 f   rlogind.obj
 0001:00017793       _$E20                      00418793 f   rlogind.obj
 0001:000177a2       _$E22                      004187a2 f   rlogind.obj
 0001:000177b2       _$E21                      004187b2 f   rlogind.obj
 0001:00016f0a       _$E30                      00417f0a f   remotecmd.obj
 0001:00016f19       _$E29                      00417f19 f   remotecmd.obj
 0001:00016f29       _$E17                      00417f29 f   remotecmd.obj
 0001:00016f38       _$E14                      00417f38 f   remotecmd.obj
 0001:00016f47       _$E16                      00417f47 f   remotecmd.obj
 0001:00016f57       _$E15                      00417f57 f   remotecmd.obj
 0001:00016f66       _$E23                      00417f66 f   remotecmd.obj
 0001:00016f75       _$E20                      00417f75 f   remotecmd.obj
 0001:00016f84       _$E22                      00417f84 f   remotecmd.obj
 0001:00016f94       _$E21                      00417f94 f   remotecmd.obj
 0001:00016922       _$E17                      00417922 f   redirect.obj
 0001:00016931       _$E14                      00417931 f   redirect.obj
 0001:00016940       _$E16                      00417940 f   redirect.obj
 0001:00016950       _$E15                      00417950 f   redirect.obj
 0001:0001695f       _$E23                      0041795f f   redirect.obj
 0001:0001696e       _$E20                      0041796e f   redirect.obj
 0001:0001697d       _$E22                      0041797d f   redirect.obj
 0001:0001698d       _$E21                      0041798d f   redirect.obj
 0001:0001699c       _$E30                      0041799c f   redirect.obj
 0001:000169ab       _$E29                      004179ab f   redirect.obj
 0001:00016889       _$E17                      00417889 f   rBot.obj
 0001:00016898       _$E14                      00417898 f   rBot.obj
 0001:000168a7       _$E16                      004178a7 f   rBot.obj
 0001:000168b7       _$E15                      004178b7 f   rBot.obj
 0001:000168c6       _$E23                      004178c6 f   rBot.obj
 0001:000168d5       _$E20                      004178d5 f   rBot.obj
 0001:000168e4       _$E22                      004178e4 f   rBot.obj
 0001:000168f4       _$E21                      004178f4 f   rBot.obj
 0001:00016903       _$E30                      00417903 f   rBot.obj
 0001:00016912       _$E29                      00417912 f   rBot.obj
 0001:0000f89f       _$E30                      0041089f f   psniff.obj
 0001:0000f8ae       _$E29                      004108ae f   psniff.obj
 0001:0000f8be       _$E17                      004108be f   psniff.obj
 0001:0000f8cd       _$E14                      004108cd f   psniff.obj
 0001:0000f8dc       _$E16                      004108dc f   psniff.obj
 0001:0000f8ec       _$E15                      004108ec f   psniff.obj
 0001:0000f8fb       _$E23                      004108fb f   psniff.obj
 0001:0000f90a       _$E20                      0041090a f   psniff.obj
 0001:0000f919       _$E22                      00410919 f   psniff.obj
 0001:0000f929       _$E21                      00410929 f   psniff.obj
 0001:0000f806       _$E30                      00410806 f   processes.obj
 0001:0000f815       _$E29                      00410815 f   processes.obj
 0001:0000f825       _$E17                      00410825 f   processes.obj
 0001:0000f834       _$E14                      00410834 f   processes.obj
 0001:0000f843       _$E16                      00410843 f   processes.obj
 0001:0000f853       _$E15                      00410853 f   processes.obj
 0001:0000f862       _$E23                      00410862 f   processes.obj
 0001:0000f871       _$E20                      00410871 f   processes.obj
 0001:0000f880       _$E22                      00410880 f   processes.obj
 0001:0000f890       _$E21                      00410890 f   processes.obj
 0001:0000f377       _$E30                      00410377 f   pingudp.obj
 0001:0000f386       _$E29                      00410386 f   pingudp.obj
 0001:0000f396       _$E17                      00410396 f   pingudp.obj
 0001:0000f3a5       _$E14                      004103a5 f   pingudp.obj
 0001:0000f3b4       _$E16                      004103b4 f   pingudp.obj
 0001:0000f3c4       _$E15                      004103c4 f   pingudp.obj
 0001:0000f3d3       _$E23                      004103d3 f   pingudp.obj
 0001:0000f3e2       _$E20                      004103e2 f   pingudp.obj
 0001:0000f3f1       _$E22                      004103f1 f   pingudp.obj
 0001:0000f401       _$E21                      00410401 f   pingudp.obj
 0001:0000edab       _$E30                      0040fdab f   netutils.obj
 0001:0000edba       _$E29                      0040fdba f   netutils.obj
 0001:0000edca       _$E17                      0040fdca f   netutils.obj
 0001:0000edd9       _$E14                      0040fdd9 f   netutils.obj
 0001:0000ede8       _$E16                      0040fde8 f   netutils.obj
 0001:0000edf8       _$E15                      0040fdf8 f   netutils.obj
 0001:0000ee07       _$E23                      0040fe07 f   netutils.obj
 0001:0000ee16       _$E20                      0040fe16 f   netutils.obj
 0001:0000ee25       _$E22                      0040fe25 f   netutils.obj
 0001:0000ee35       _$E21                      0040fe35 f   netutils.obj
 0001:0000e90c       _$E30                      0040f90c f   netbios.obj
 0001:0000e91b       _$E29                      0040f91b f   netbios.obj
 0001:0000e92b       _$E17                      0040f92b f   netbios.obj
 0001:0000e93a       _$E14                      0040f93a f   netbios.obj
 0001:0000e949       _$E16                      0040f949 f   netbios.obj
 0001:0000e959       _$E15                      0040f959 f   netbios.obj
 0001:0000e968       _$E23                      0040f968 f   netbios.obj
 0001:0000e977       _$E20                      0040f977 f   netbios.obj
 0001:0000e986       _$E22                      0040f986 f   netbios.obj
 0001:0000e996       _$E21                      0040f996 f   netbios.obj
 0001:0000d37c       ?ServiceError@@YAPADK@Z    0040e37c f   net.obj
 0001:0000da75       ?AsWideString@@YAPADPBD@Z  0040ea75 f   net.obj
 0001:0000e4cb       ?NasError@@YAPADK@Z        0040f4cb f   net.obj
 0001:0000e873       _$E17                      0040f873 f   net.obj
 0001:0000e882       _$E14                      0040f882 f   net.obj
 0001:0000e891       _$E16                      0040f891 f   net.obj
 0001:0000e8a1       _$E15                      0040f8a1 f   net.obj
 0001:0000e8b0       _$E23                      0040f8b0 f   net.obj
 0001:0000e8bf       _$E20                      0040f8bf f   net.obj
 0001:0000e8ce       _$E22                      0040f8ce f   net.obj
 0001:0000e8de       _$E21                      0040f8de f   net.obj
 0001:0000e8ed       _$E31                      0040f8ed f   net.obj
 0001:0000e8fc       _$E30                      0040f8fc f   net.obj
 0001:0000d16a       _$E30                      0040e16a f   mssql.obj
 0001:0000d179       _$E29                      0040e179 f   mssql.obj
 0001:0000d189       _$E17                      0040e189 f   mssql.obj
 0001:0000d198       _$E14                      0040e198 f   mssql.obj
 0001:0000d1a7       _$E16                      0040e1a7 f   mssql.obj
 0001:0000d1b7       _$E15                      0040e1b7 f   mssql.obj
 0001:0000d1c6       _$E23                      0040e1c6 f   mssql.obj
 0001:0000d1d5       _$E20                      0040e1d5 f   mssql.obj
 0001:0000d1e4       _$E22                      0040e1e4 f   mssql.obj
 0001:0000d1f4       _$E21                      0040e1f4 f   mssql.obj
 0001:0000d0d1       _$E30                      0040e0d1 f   misc.obj
 0001:0000d0e0       _$E29                      0040e0e0 f   misc.obj
 0001:0000d0f0       _$E17                      0040e0f0 f   misc.obj
 0001:0000d0ff       _$E14                      0040e0ff f   misc.obj
 0001:0000d10e       _$E16                      0040e10e f   misc.obj
 0001:0000d11e       _$E15                      0040e11e f   misc.obj
 0001:0000d12d       _$E23                      0040e12d f   misc.obj
 0001:0000d13c       _$E20                      0040e13c f   misc.obj
 0001:0000d14b       _$E22                      0040e14b f   misc.obj
 0001:0000d15b       _$E21                      0040e15b f   misc.obj
 0001:0000c71c       _$E30                      0040d71c f   lsass.obj
 0001:0000c72b       _$E29                      0040d72b f   lsass.obj
 0001:0000c73b       _$E17                      0040d73b f   lsass.obj
 0001:0000c74a       _$E14                      0040d74a f   lsass.obj
 0001:0000c759       _$E16                      0040d759 f   lsass.obj
 0001:0000c769       _$E15                      0040d769 f   lsass.obj
 0001:0000c778       _$E23                      0040d778 f   lsass.obj
 0001:0000c787       _$E20                      0040d787 f   lsass.obj
 0001:0000c796       _$E22                      0040d796 f   lsass.obj
 0001:0000c7a6       _$E21                      0040d7a6 f   lsass.obj
 0001:0000bcd7       _$E30                      0040ccd7 f   loaddlls.obj
 0001:0000bce6       _$E29                      0040cce6 f   loaddlls.obj
 0001:0000bcf6       _$E17                      0040ccf6 f   loaddlls.obj
 0001:0000bd05       _$E14                      0040cd05 f   loaddlls.obj
 0001:0000bd14       _$E16                      0040cd14 f   loaddlls.obj
 0001:0000bd24       _$E15                      0040cd24 f   loaddlls.obj
 0001:0000bd33       _$E23                      0040cd33 f   loaddlls.obj
 0001:0000bd42       _$E20                      0040cd42 f   loaddlls.obj
 0001:0000bd51       _$E22                      0040cd51 f   loaddlls.obj
 0001:0000bd61       _$E21                      0040cd61 f   loaddlls.obj
 0001:0000a7d9       _$E30                      0040b7d9 f   keylogger.obj
 0001:0000a7e8       _$E29                      0040b7e8 f   keylogger.obj
 0001:0000a7f8       _$E17                      0040b7f8 f   keylogger.obj
 0001:0000a807       _$E14                      0040b807 f   keylogger.obj
 0001:0000a816       _$E16                      0040b816 f   keylogger.obj
 0001:0000a826       _$E15                      0040b826 f   keylogger.obj
 0001:0000a835       _$E23                      0040b835 f   keylogger.obj
 0001:0000a844       _$E20                      0040b844 f   keylogger.obj
 0001:0000a853       _$E22                      0040b853 f   keylogger.obj
 0001:0000a863       _$E21                      0040b863 f   keylogger.obj
 0001:0000a190       _$E30                      0040b190 f   irc_send.obj
 0001:0000a19f       _$E29                      0040b19f f   irc_send.obj
 0001:0000a1af       _$E17                      0040b1af f   irc_send.obj
 0001:0000a1be       _$E14                      0040b1be f   irc_send.obj
 0001:0000a1cd       _$E16                      0040b1cd f   irc_send.obj
 0001:0000a1dd       _$E15                      0040b1dd f   irc_send.obj
 0001:0000a1ec       _$E23                      0040b1ec f   irc_send.obj
 0001:0000a1fb       _$E20                      0040b1fb f   irc_send.obj
 0001:0000a20a       _$E22                      0040b20a f   irc_send.obj
 0001:0000a21a       _$E21                      0040b21a f   irc_send.obj
 0001:00009ff0       _$E30                      0040aff0 f   ident.obj
 0001:00009fff       _$E29                      0040afff f   ident.obj
 0001:0000a00f       _$E17                      0040b00f f   ident.obj
 0001:0000a01e       _$E14                      0040b01e f   ident.obj
 0001:0000a02d       _$E16                      0040b02d f   ident.obj
 0001:0000a03d       _$E15                      0040b03d f   ident.obj
 0001:0000a04c       _$E23                      0040b04c f   ident.obj
 0001:0000a05b       _$E20                      0040b05b f   ident.obj
 0001:0000a06a       _$E22                      0040b06a f   ident.obj
 0001:0000a07a       _$E21                      0040b07a f   ident.obj
 0001:00009f57       _$E30                      0040af57 f   icmpflood.obj
 0001:00009f66       _$E29                      0040af66 f   icmpflood.obj
 0001:00009f76       _$E17                      0040af76 f   icmpflood.obj
 0001:00009f85       _$E14                      0040af85 f   icmpflood.obj
 0001:00009f94       _$E16                      0040af94 f   icmpflood.obj
 0001:00009fa4       _$E15                      0040afa4 f   icmpflood.obj
 0001:00009fb3       _$E23                      0040afb3 f   icmpflood.obj
 0001:00009fc2       _$E20                      0040afc2 f   icmpflood.obj
 0001:00009fd1       _$E22                      0040afd1 f   icmpflood.obj
 0001:00009fe1       _$E21                      0040afe1 f   icmpflood.obj
 0001:00009a38       _$E30                      0040aa38 f   httpd.obj
 0001:00009a47       _$E29                      0040aa47 f   httpd.obj
 0001:00009a57       _$E17                      0040aa57 f   httpd.obj
 0001:00009a66       _$E14                      0040aa66 f   httpd.obj
 0001:00009a75       _$E16                      0040aa75 f   httpd.obj
 0001:00009a85       _$E15                      0040aa85 f   httpd.obj
 0001:00009a94       _$E23                      0040aa94 f   httpd.obj
 0001:00009aa3       _$E20                      0040aaa3 f   httpd.obj
 0001:00009ab2       _$E22                      0040aab2 f   httpd.obj
 0001:00009ac2       _$E21                      0040aac2 f   httpd.obj
 0001:000082a3       _$E30                      004092a3 f   fphost.obj
 0001:000082b2       _$E29                      004092b2 f   fphost.obj
 0001:000082c2       _$E17                      004092c2 f   fphost.obj
 0001:000082d1       _$E14                      004092d1 f   fphost.obj
 0001:000082e0       _$E16                      004092e0 f   fphost.obj
 0001:000082f0       _$E15                      004092f0 f   fphost.obj
 0001:000082ff       _$E23                      004092ff f   fphost.obj
 0001:0000830e       _$E20                      0040930e f   fphost.obj
 0001:0000831d       _$E22                      0040931d f   fphost.obj
 0001:0000832d       _$E21                      0040932d f   fphost.obj
 0001:00007f11       _$E30                      00408f11 f   findpass.obj
 0001:00007f20       _$E29                      00408f20 f   findpass.obj
 0001:00007f30       _$E17                      00408f30 f   findpass.obj
 0001:00007f3f       _$E14                      00408f3f f   findpass.obj
 0001:00007f4e       _$E16                      00408f4e f   findpass.obj
 0001:00007f5e       _$E15                      00408f5e f   findpass.obj
 0001:00007f6d       _$E23                      00408f6d f   findpass.obj
 0001:00007f7c       _$E20                      00408f7c f   findpass.obj
 0001:00007f8b       _$E22                      00408f8b f   findpass.obj
 0001:00007f9b       _$E21                      00408f9b f   findpass.obj
 0001:00007e78       _$E30                      00408e78 f   findfile.obj
 0001:00007e87       _$E29                      00408e87 f   findfile.obj
 0001:00007e97       _$E17                      00408e97 f   findfile.obj
 0001:00007ea6       _$E14                      00408ea6 f   findfile.obj
 0001:00007eb5       _$E16                      00408eb5 f   findfile.obj
 0001:00007ec5       _$E15                      00408ec5 f   findfile.obj
 0001:00007ed4       _$E23                      00408ed4 f   findfile.obj
 0001:00007ee3       _$E20                      00408ee3 f   findfile.obj
 0001:00007ef2       _$E22                      00408ef2 f   findfile.obj
 0001:00007f02       _$E21                      00408f02 f   findfile.obj
 0001:00006fae       _$E30                      00407fae f   facebook.obj
 0001:00006fbd       _$E29                      00407fbd f   facebook.obj
 0001:00006fcd       _$E17                      00407fcd f   facebook.obj
 0001:00006fdc       _$E14                      00407fdc f   facebook.obj
 0001:00006feb       _$E16                      00407feb f   facebook.obj
 0001:00006ffb       _$E15                      00407ffb f   facebook.obj
 0001:0000700a       _$E23                      0040800a f   facebook.obj
 0001:00007019       _$E20                      00408019 f   facebook.obj
 0001:00007028       _$E22                      00408028 f   facebook.obj
 0001:00007038       _$E21                      00408038 f   facebook.obj
 0001:000060ed       _$E30                      004070ed f   ehandler.obj
 0001:000060fc       _$E29                      004070fc f   ehandler.obj
 0001:0000610c       _$E17                      0040710c f   ehandler.obj
 0001:0000611b       _$E14                      0040711b f   ehandler.obj
 0001:0000612a       _$E16                      0040712a f   ehandler.obj
 0001:0000613a       _$E15                      0040713a f   ehandler.obj
 0001:00006149       _$E23                      00407149 f   ehandler.obj
 0001:00006158       _$E20                      00407158 f   ehandler.obj
 0001:00006167       _$E22                      00407167 f   ehandler.obj
 0001:00006177       _$E21                      00407177 f   ehandler.obj
 0001:00006054       _$E30                      00407054 f   driveinfo.obj
 0001:00006063       _$E29                      00407063 f   driveinfo.obj
 0001:00006073       _$E17                      00407073 f   driveinfo.obj
 0001:00006082       _$E14                      00407082 f   driveinfo.obj
 0001:00006091       _$E16                      00407091 f   driveinfo.obj
 0001:000060a1       _$E15                      004070a1 f   driveinfo.obj
 0001:000060b0       _$E23                      004070b0 f   driveinfo.obj
 0001:000060bf       _$E20                      004070bf f   driveinfo.obj
 0001:000060ce       _$E22                      004070ce f   driveinfo.obj
 0001:000060de       _$E21                      004070de f   driveinfo.obj
 0001:00005b29       _$E30                      00406b29 f   download.obj
 0001:00005b38       _$E29                      00406b38 f   download.obj
 0001:00005b48       _$E17                      00406b48 f   download.obj
 0001:00005b57       _$E14                      00406b57 f   download.obj
 0001:00005b66       _$E16                      00406b66 f   download.obj
 0001:00005b76       _$E15                      00406b76 f   download.obj
 0001:00005b85       _$E23                      00406b85 f   download.obj
 0001:00005b94       _$E20                      00406b94 f   download.obj
 0001:00005ba3       _$E22                      00406ba3 f   download.obj
 0001:00005bb3       _$E21                      00406bb3 f   download.obj
 0001:000053c5       _$E30                      004063c5 f   ddos.obj
 0001:000053d4       _$E29                      004063d4 f   ddos.obj
 0001:000053e4       _$E17                      004063e4 f   ddos.obj
 0001:000053f3       _$E14                      004063f3 f   ddos.obj
 0001:00005402       _$E16                      00406402 f   ddos.obj
 0001:00005412       _$E15                      00406412 f   ddos.obj
 0001:00005421       _$E23                      00406421 f   ddos.obj
 0001:00005430       _$E20                      00406430 f   ddos.obj
 0001:0000543f       _$E22                      0040643f f   ddos.obj
 0001:0000544f       _$E21                      0040644f f   ddos.obj
 0001:00004d9f       _$E30                      00405d9f f   dcom2.obj
 0001:00004dae       _$E29                      00405dae f   dcom2.obj
 0001:00004dbe       _$E17                      00405dbe f   dcom2.obj
 0001:00004dcd       _$E14                      00405dcd f   dcom2.obj
 0001:00004ddc       _$E16                      00405ddc f   dcom2.obj
 0001:00004dec       _$E15                      00405dec f   dcom2.obj
 0001:00004dfb       _$E23                      00405dfb f   dcom2.obj
 0001:00004e0a       _$E20                      00405e0a f   dcom2.obj
 0001:00004e19       _$E22                      00405e19 f   dcom2.obj
 0001:00004e29       _$E21                      00405e29 f   dcom2.obj
 0001:00004d06       _$E30                      00405d06 f   dcom.obj
 0001:00004d15       _$E29                      00405d15 f   dcom.obj
 0001:00004d25       _$E17                      00405d25 f   dcom.obj
 0001:00004d34       _$E14                      00405d34 f   dcom.obj
 0001:00004d43       _$E16                      00405d43 f   dcom.obj
 0001:00004d53       _$E15                      00405d53 f   dcom.obj
 0001:00004d62       _$E23                      00405d62 f   dcom.obj
 0001:00004d71       _$E20                      00405d71 f   dcom.obj
 0001:00004d80       _$E22                      00405d80 f   dcom.obj
 0001:00004d90       _$E21                      00405d90 f   dcom.obj
 0001:00004c6d       _$E30                      00405c6d f   dcc.obj
 0001:00004c7c       _$E29                      00405c7c f   dcc.obj
 0001:00004c8c       _$E17                      00405c8c f   dcc.obj
 0001:00004c9b       _$E14                      00405c9b f   dcc.obj
 0001:00004caa       _$E16                      00405caa f   dcc.obj
 0001:00004cba       _$E15                      00405cba f   dcc.obj
 0001:00004cc9       _$E23                      00405cc9 f   dcc.obj
 0001:00004cd8       _$E20                      00405cd8 f   dcc.obj
 0001:00004ce7       _$E22                      00405ce7 f   dcc.obj
 0001:00004cf7       _$E21                      00405cf7 f   dcc.obj
 0001:00004bd4       _$E30                      00405bd4 f   crypt.obj
 0001:00004be3       _$E29                      00405be3 f   crypt.obj
 0001:00004bf3       _$E17                      00405bf3 f   crypt.obj
 0001:00004c02       _$E14                      00405c02 f   crypt.obj
 0001:00004c11       _$E16                      00405c11 f   crypt.obj
 0001:00004c21       _$E15                      00405c21 f   crypt.obj
 0001:00004c30       _$E23                      00405c30 f   crypt.obj
 0001:00004c3f       _$E20                      00405c3f f   crypt.obj
 0001:00004c4e       _$E22                      00405c4e f   crypt.obj
 0001:00004c5e       _$E21                      00405c5e f   crypt.obj
 0001:00004763       _$E30                      00405763 f   crc32.obj
 0001:00004772       _$E29                      00405772 f   crc32.obj
 0001:00004782       _$E17                      00405782 f   crc32.obj
 0001:00004791       _$E14                      00405791 f   crc32.obj
 0001:000047a0       _$E16                      004057a0 f   crc32.obj
 0001:000047b0       _$E15                      004057b0 f   crc32.obj
 0001:000047bf       _$E23                      004057bf f   crc32.obj
 0001:000047ce       _$E20                      004057ce f   crc32.obj
 0001:000047dd       _$E22                      004057dd f   crc32.obj
 0001:000047ed       _$E21                      004057ed f   crc32.obj
 0001:000024c4       ?cJSON_New_Item@@YAPAUcJSON@@XZ 004034c4 f   cJSON.obj
 0001:000024ee       ?skip@@YAPBDPBD@Z          004034ee f   cJSON.obj
 0001:00002556       ?parse_value@@YAPBDPAUcJSON@@PBD@Z 00403556 f   cJSON.obj
 0001:00002678       ?parse_number@@YAPBDPAUcJSON@@PBD@Z 00403678 f   cJSON.obj
 0001:0000285b       ?parse_string@@YAPBDPAUcJSON@@PBD@Z 0040385b f   cJSON.obj
 0001:00002ba8       ?parse_hex4@@YAIPBD@Z      00403ba8 f   cJSON.obj
 0001:00002dde       ?print_value@@YAPADPAUcJSON@@HH@Z 00403dde f   cJSON.obj
 0001:00002ea9       ?cJSON_strdup@@YAPADPBD@Z  00403ea9 f   cJSON.obj
 0001:00002ee8       ?print_number@@YAPADPAUcJSON@@@Z 00403ee8 f   cJSON.obj
 0001:0000303e       ?print_string@@YAPADPAUcJSON@@@Z 0040403e f   cJSON.obj
 0001:0000304f       ?print_string_ptr@@YAPADPBD@Z 0040404f f   cJSON.obj
 0001:0000324e       ?parse_array@@YAPBDPAUcJSON@@PBD@Z 0040424e f   cJSON.obj
 0001:0000335f       ?print_array@@YAPADPAUcJSON@@HH@Z 0040435f f   cJSON.obj
 0001:00003596       ?parse_object@@YAPBDPAUcJSON@@PBD@Z 00404596 f   cJSON.obj
 0001:00003762       ?print_object@@YAPADPAUcJSON@@HH@Z 00404762 f   cJSON.obj
 0001:00003c2d       ?cJSON_strcasecmp@@YAHPBD0@Z 00404c2d f   cJSON.obj
 0001:00003d01       ?suffix_object@@YAXPAUcJSON@@0@Z 00404d01 f   cJSON.obj
 0001:00003d6f       ?create_reference@@YAPAUcJSON@@PAU1@@Z 00404d6f f   cJSON.obj
 0001:000045c2       _$E17                      004055c2 f   cJSON.obj
 0001:000045d1       _$E14                      004055d1 f   cJSON.obj
 0001:000045e0       _$E16                      004055e0 f   cJSON.obj
 0001:000045f0       _$E15                      004055f0 f   cJSON.obj
 0001:000045ff       _$E23                      004055ff f   cJSON.obj
 0001:0000460e       _$E20                      0040560e f   cJSON.obj
 0001:0000461d       _$E22                      0040561d f   cJSON.obj
 0001:0000462d       _$E21                      0040562d f   cJSON.obj
 0001:0000463c       _$E30                      0040563c f   cJSON.obj
 0001:0000464b       _$E29                      0040564b f   cJSON.obj
 0001:000022a5       _$E30                      004032a5 f   cdkeys.obj
 0001:000022b4       _$E29                      004032b4 f   cdkeys.obj
 0001:000022c4       _$E17                      004032c4 f   cdkeys.obj
 0001:000022d3       _$E14                      004032d3 f   cdkeys.obj
 0001:000022e2       _$E16                      004032e2 f   cdkeys.obj
 0001:000022f2       _$E15                      004032f2 f   cdkeys.obj
 0001:00002301       _$E23                      00403301 f   cdkeys.obj
 0001:00002310       _$E20                      00403310 f   cdkeys.obj
 0001:0000231f       _$E22                      0040331f f   cdkeys.obj
 0001:0000232f       _$E21                      0040332f f   cdkeys.obj
 0001:0000220c       _$E30                      0040320c f   capture.obj
 0001:0000221b       _$E29                      0040321b f   capture.obj
 0001:0000222b       _$E17                      0040322b f   capture.obj
 0001:0000223a       _$E14                      0040323a f   capture.obj
 0001:00002249       _$E16                      00403249 f   capture.obj
 0001:00002259       _$E15                      00403259 f   capture.obj
 0001:00002268       _$E23                      00403268 f   capture.obj
 0001:00002277       _$E20                      00403277 f   capture.obj
 0001:00002286       _$E22                      00403286 f   capture.obj
 0001:00002296       _$E21                      00403296 f   capture.obj
 0001:00001763       _$E30                      00402763 f   autostart.obj
 0001:00001772       _$E29                      00402772 f   autostart.obj
 0001:00001782       _$E17                      00402782 f   autostart.obj
 0001:00001791       _$E14                      00402791 f   autostart.obj
 0001:000017a0       _$E16                      004027a0 f   autostart.obj
 0001:000017b0       _$E15                      004027b0 f   autostart.obj
 0001:000017bf       _$E23                      004027bf f   autostart.obj
 0001:000017ce       _$E20                      004027ce f   autostart.obj
 0001:000017dd       _$E22                      004027dd f   autostart.obj
 0001:000017ed       _$E21                      004027ed f   autostart.obj
 0001:00001643       _$E30                      00402643 f   aliaslog.obj
 0001:00001652       _$E29                      00402652 f   aliaslog.obj
 0001:00001662       _$E17                      00402662 f   aliaslog.obj
 0001:00001671       _$E14                      00402671 f   aliaslog.obj
 0001:00001680       _$E16                      00402680 f   aliaslog.obj
 0001:00001690       _$E15                      00402690 f   aliaslog.obj
 0001:0000169f       _$E23                      0040269f f   aliaslog.obj
 0001:000016ae       _$E20                      004026ae f   aliaslog.obj
 0001:000016bd       _$E22                      004026bd f   aliaslog.obj
 0001:000016cd       _$E21                      004026cd f   aliaslog.obj
 0001:00000f3f       _$E30                      00401f3f f   advscan.obj
 0001:00000f4e       _$E29                      00401f4e f   advscan.obj
 0001:00000f5e       _$E17                      00401f5e f   advscan.obj
 0001:00000f6d       _$E14                      00401f6d f   advscan.obj
 0001:00000f7c       _$E16                      00401f7c f   advscan.obj
 0001:00000f8c       _$E15                      00401f8c f   advscan.obj
 0001:00000f9b       _$E23                      00401f9b f   advscan.obj
 0001:00000faa       _$E20                      00401faa f   advscan.obj
 0001:00000fb9       _$E22                      00401fb9 f   advscan.obj
 0001:00000fc9       _$E21                      00401fc9 f   advscan.obj
 0001:00021c10       _$E2                       00422c10 f   libcpmtd:nomemory.obj
 0001:00021550       __Mbrtowc_lk               00422550 f   libcpmtd:xmbtowc.obj
 0001:00020b70       _$E18                      00421b70 f   libcpmtd:locale0.obj
 0001:00020b80       _$E15                      00421b80 f   libcpmtd:locale0.obj
 0001:00020ba0       _$E17                      00421ba0 f   libcpmtd:locale0.obj
 0001:00020bc0       _$E16                      00421bc0 f   libcpmtd:locale0.obj
 0001:00021460       _$E29                      00422460 f   libcpmtd:locale0.obj
 0001:00021480       _$E25                      00422480 f   libcpmtd:locale0.obj
 0001:000214a0       _$E28                      004224a0 f   libcpmtd:locale0.obj
 0001:00020040       ?_CleanUp@std@@YAXXZ       00421040 f   libcpmtd:xlock.obj
 0001:0001ff20       _$E24                      00420f20 f   libcpmtd:string.obj
 0001:0001ff40       _$E20                      00420f40 f   libcpmtd:string.obj
 0001:0001ff60       _$E23                      00420f60 f   libcpmtd:string.obj
 0001:0001d9d0       _$E18                      0041e9d0 f   libcpmtd:wiostrea.obj
 0001:0001d9e0       _$E15                      0041e9e0 f   libcpmtd:wiostrea.obj
 0001:0001d9f0       _$E17                      0041e9f0 f   libcpmtd:wiostrea.obj
 0001:0001da10       _$E16                      0041ea10 f   libcpmtd:wiostrea.obj
 0001:0001da20       _$E24                      0041ea20 f   libcpmtd:wiostrea.obj
 0001:0001da30       _$E21                      0041ea30 f   libcpmtd:wiostrea.obj
 0001:0001da40       _$E23                      0041ea40 f   libcpmtd:wiostrea.obj
 0001:0001da60       _$E22                      0041ea60 f   libcpmtd:wiostrea.obj
 0001:0001da70       _$E29                      0041ea70 f   libcpmtd:wiostrea.obj
 0001:0001da80       _$E26                      0041ea80 f   libcpmtd:wiostrea.obj
 0001:0001daa0       _$E28                      0041eaa0 f   libcpmtd:wiostrea.obj
 0001:0001dac0       _$E27                      0041eac0 f   libcpmtd:wiostrea.obj
 0001:0001dad0       _$E34                      0041ead0 f   libcpmtd:wiostrea.obj
 0001:0001dae0       _$E31                      0041eae0 f   libcpmtd:wiostrea.obj
 0001:0001db00       _$E33                      0041eb00 f   libcpmtd:wiostrea.obj
 0001:0001db20       _$E32                      0041eb20 f   libcpmtd:wiostrea.obj
 0001:0001db30       _$E39                      0041eb30 f   libcpmtd:wiostrea.obj
 0001:0001db40       _$E36                      0041eb40 f   libcpmtd:wiostrea.obj
 0001:0001db60       _$E38                      0041eb60 f   libcpmtd:wiostrea.obj
 0001:0001db80       _$E37                      0041eb80 f   libcpmtd:wiostrea.obj
 0001:0001db90       _$E44                      0041eb90 f   libcpmtd:wiostrea.obj
 0001:0001dba0       _$E41                      0041eba0 f   libcpmtd:wiostrea.obj
 0001:0001dbc0       _$E43                      0041ebc0 f   libcpmtd:wiostrea.obj
 0001:0001dbe0       _$E42                      0041ebe0 f   libcpmtd:wiostrea.obj
 0001:0001dc20       _$E49                      0041ec20 f   libcpmtd:wiostrea.obj
 0001:0001dc30       _$E46                      0041ec30 f   libcpmtd:wiostrea.obj
 0001:0001dc50       _$E48                      0041ec50 f   libcpmtd:wiostrea.obj
 0001:0001dc70       _$E47                      0041ec70 f   libcpmtd:wiostrea.obj
 0001:0001dcb0       _$E54                      0041ecb0 f   libcpmtd:wiostrea.obj
 0001:0001dcc0       _$E51                      0041ecc0 f   libcpmtd:wiostrea.obj
 0001:0001dce0       _$E53                      0041ece0 f   libcpmtd:wiostrea.obj
 0001:0001dd00       _$E52                      0041ed00 f   libcpmtd:wiostrea.obj
 0001:0001dd10       _$E59                      0041ed10 f   libcpmtd:wiostrea.obj
 0001:0001dd20       _$E56                      0041ed20 f   libcpmtd:wiostrea.obj
 0001:0001dd40       _$E58                      0041ed40 f   libcpmtd:wiostrea.obj
 0001:0001dd60       _$E57                      0041ed60 f   libcpmtd:wiostrea.obj
 0001:0001fa80       _$E70                      00420a80 f   libcpmtd:wiostrea.obj
 0001:0001faa0       _$E66                      00420aa0 f   libcpmtd:wiostrea.obj
 0001:0001fac0       _$E69                      00420ac0 f   libcpmtd:wiostrea.obj
 0001:0001b550       _$E18                      0041c550 f   libcpmtd:iostream.obj
 0001:0001b560       _$E15                      0041c560 f   libcpmtd:iostream.obj
 0001:0001b580       _$E17                      0041c580 f   libcpmtd:iostream.obj
 0001:0001b5a0       _$E16                      0041c5a0 f   libcpmtd:iostream.obj
 0001:0001b5b0       _$E23                      0041c5b0 f   libcpmtd:iostream.obj
 0001:0001b5c0       _$E20                      0041c5c0 f   libcpmtd:iostream.obj
 0001:0001b5e0       _$E22                      0041c5e0 f   libcpmtd:iostream.obj
 0001:0001b600       _$E21                      0041c600 f   libcpmtd:iostream.obj
 0001:0001b610       _$E28                      0041c610 f   libcpmtd:iostream.obj
 0001:0001b620       _$E25                      0041c620 f   libcpmtd:iostream.obj
 0001:0001b640       _$E27                      0041c640 f   libcpmtd:iostream.obj
 0001:0001b660       _$E26                      0041c660 f   libcpmtd:iostream.obj
 0001:0001b6a0       _$E33                      0041c6a0 f   libcpmtd:iostream.obj
 0001:0001b6b0       _$E30                      0041c6b0 f   libcpmtd:iostream.obj
 0001:0001b6d0       _$E32                      0041c6d0 f   libcpmtd:iostream.obj
 0001:0001b6f0       _$E31                      0041c6f0 f   libcpmtd:iostream.obj
 0001:0001b730       _$E38                      0041c730 f   libcpmtd:iostream.obj
 0001:0001b740       _$E35                      0041c740 f   libcpmtd:iostream.obj
 0001:0001b760       _$E37                      0041c760 f   libcpmtd:iostream.obj
 0001:0001b780       _$E36                      0041c780 f   libcpmtd:iostream.obj
 0001:0001b790       _$E43                      0041c790 f   libcpmtd:iostream.obj
 0001:0001b7a0       _$E40                      0041c7a0 f   libcpmtd:iostream.obj
 0001:0001b7c0       _$E42                      0041c7c0 f   libcpmtd:iostream.obj
 0001:0001b7e0       _$E41                      0041c7e0 f   libcpmtd:iostream.obj
 0001:0001b7f0       _$E48                      0041c7f0 f   libcpmtd:iostream.obj
 0001:0001b800       _$E45                      0041c800 f   libcpmtd:iostream.obj
 0001:0001b820       _$E47                      0041c820 f   libcpmtd:iostream.obj
 0001:0001b840       _$E46                      0041c840 f   libcpmtd:iostream.obj
 0001:0001d930       _$E60                      0041e930 f   libcpmtd:iostream.obj
 0001:0001d950       _$E56                      0041e950 f   libcpmtd:iostream.obj
 0001:0001d9a0       _$E59                      0041e9a0 f   libcpmtd:iostream.obj
 0001:00041fb0       _findenv                   00442fb0 f   LIBCMTD:setenv.obj
 0001:00042030       _copy_environ              00443030 f   LIBCMTD:setenv.obj
 0001:00041c80       _strncnt                   00442c80 f   LIBCMTD:a_cmp.obj
 0001:000403f0       __tzset_lk                 004413f0 f   LIBCMTD:tzset.obj
 0001:000407d0       __isindst_lk               004417d0 f   LIBCMTD:tzset.obj
 0001:00040ad0       _cvtdate                   00441ad0 f   LIBCMTD:tzset.obj
 0001:0003e99c       lupe                       0043f99c f   LIBCMTD:strnicmp.obj
 0001:0003e9b4       skip1                      0043f9b4 f   LIBCMTD:strnicmp.obj
 0001:0003e9be       skip2                      0043f9be f   LIBCMTD:strnicmp.obj
 0001:0003e9c5       eject                      0043f9c5 f   LIBCMTD:strnicmp.obj
 0001:0003e9cf       differ                     0043f9cf f   LIBCMTD:strnicmp.obj
 0001:0003e9e1       notclocale                 0043f9e1 f   LIBCMTD:strnicmp.obj
 0001:0003e9f5       do_lock                    0043f9f5 f   LIBCMTD:strnicmp.obj
 0001:0003ea0e       end_lock                   0043fa0e f   LIBCMTD:strnicmp.obj
 0001:0003ea14       lupe2                      0043fa14 f   LIBCMTD:strnicmp.obj
 0001:0003ea3f       eject2                     0043fa3f f   LIBCMTD:strnicmp.obj
 0001:0003ea45       differ2                    0043fa45 f   LIBCMTD:strnicmp.obj
 0001:0003ea4e       toend2                     0043fa4e f   LIBCMTD:strnicmp.obj
 0001:0003ea5c       do_unlock                  0043fa5c f   LIBCMTD:strnicmp.obj
 0001:0003ea6a       end_unlock                 0043fa6a f   LIBCMTD:strnicmp.obj
 0001:0003ea6a       toend                      0043fa6a f   LIBCMTD:strnicmp.obj
 0001:0003e8bc       chk_null                   0043f8bc f   LIBCMTD:stricmp.obj
 0001:0003e8ee       done                       0043f8ee f   LIBCMTD:stricmp.obj
 0001:0003e8f3       notclocale                 0043f8f3 f   LIBCMTD:stricmp.obj
 0001:0003e907       do_lock                    0043f907 f   LIBCMTD:stricmp.obj
 0001:0003e91c       end_lock                   0043f91c f   LIBCMTD:stricmp.obj
 0001:0003e924       chk_null2                  0043f924 f   LIBCMTD:stricmp.obj
 0001:0003e94f       done2                      0043f94f f   LIBCMTD:stricmp.obj
 0001:0003e95f       do_unlock                  0043f95f f   LIBCMTD:stricmp.obj
 0001:0003e969       end_unlock                 0043f969 f   LIBCMTD:stricmp.obj
 0001:0003e96b       doret                      0043f96b f   LIBCMTD:stricmp.obj
 0001:0003d6a0       __expandtime               0043e6a0 f   LIBCMTD:strftime.obj
 0001:0003dcc0       __store_str                0043ecc0 f   LIBCMTD:strftime.obj
 0001:0003dd10       __store_num                0043ed10 f   LIBCMTD:strftime.obj
 0001:0003ddc0       __store_number             0043edc0 f   LIBCMTD:strftime.obj
 0001:0003de70       __store_winword            0043ee70 f   LIBCMTD:strftime.obj
 0001:0003cd50       _x_ismbbtype               0043dd50 f   LIBCMTD:ismbbyte.obj
 0001:0003b700       __abstract_cw              0043c700 f   LIBCMTD:ieee87.obj
 0001:0003b880       __hw_cw                    0043c880 f   LIBCMTD:ieee87.obj
 0001:0003b9e0       __abstract_sw              0043c9e0 f   LIBCMTD:ieee87.obj
 0001:0003a1b4       label0                     0043b1b4 f   LIBCMTD:adj_fdiv.obj
 0001:0003a1ba       label1                     0043b1ba f   LIBCMTD:adj_fdiv.obj
 0001:0003a1bf       label2                     0043b1bf f   LIBCMTD:adj_fdiv.obj
 0001:0003a1c5       label3                     0043b1c5 f   LIBCMTD:adj_fdiv.obj
 0001:0003a1ca       label4                     0043b1ca f   LIBCMTD:adj_fdiv.obj
 0001:0003a1d0       label5                     0043b1d0 f   LIBCMTD:adj_fdiv.obj
 0001:0003a1d6       label6                     0043b1d6 f   LIBCMTD:adj_fdiv.obj
 0001:0003a1dc       label7                     0043b1dc f   LIBCMTD:adj_fdiv.obj
 0001:0003a1e2       label8                     0043b1e2 f   LIBCMTD:adj_fdiv.obj
 0001:0003a1fe       label9                     0043b1fe f   LIBCMTD:adj_fdiv.obj
 0001:0003a203       label10                    0043b203 f   LIBCMTD:adj_fdiv.obj
 0001:0003a219       label11                    0043b219 f   LIBCMTD:adj_fdiv.obj
 0001:0003a21e       label12                    0043b21e f   LIBCMTD:adj_fdiv.obj
 0001:0003a23a       label13                    0043b23a f   LIBCMTD:adj_fdiv.obj
 0001:0003a24a       label14                    0043b24a f   LIBCMTD:adj_fdiv.obj
 0001:0003a25e       label15                    0043b25e f   LIBCMTD:adj_fdiv.obj
 0001:0003a26e       label16                    0043b26e f   LIBCMTD:adj_fdiv.obj
 0001:0003a28e       label17                    0043b28e f   LIBCMTD:adj_fdiv.obj
 0001:0003a293       label18                    0043b293 f   LIBCMTD:adj_fdiv.obj
 0001:0003a2ad       label19                    0043b2ad f   LIBCMTD:adj_fdiv.obj
 0001:0003a2b2       label20                    0043b2b2 f   LIBCMTD:adj_fdiv.obj
 0001:0003a2d2       label21                    0043b2d2 f   LIBCMTD:adj_fdiv.obj
 0001:0003a2e6       label22                    0043b2e6 f   LIBCMTD:adj_fdiv.obj
 0001:0003a2fe       label23                    0043b2fe f   LIBCMTD:adj_fdiv.obj
 0001:0003a312       label24                    0043b312 f   LIBCMTD:adj_fdiv.obj
 0001:0003a332       label25                    0043b332 f   LIBCMTD:adj_fdiv.obj
 0001:0003a337       label26                    0043b337 f   LIBCMTD:adj_fdiv.obj
 0001:0003a351       label27                    0043b351 f   LIBCMTD:adj_fdiv.obj
 0001:0003a356       label28                    0043b356 f   LIBCMTD:adj_fdiv.obj
 0001:0003a376       label29                    0043b376 f   LIBCMTD:adj_fdiv.obj
 0001:0003a38a       label30                    0043b38a f   LIBCMTD:adj_fdiv.obj
 0001:0003a3a2       label31                    0043b3a2 f   LIBCMTD:adj_fdiv.obj
 0001:0003a3b6       label32                    0043b3b6 f   LIBCMTD:adj_fdiv.obj
 0001:0003a3d6       label33                    0043b3d6 f   LIBCMTD:adj_fdiv.obj
 0001:0003a3db       label34                    0043b3db f   LIBCMTD:adj_fdiv.obj
 0001:0003a3f5       label35                    0043b3f5 f   LIBCMTD:adj_fdiv.obj
 0001:0003a3fa       label36                    0043b3fa f   LIBCMTD:adj_fdiv.obj
 0001:0003a41a       label37                    0043b41a f   LIBCMTD:adj_fdiv.obj
 0001:0003a42e       label38                    0043b42e f   LIBCMTD:adj_fdiv.obj
 0001:0003a446       label39                    0043b446 f   LIBCMTD:adj_fdiv.obj
 0001:0003a45a       label40                    0043b45a f   LIBCMTD:adj_fdiv.obj
 0001:0003a47a       label41                    0043b47a f   LIBCMTD:adj_fdiv.obj
 0001:0003a47f       label42                    0043b47f f   LIBCMTD:adj_fdiv.obj
 0001:0003a499       label43                    0043b499 f   LIBCMTD:adj_fdiv.obj
 0001:0003a49e       label44                    0043b49e f   LIBCMTD:adj_fdiv.obj
 0001:0003a4be       label45                    0043b4be f   LIBCMTD:adj_fdiv.obj
 0001:0003a4d2       label46                    0043b4d2 f   LIBCMTD:adj_fdiv.obj
 0001:0003a4ea       label47                    0043b4ea f   LIBCMTD:adj_fdiv.obj
 0001:0003a4fe       label48                    0043b4fe f   LIBCMTD:adj_fdiv.obj
 0001:0003a51e       label49                    0043b51e f   LIBCMTD:adj_fdiv.obj
 0001:0003a523       label50                    0043b523 f   LIBCMTD:adj_fdiv.obj
 0001:0003a53d       label51                    0043b53d f   LIBCMTD:adj_fdiv.obj
 0001:0003a542       label52                    0043b542 f   LIBCMTD:adj_fdiv.obj
 0001:0003a562       label53                    0043b562 f   LIBCMTD:adj_fdiv.obj
 0001:0003a576       label54                    0043b576 f   LIBCMTD:adj_fdiv.obj
 0001:0003a58e       label55                    0043b58e f   LIBCMTD:adj_fdiv.obj
 0001:0003a5a2       label56                    0043b5a2 f   LIBCMTD:adj_fdiv.obj
 0001:0003a5c2       label57                    0043b5c2 f   LIBCMTD:adj_fdiv.obj
 0001:0003a5c7       label58                    0043b5c7 f   LIBCMTD:adj_fdiv.obj
 0001:0003a5e1       label59                    0043b5e1 f   LIBCMTD:adj_fdiv.obj
 0001:0003a5e6       label60                    0043b5e6 f   LIBCMTD:adj_fdiv.obj
 0001:0003a606       label61                    0043b606 f   LIBCMTD:adj_fdiv.obj
 0001:0003a61a       label62                    0043b61a f   LIBCMTD:adj_fdiv.obj
 0001:0003a632       label63                    0043b632 f   LIBCMTD:adj_fdiv.obj
 0001:00039ec0       MORE32                     0043aec0 f   LIBCMTD:llshl.obj
 0001:00039eca       RETZERO                    0043aeca f   LIBCMTD:llshl.obj
 0001:00039660       _ctrlevent_capture@4       0043a660 f   LIBCMTD:winsig.obj
 0001:00039940       _siglookup                 0043a940 f   LIBCMTD:winsig.obj
 0001:00039190       _xtoa                      0043a190 f   LIBCMTD:xtoa.obj
 0001:00039310       _x64toa@20                 0043a310 f   LIBCMTD:xtoa.obj
 0001:000385a0       _TranslateName             004395a0 f   LIBCMTD:getqloc.obj
 0001:00038630       _GetLcidFromLangCountry    00439630 f   LIBCMTD:getqloc.obj
 0001:000386f0       _LangCountryEnumProc@4     004396f0 f   LIBCMTD:getqloc.obj
 0001:00038a20       _GetLcidFromLanguage       00439a20 f   LIBCMTD:getqloc.obj
 0001:00038aa0       _LanguageEnumProc@4        00439aa0 f   LIBCMTD:getqloc.obj
 0001:00038bc0       _GetLcidFromCountry        00439bc0 f   LIBCMTD:getqloc.obj
 0001:00038c10       _CountryEnumProc@4         00439c10 f   LIBCMTD:getqloc.obj
 0001:00038cc0       _GetLcidFromDefault        00439cc0 f   LIBCMTD:getqloc.obj
 0001:00038cf0       _ProcessCodePage           00439cf0 f   LIBCMTD:getqloc.obj
 0001:00038d90       _TestDefaultCountry        00439d90 f   LIBCMTD:getqloc.obj
 0001:00038de0       _TestDefaultLanguage       00439de0 f   LIBCMTD:getqloc.obj
 0001:00038e70       _IsThisWindowsNT           00439e70 f   LIBCMTD:getqloc.obj
 0001:00038ec0       _crtGetLocaleInfoA@16      00439ec0 f   LIBCMTD:getqloc.obj
 0001:00039050       _LcidFromHexString         0043a050 f   LIBCMTD:getqloc.obj
 0001:000390d0       _GetPrimaryLen             0043a0d0 f   LIBCMTD:getqloc.obj
 0001:00038374       listnext                   00439374 f   LIBCMTD:strpbrk.obj
 0001:00038381       listdone                   00439381 f   LIBCMTD:strpbrk.obj
 0001:00038384       dstnext                    00439384 f   LIBCMTD:strpbrk.obj
 0001:00038394       dstdone                    00439394 f   LIBCMTD:strpbrk.obj
 0001:00038334       listnext                   00439334 f   LIBCMTD:strcspn.obj
 0001:00038341       listdone                   00439341 f   LIBCMTD:strcspn.obj
 0001:00038348       dstnext                    00439348 f   LIBCMTD:strcspn.obj
 0001:00038356       dstdone                    00439356 f   LIBCMTD:strcspn.obj
 0001:00037c40       __get_lc_lconv             00438c40 f   LIBCMTD:initmon.obj
 0001:00037e50       _fix_grouping              00438e50 f   LIBCMTD:initmon.obj
 0001:00037ed0       __free_lc_lconv            00438ed0 f   LIBCMTD:initmon.obj
 0001:00037a90       _fix_grouping              00438a90 f   LIBCMTD:initnum.obj
 0001:00036f40       __get_lc_time              00437f40 f   LIBCMTD:inittime.obj
 0001:000374d0       __free_lc_time             004384d0 f   LIBCMTD:inittime.obj
 0001:000352c0       _parse_cmdline             004362c0 f   LIBCMTD:stdargv.obj
 0001:00034f70       _xcptlookup                00435f70 f   LIBCMTD:winxfltr.obj
 0001:00034180       _getSystemCP               00435180 f   LIBCMTD:mbctype.obj
 0001:000341e0       _CPtoLCID                  004351e0 f   LIBCMTD:mbctype.obj
 0001:00034260       _setSBCS                   00435260 f   LIBCMTD:mbctype.obj
 0001:000342e0       _setSBUpLow                004352e0 f   LIBCMTD:mbctype.obj
 0001:00032f30       ?FindHandler@@YAXPAUEHExceptionRecord@@PAUEHRegistrationNode@@PAU_CONTEXT@@PAXPBU_s_FuncInfo@@EH1@Z 00433f30 f   LIBCMTD:frame.obj
 0001:000331d0       ?FindHandlerForForeignException@@YAXPAUEHExceptionRecord@@PAUEHRegistrationNode@@PAU_CONTEXT@@PAXPBU_s_FuncInfo@@HH1@Z 004341d0 f   LIBCMTD:frame.obj
 0001:000332f0       ?TypeMatch@@YAHPBU_s_HandlerType@@PBU_s_CatchableType@@PBU_s_ThrowInfo@@@Z 004342f0 f   LIBCMTD:frame.obj
 0001:000334b0       ?FrameUnwindFilter@@YAHPAU_EXCEPTION_POINTERS@@@Z 004344b0 f   LIBCMTD:frame.obj
 0001:000334e0       ?CatchIt@@YAXPAUEHExceptionRecord@@PAUEHRegistrationNode@@PAU_CONTEXT@@PAXPBU_s_FuncInfo@@PBU_s_HandlerType@@PBU_s_CatchableType@@PBU_s_TryBlockMapEntry@@H1E@Z 004344e0 f   LIBCMTD:frame.obj
 0001:000335a0       ?CallCatchBlock@@YAPAXPAUEHExceptionRecord@@PAUEHRegistrationNode@@PAU_CONTEXT@@PBU_s_FuncInfo@@PAXHK@Z 004345a0 f   LIBCMTD:frame.obj
 0001:000336f0       ?ExFilterRethrow@@YAHPAU_EXCEPTION_POINTERS@@@Z 004346f0 f   LIBCMTD:frame.obj
 0001:00033740       ?BuildCatchObject@@YAXPAUEHExceptionRecord@@PAUEHRegistrationNode@@PBU_s_HandlerType@@PBU_s_CatchableType@@@Z 00434740 f   LIBCMTD:frame.obj
 0001:00033a50       ?AdjustPointer@@YAPAXPAXABUPMD@@@Z 00434a50 f   LIBCMTD:frame.obj
 0001:00032260       _strncnt                   00433260 f   LIBCMTD:a_map.obj
 0001:00031ae0       __get_fname                00432ae0 f   LIBCMTD:fpexcept.obj
 0001:00030a90       __cftoe2                   00431a90 f   LIBCMTD:cvt.obj
 0001:00030c70       __cftof2                   00431c70 f   LIBCMTD:cvt.obj
 0001:00030f00       __shift                    00431f00 f   LIBCMTD:cvt.obj
 0001:0002fe81       fFEXP                      00430e81 f   LIBCMTD:87tran.obj
 0001:0002ffc1       _rtforexpinf               00430fc1 f   LIBCMTD:87tran.obj
 0001:0002d320       __hextodec                 0042e320 f   LIBCMTD:input.obj
 0001:0002d380       __inc                      0042e380 f   LIBCMTD:input.obj
 0001:0002d3e0       __un_inc                   0042e3e0 f   LIBCMTD:input.obj
 0001:0002d400       __whiteout                 0042e400 f   LIBCMTD:input.obj
 0001:0002bb20       _write_char                0042cb20 f   LIBCMTD:output.obj
 0001:0002bba0       _write_multi_char          0042cba0 f   LIBCMTD:output.obj
 0001:0002bbe0       _write_string              0042cbe0 f   LIBCMTD:output.obj
 0001:0002bc30       _get_int_arg               0042cc30 f   LIBCMTD:output.obj
 0001:0002bc50       _get_int64_arg             0042cc50 f   LIBCMTD:output.obj
 0001:0002bc70       _get_short_arg             0042cc70 f   LIBCMTD:output.obj
 0001:0002a860       _CrtMessageWindow          0042b860 f   LIBCMTD:dbgrpt.obj
 0001:00029ca0       __setlocale_set_cat        0042aca0 f   LIBCMTD:setlocal.obj
 0001:00029e40       __setlocale_get_all        0042ae40 f   LIBCMTD:setlocal.obj
 0001:00028b60       _flsall                    00429b60 f   LIBCMTD:fflush.obj
 0001:00028250       _fast_error_exit           00429250 f   LIBCMTD:wincrt0.obj
 0001:00027a70       _strtoxl                   00428a70 f   LIBCMTD:strtol.obj
 0001:00027650       _doexit                    00428650 f   LIBCMTD:crt0dat.obj
 0001:00027760       __initterm                 00428760 f   LIBCMTD:crt0dat.obj
 0001:000271b8       findnext                   004281b8 f   LIBCMTD:strstr.obj
 0001:000271c9       loop_start                 004281c9 f   LIBCMTD:strstr.obj
 0001:000271cc       in_loop                    004281cc f   LIBCMTD:strstr.obj
 0001:000271d4       not_found                  004281d4 f   LIBCMTD:strstr.obj
 0001:000271da       first_char_found           004281da f   LIBCMTD:strstr.obj
 0001:000271e1       two_first_chars_equal      004281e1 f   LIBCMTD:strstr.obj
 0001:000271e4       compare_loop               004281e4 f   LIBCMTD:strstr.obj
 0001:00027207       strchr_call                00428207 f   LIBCMTD:strstr.obj
 0001:00027213       match                      00428213 f   LIBCMTD:strstr.obj
 0001:0002721a       empty_str2                 0042821a f   LIBCMTD:strstr.obj
 0001:00026fcd       main_loop                  00427fcd f   LIBCMTD:memcmp.obj
 0001:00026fea       done                       00427fea f   LIBCMTD:memcmp.obj
 0001:00026fec       retnull                    00427fec f   LIBCMTD:memcmp.obj
 0001:00026fed       dwords                     00427fed f   LIBCMTD:memcmp.obj
 0001:00027015       difference_in_tail         00428015 f   LIBCMTD:memcmp.obj
 0001:0002701a       not_equal                  0042801a f   LIBCMTD:memcmp.obj
 0001:00027022       tail_loop_start            00428022 f   LIBCMTD:memcmp.obj
 0001:00027049       tail_done                  00428049 f   LIBCMTD:memcmp.obj
 0001:00026cb0       LeadUp1                    00427cb0 f   LIBCMTD:memmove.obj
 0001:00026cdc       LeadUp2                    00427cdc f   LIBCMTD:memmove.obj
 0001:00026d00       LeadUp3                    00427d00 f   LIBCMTD:memmove.obj
 0001:00026d7f       UnwindUp0                  00427d7f f   LIBCMTD:memmove.obj
 0001:00026d6c       UnwindUp1                  00427d6c f   LIBCMTD:memmove.obj
 0001:00026d64       UnwindUp2                  00427d64 f   LIBCMTD:memmove.obj
 0001:00026d5c       UnwindUp3                  00427d5c f   LIBCMTD:memmove.obj
 0001:00026d54       UnwindUp4                  00427d54 f   LIBCMTD:memmove.obj
 0001:00026d4c       UnwindUp5                  00427d4c f   LIBCMTD:memmove.obj
 0001:00026d44       UnwindUp6                  00427d44 f   LIBCMTD:memmove.obj
 0001:00026d3c       UnwindUp7                  00427d3c f   LIBCMTD:memmove.obj
 0001:00026d98       TrailUp0                   00427d98 f   LIBCMTD:memmove.obj
 0001:00026da0       TrailUp1                   00427da0 f   LIBCMTD:memmove.obj
 0001:00026dac       TrailUp2                   00427dac f   LIBCMTD:memmove.obj
 0001:00026dc0       TrailUp3                   00427dc0 f   LIBCMTD:memmove.obj
 0001:00026e38       LeadDown1                  00427e38 f   LIBCMTD:memmove.obj
 0001:00026e58       LeadDown2                  00427e58 f   LIBCMTD:memmove.obj
 0001:00026e80       LeadDown3                  00427e80 f   LIBCMTD:memmove.obj
 0001:00026ed4       UnwindDown7                00427ed4 f   LIBCMTD:memmove.obj
 0001:00026edc       UnwindDown6                00427edc f   LIBCMTD:memmove.obj
 0001:00026ee4       UnwindDown5                00427ee4 f   LIBCMTD:memmove.obj
 0001:00026eec       UnwindDown4                00427eec f   LIBCMTD:memmove.obj
 0001:00026ef4       UnwindDown3                00427ef4 f   LIBCMTD:memmove.obj
 0001:00026efc       UnwindDown2                00427efc f   LIBCMTD:memmove.obj
 0001:00026f04       UnwindDown1                00427f04 f   LIBCMTD:memmove.obj
 0001:00026f17       UnwindDown0                00427f17 f   LIBCMTD:memmove.obj
 0001:00026f30       TrailDown0                 00427f30 f   LIBCMTD:memmove.obj
 0001:00026f38       TrailDown1                 00427f38 f   LIBCMTD:memmove.obj
 0001:00026f48       TrailDown2                 00427f48 f   LIBCMTD:memmove.obj
 0001:00026f5c       TrailDown3                 00427f5c f   LIBCMTD:memmove.obj
 0001:00026c60       CopyUp                     00427c60 f   LIBCMTD:memmove.obj
 0001:00026c7c       CopyLeadUp                 00427c7c f   LIBCMTD:memmove.obj
 0001:00026c94       ByteCopyUp                 00427c94 f   LIBCMTD:memmove.obj
 0001:00026c9c       CopyUnwindUp               00427c9c f   LIBCMTD:memmove.obj
 0001:00026dd8       CopyDown                   00427dd8 f   LIBCMTD:memmove.obj
 0001:00026e00       CopyUnwindDown             00427e00 f   LIBCMTD:memmove.obj
 0001:00026e0c       CopyLeadDown               00427e0c f   LIBCMTD:memmove.obj
 0001:00026e24       ByteCopyDown               00427e24 f   LIBCMTD:memmove.obj
 0001:00026aa8       _gu_return                 00427aa8 f   LIBCMTD:exsup.obj
 0001:00026ab0       __unwind_handler           00427ab0 f   LIBCMTD:exsup.obj
 0001:00026860       ?CatchGuardHandler@@YA?AW4_EXCEPTION_DISPOSITION@@PAUEHExceptionRecord@@PAUCatchGuardRN@@PAX2@Z 00427860 f   LIBCMTD:trnsctrl.obj
 0001:00026970       ?TranslatorGuardHandler@@YA?AW4_EXCEPTION_DISPOSITION@@PAUEHExceptionRecord@@PAUTranslatorGuardRN@@PAX2@Z 00427970 f   LIBCMTD:trnsctrl.obj
 0001:00026621       L1                         00427621 f   LIBCMTD:lldiv.obj
 0001:0002663d       L2                         0042763d f   LIBCMTD:lldiv.obj
 0001:00026659       L3                         00427659 f   LIBCMTD:lldiv.obj
 0001:00026667       L5                         00427667 f   LIBCMTD:lldiv.obj
 0001:00026695       L6                         00427695 f   LIBCMTD:lldiv.obj
 0001:00026696       L7                         00427696 f   LIBCMTD:lldiv.obj
 0001:0002669a       L4                         0042769a f   LIBCMTD:lldiv.obj
 0001:000266a4       L8                         004276a4 f   LIBCMTD:lldiv.obj
 0001:000265a1       L1                         004275a1 f   LIBCMTD:ullrem.obj
 0001:000265af       L3                         004275af f   LIBCMTD:ullrem.obj
 0001:000265da       L4                         004275da f   LIBCMTD:ullrem.obj
 0001:000265e2       L5                         004275e2 f   LIBCMTD:ullrem.obj
 0001:000265f1       L2                         004275f1 f   LIBCMTD:ullrem.obj
 0001:00026532       L1                         00427532 f   LIBCMTD:ulldiv.obj
 0001:00026540       L3                         00427540 f   LIBCMTD:ulldiv.obj
 0001:0002656e       L4                         0042756e f   LIBCMTD:ulldiv.obj
 0001:0002656f       L5                         0042756f f   LIBCMTD:ulldiv.obj
 0001:00026573       L2                         00427573 f   LIBCMTD:ulldiv.obj
 0001:00026489       hard                       00427489 f   LIBCMTD:llmul.obj
 0001:00025d3d       dest_misaligned            00426d3d f   LIBCMTD:strcat.obj
 0001:00025d4c       find_end_of_dest_string_loop 00426d4c f   LIBCMTD:strcat.obj
 0001:00025d7f       start_byte_3               00426d7f f   LIBCMTD:strcat.obj
 0001:00025d84       start_byte_2               00426d84 f   LIBCMTD:strcat.obj
 0001:00025d89       start_byte_1               00426d89 f   LIBCMTD:strcat.obj
 0001:00025d8e       start_byte_0               00426d8e f   LIBCMTD:strcat.obj
 0001:00025d9d       src_misaligned             00426d9d f   LIBCMTD:strcat.obj
 0001:00025db1       main_loop                  00426db1 f   LIBCMTD:strcat.obj
 0001:00025db6       main_loop_entrance         00426db6 f   LIBCMTD:strcat.obj
 0001:00025dea       byte_3                     00426dea f   LIBCMTD:strcat.obj
 0001:00025df2       byte_2                     00426df2 f   LIBCMTD:strcat.obj
 0001:00025dff       byte_1                     00426dff f   LIBCMTD:strcat.obj
 0001:00025e08       byte_0                     00426e08 f   LIBCMTD:strcat.obj
 0001:00025d91       copy_start                 00426d91 f   LIBCMTD:strcat.obj
 0001:00025c50       _$$$00001                  00426c50 f   LIBCMTD:strchr.obj
 0001:00025c78       str_misaligned             00426c78 f   LIBCMTD:strchr.obj
 0001:00025c8b       main_loop_start            00426c8b f   LIBCMTD:strchr.obj
 0001:00025c96       main_loop                  00426c96 f   LIBCMTD:strchr.obj
 0001:00025cd2       retnull                    00426cd2 f   LIBCMTD:strchr.obj
 0001:00025cd4       retnull_bx                 00426cd4 f   LIBCMTD:strchr.obj
 0001:00025cd8       chr_is_found               00426cd8 f   LIBCMTD:strchr.obj
 0001:00025d00       byte_3                     00426d00 f   LIBCMTD:strchr.obj
 0001:00025d07       byte_2                     00426d07 f   LIBCMTD:strchr.obj
 0001:00025d0e       byte_1                     00426d0e f   LIBCMTD:strchr.obj
 0001:00025d15       byte_0                     00426d15 f   LIBCMTD:strchr.obj
 0001:00025c50       found_bx                   00426c50 f   LIBCMTD:strchr.obj
 0001:000256ea       okay                       004266ea f   LIBCMTD:strncmp.obj
 0001:000256fd       firstbig                   004266fd f   LIBCMTD:strncmp.obj
 0001:000256ff       lastbig                    004266ff f   LIBCMTD:strncmp.obj
 0001:00025701       toend                      00426701 f   LIBCMTD:strncmp.obj
 0001:00023c30       _realloc_help              00424c30 f   LIBCMTD:dbgheap.obj
 0001:00024870       _CheckBytes                00425870 f   LIBCMTD:dbgheap.obj
 0001:00025460       __printMemBlockData        00426460 f   LIBCMTD:dbgheap.obj
 0001:00022620       dodwords                   00423620 f   LIBCMTD:strcmp.obj
 0001:00022650       doneeq                     00423650 f   LIBCMTD:strcmp.obj
 0001:00022654       donene                     00423654 f   LIBCMTD:strcmp.obj
 0001:0002265c       dopartial                  0042365c f   LIBCMTD:strcmp.obj
 0001:00022678       doword                     00423678 f   LIBCMTD:strcmp.obj
 0001:000224b0       _$$$00001                  004234b0 f   LIBCMTD:chkstk.obj
 0001:000224bc       probepages                 004234bc f   LIBCMTD:chkstk.obj
 0001:000224d0       lastpage                   004234d0 f   LIBCMTD:chkstk.obj
 0001:00022473       adjust_loop                00423473 f   LIBCMTD:memset.obj
 0001:00022479       dwords                     00423479 f   LIBCMTD:memset.obj
 0001:00022493       main_loop_tail             00423493 f   LIBCMTD:memset.obj
 0001:00022497       tail                       00423497 f   LIBCMTD:memset.obj
 0001:0002249d       finish                     0042349d f   LIBCMTD:memset.obj
 0001:000224a3       toend                      004234a3 f   LIBCMTD:memset.obj
 0001:000223dc       str_misaligned             004233dc f   LIBCMTD:strlen.obj
 0001:000223f0       main_loop                  004233f0 f   LIBCMTD:strlen.obj
 0001:00022423       byte_3                     00423423 f   LIBCMTD:strlen.obj
 0001:0002242d       byte_2                     0042342d f   LIBCMTD:strlen.obj
 0001:00022437       byte_1                     00423437 f   LIBCMTD:strlen.obj
 0001:00022441       byte_0                     00423441 f   LIBCMTD:strlen.obj
 0001:00021ff0       LeadUp1                    00422ff0 f   LIBCMTD:memcpy.obj
 0001:0002201c       LeadUp2                    0042301c f   LIBCMTD:memcpy.obj
 0001:00022040       LeadUp3                    00423040 f   LIBCMTD:memcpy.obj
 0001:000220bf       UnwindUp0                  004230bf f   LIBCMTD:memcpy.obj
 0001:000220ac       UnwindUp1                  004230ac f   LIBCMTD:memcpy.obj
 0001:000220a4       UnwindUp2                  004230a4 f   LIBCMTD:memcpy.obj
 0001:0002209c       UnwindUp3                  0042309c f   LIBCMTD:memcpy.obj
 0001:00022094       UnwindUp4                  00423094 f   LIBCMTD:memcpy.obj
 0001:0002208c       UnwindUp5                  0042308c f   LIBCMTD:memcpy.obj
 0001:00022084       UnwindUp6                  00423084 f   LIBCMTD:memcpy.obj
 0001:0002207c       UnwindUp7                  0042307c f   LIBCMTD:memcpy.obj
 0001:000220d8       TrailUp0                   004230d8 f   LIBCMTD:memcpy.obj
 0001:000220e0       TrailUp1                   004230e0 f   LIBCMTD:memcpy.obj
 0001:000220ec       TrailUp2                   004230ec f   LIBCMTD:memcpy.obj
 0001:00022100       TrailUp3                   00423100 f   LIBCMTD:memcpy.obj
 0001:00022178       LeadDown1                  00423178 f   LIBCMTD:memcpy.obj
 0001:00022198       LeadDown2                  00423198 f   LIBCMTD:memcpy.obj
 0001:000221c0       LeadDown3                  004231c0 f   LIBCMTD:memcpy.obj
 0001:00022214       UnwindDown7                00423214 f   LIBCMTD:memcpy.obj
 0001:0002221c       UnwindDown6                0042321c f   LIBCMTD:memcpy.obj
 0001:00022224       UnwindDown5                00423224 f   LIBCMTD:memcpy.obj
 0001:0002222c       UnwindDown4                0042322c f   LIBCMTD:memcpy.obj
 0001:00022234       UnwindDown3                00423234 f   LIBCMTD:memcpy.obj
 0001:0002223c       UnwindDown2                0042323c f   LIBCMTD:memcpy.obj
 0001:00022244       UnwindDown1                00423244 f   LIBCMTD:memcpy.obj
 0001:00022257       UnwindDown0                00423257 f   LIBCMTD:memcpy.obj
 0001:00022270       TrailDown0                 00423270 f   LIBCMTD:memcpy.obj
 0001:00022278       TrailDown1                 00423278 f   LIBCMTD:memcpy.obj
 0001:00022288       TrailDown2                 00423288 f   LIBCMTD:memcpy.obj
 0001:0002229c       TrailDown3                 0042329c f   LIBCMTD:memcpy.obj
 0001:00021fa0       CopyUp                     00422fa0 f   LIBCMTD:memcpy.obj
 0001:00021fbc       CopyLeadUp                 00422fbc f   LIBCMTD:memcpy.obj
 0001:00021fd4       ByteCopyUp                 00422fd4 f   LIBCMTD:memcpy.obj
 0001:00021fdc       CopyUnwindUp               00422fdc f   LIBCMTD:memcpy.obj
 0001:00022118       CopyDown                   00423118 f   LIBCMTD:memcpy.obj
 0001:00022140       CopyUnwindDown             00423140 f   LIBCMTD:memcpy.obj
 0001:0002214c       CopyLeadDown               0042314c f   LIBCMTD:memcpy.obj
 0001:00022164       ByteCopyDown               00423164 f   LIBCMTD:memcpy.obj
 0001:00021ea4       src_misaligned             00422ea4 f   LIBCMTD:strncpy.obj
 0001:00021ec0       tail_loop_start            00422ec0 f   LIBCMTD:strncpy.obj
 0001:00021ec5       copy_tail_loop             00422ec5 f   LIBCMTD:strncpy.obj
 0001:00021ed2       fill_tail_end1             00422ed2 f   LIBCMTD:strncpy.obj
 0001:00021eda       align_dest                 00422eda f   LIBCMTD:strncpy.obj
 0001:00021ee2       dest_align_loop            00422ee2 f   LIBCMTD:strncpy.obj
 0001:00021ef4       dest_align_loop_end        00422ef4 f   LIBCMTD:strncpy.obj
 0001:00021efb       finish_loop                00422efb f   LIBCMTD:strncpy.obj
 0001:00021efe       fill_tail_zero_bytes       00422efe f   LIBCMTD:strncpy.obj
 0001:00021f03       finish                     00422f03 f   LIBCMTD:strncpy.obj
 0001:00021f09       main_loop                  00422f09 f   LIBCMTD:strncpy.obj
 0001:00021f11       main_loop_entrance         00422f11 f   LIBCMTD:strncpy.obj
 0001:00021f47       byte_2                     00422f47 f   LIBCMTD:strncpy.obj
 0001:00021f51       byte_1                     00422f51 f   LIBCMTD:strncpy.obj
 0001:00021f5b       byte_0                     00422f5b f   LIBCMTD:strncpy.obj
 0001:00021f5f       fill_with_EOS_dwords       00422f5f f   LIBCMTD:strncpy.obj
 0001:00021f67       fill_dwords_with_EOS       00422f67 f   LIBCMTD:strncpy.obj
 0001:00021f69       fill_with_EOS_loop         00422f69 f   LIBCMTD:strncpy.obj
 0001:00021f71       fill_tail                  00422f71 f   LIBCMTD:strncpy.obj
 0001:00021f76       fill_tail_end              00422f76 f   LIBCMTD:strncpy.obj
 0001:00021e71       returndi                   00422e71 f   LIBCMTD:strrchr.obj
 0001:00021e73       toend                      00422e73 f   LIBCMTD:strrchr.obj
 0001:00021c3b       front_misaligned           00422c3b f   LIBCMTD:strncat.obj
 0001:00021c4a       find_end_of_front_string_loop 00422c4a f   LIBCMTD:strncat.obj
 0001:00021c7b       start_byte_3               00422c7b f   LIBCMTD:strncat.obj
 0001:00021c7e       start_byte_2               00422c7e f   LIBCMTD:strncat.obj
 0001:00021c83       start_byte_1               00422c83 f   LIBCMTD:strncat.obj
 0001:00021c88       start_byte_0               00422c88 f   LIBCMTD:strncat.obj
 0001:00021c8b       copy_start                 00422c8b f   LIBCMTD:strncat.obj
 0001:00021ca0       back_misaligned            00422ca0 f   LIBCMTD:strncat.obj
 0001:00021cbc       tail_loop_start            00422cbc f   LIBCMTD:strncat.obj
 0001:00021cc3       tail_loop                  00422cc3 f   LIBCMTD:strncat.obj
 0001:00021cd0       empty_counter              00422cd0 f   LIBCMTD:strncat.obj
 0001:00021cd2       finish1                    00422cd2 f   LIBCMTD:strncat.obj
 0001:00021cd4       finish                     00422cd4 f   LIBCMTD:strncat.obj
 0001:00021cda       byte_0                     00422cda f   LIBCMTD:strncat.obj
 0001:00021ce4       main_loop                  00422ce4 f   LIBCMTD:strncat.obj
 0001:00021cec       main_loop_entrance         00422cec f   LIBCMTD:strncat.obj
 0001:00021d1e       byte_3                     00422d1e f   LIBCMTD:strncat.obj
 0001:00021d28       byte_2                     00422d28 f   LIBCMTD:strncat.obj
 0001:00021d38       byte_1                     00422d38 f   LIBCMTD:strncat.obj

FIXUPS: 236f6 44 4b fffffd60 d 2d 12 11 46 20 2d 18 fffffd4f 2a 33 1a ffffff11
FIXUPS: 232d5 fffffaa7 2a 45 4b 18a4 fffff7d6 2f 46 48 190 fffffba4 35
FIXUPS: 23cee a6 10 31 2c 44 2c fffffca6 50 c c 5b 72 fffffc6e 85 69 33
FIXUPS: 23a67 34 fffffd2b 2a 44 4b fffffe4d 2d32 18 f 1a 88 69 2a 34 39
FIXUPS: 265dd 7c 2a 28 ffffdad6 82 2f 83 7d 11 b8 b d6 b 65 b 7c 30 e b
FIXUPS: 24634 32 45 1481 2b 39 20 49 33 22 67 47 7e 17 1c 4c 15 4d 5a 11
FIXUPS: 25f22 1b ec 33 49 10e 1a a1 20 31 28 4f 3a 31 18 fffff0ca c 41
FIXUPS: 2553b 56 36 c 2b 1c 2c 1c 16 c 1f 62 51 1f 45 c 5a 1f 93 57 8 51
FIXUPS: 259ad 28 28 28 16 94 2b fffff2c9 18 1f 5b 66 25 25 b3 19 59 5f
FIXUPS: 250dd 85 15 1e d 18 20 1c 10 a 24 1c 50 1d 1f 62 34 3b 2b 3b 45
FIXUPS: 268dc ffffde78 26 28 15 18 d 1d 25 2f 1c 69 28 5f 54 21 128 1e
FIXUPS: 24b2f 33 2f 51 15 1e d 35 21 1b 1c 6b 28 32 1e40 16 1d 29 25 fffffded
FIXUPS: 26a50 28 1e 2c 12 21 20 25 fffffdfd 5 a fffffde8 14 1b 25 14 10
FIXUPS: 267b3 10 b 3d 3b 14 60 7 14 c1b b fffffe75 2e 2a 2e 14 22 f 23
FIXUPS: 27149 18 f af 7a 6a fffffd12 31 c f 4c 27 f f 27 fffffd50 1c 13
FIXUPS: 26f05 a7 fffffbb5 2b 18f9 9d 22 2b fffffcd7 2a 1e c 17 13 c ffffff3f
FIXUPS: 2805d ffffff2d fffffc3c 1b d 18 14 f fffffe7b fffffca4 60 33 63
FIXUPS: 2788d 9e 93 19 4d 4a fffffa61 15db 141 52 35 d1 7f fffffc4d 29
FIXUPS: 287a9 29 da 73 49 4a fffffbfb 12 1d 20 1e 20 1b 77 12 13 19 b 31
FIXUPS: 28756 fffffbf2 24 13 5b d63 8 b f 10 a 5 5 16 39 c 17 10 28 9 27
FIXUPS: 29266 fffffcc8 18 14 f 38 3b 2c 1b 6c fffffd6d 2a 2b 57 55 fffffb65
FIXUPS: 298e0 18 44 15 27 fffffdb6 18 10 f 39 5f fffffe53 1e 4e 15 2b fffffcdd
FIXUPS: 293f1 f af 5a 4f 79 fffffcc2 18 a 16 13 28 30 30 fffffdc9 e98 39
FIXUPS: 2a068 6a 11 fffffbdd 1e 11 10 89 11 61 73 57 73 26 fffffaa0 e c
FIXUPS: 29a26 22 28 78 6e 21 68 33 40 25 f fffffd5e ffffffb5 1953 fffff4a4
FIXUPS: 2a7f0 13 a 34 a fffffc90 13 2b c 2a 50 c 2b 3d c 3a fffffc05 18
FIXUPS: 2a282 10 c0 80 20 27 d 4a 18 fffffb06 18 11 d10 26 c 47 1b 40 50
FIXUPS: 2ae1c 4c 4e 1a 25 2a 9b 19 1b 26 2e 1b 14 19 19 11 67 27 40 2a
FIXUPS: 2b1f1 2e 33 4a 25 6a0 19d 18 19 19 a fffff7b3 31 21 1f d 21 10
FIXUPS: 2a8cf 43 8c 48 51 19 2f 2d 39 21 5a 38 47 17 31 11 1a 22 10 1f3c
FIXUPS: 2cc13 ffffef7d 108 10 3e 54 4d 28 fffff72a 10b 2a 18 38 16 2b 14
FIXUPS: 2b6e1 18 18 7a 63 34 47 1e d 2f 15 11 1d 21 14 157f 1a 1d e ffffefe7
FIXUPS: 2bf1a 24 cb 67 133 18 21 34 30 a8 e2 142 ba 31 1e 2a 1b 11d 25
FIXUPS: 2c8be 1e 30 75 32 22 26 170 124a 4a 3d 76 6c 62 20 77 27 70 46
FIXUPS: 2e125 35 44 35 1c 147 8a 32 24 f ffffe870 2a 2e 37 81 2a 21 62
FIXUPS: 2ce6c 1a 1a 18d 19 a4 1aa 1d 118 1de 32 97 1f 58 a8 28 33 43 64
FIXUPS: 2d8d7 41 12 2f 4d 23 10 70 24 5a 46 2f c1 24 e5 39 1023 2f 14 f
FIXUPS: 2ec4e 2b 29 30 c d fffffeec 1b fffffe6e 60 31 2a a7 fffffdbe 5c
FIXUPS: 2ea1d 1f fffffb7c 13 e8 29a fffffbd0 3a ffffff82 ffffea8d 2d 47
FIXUPS: 2d024 4039 15 ffffe830 191 19 de0 ffffe8e1 ffffff51 8 12 27 b 2a
FIXUPS: 2efef c 19 a c fffffdd7 17 22 c 2c 18 3f 10 70 10 a c 53 fffffd94
FIXUPS: 31c5c 94 35 68 12 34 33 48 3c 36 1c 1a 18 17 fffff8c5 ffffff54
FIXUPS: 315f7 c8 1d 27 fffffc77 5e 7 fffffead fffffc24 12 1d 5 55 3c 7
FIXUPS: 30fab 118c c 3e e 11 182 1d8 1ac 2b 33 1b6 f4 27 36 44 c 10 16
FIXUPS: 32a8d 32 d ffffed42 28 19f 20 3a 2f 1a 48 60 ff 27 183c 2a fffffe36
FIXUPS: 332ed 14 c f 1e 1b c 10 29 2d fffffc1e 98 f6 fffffac7 1c3 17 fffff167
FIXUPS: 31f85 14 52 a 14 2a 2c c 3a e 11 2f 277f f 1c 12 21 d a 13 16 13
FIXUPS: 3494b 14 15 14 7 17 6b 20 fffff0b5 2a 2a 227 fffff8a1 b 14 14 f
FIXUPS: 3377b b 23 2c5 fffff992 e23 b2 63 ce 36 12 38 4c 31 16 f 17 37
FIXUPS: 3458f 4e b b b 2d 18 20 24 b 37 a e5 12 24 f 1f 12 1e 404 21 7e
FIXUPS: 34db7 33 fffffd34 12 2f 25 b 8 74 fffffeb4 22 fffff37a 32 92 3f
FIXUPS: 33f9f 10 b 15 15 31 51 ba 3c 27 37 a 13 27 17c6 27 11 4c fffffd81
FIXUPS: 357e5 13 6d a7 fffffd54 f e8 fffff6e2 c 18 15 5 7 114 43 7 10a
FIXUPS: 35130 7 15 5 7 e 267 35 35 1e8 12ce fffff903 56 1e 13 22 fffffe07
FIXUPS: 360d6 28 1f 29 26 17 12 1c fffffe2d 41 fffffd98 13 fffffcf4 18
FIXUPS: 35ae2 f 3f 3e bf 8e 70 fffffc57 b 14 14 12cd b 14 14 f 6d 1a2 b
FIXUPS: 36eee 3e b fffffadd 1c 77 3a 59 15 17 1d 14 13 14 1a 19 fffffd7e
FIXUPS: 3697c 11 2f 25 fffffe03 4a 94 e9a 10 3e 54 4d 3c fffffcfb 17 2e
FIXUPS: 375f4 a 16 fffffd9a 18 18 f 33 3b 2c 23 6e fffffb38 18 c 12 3a
FIXUPS: 37100 d7 98 85 fffffc8a 37 170e 11 11 11 14 14 14 14 14 14 14 14
FIXUPS: 387aa 14 14 fffff618 14 fffffe0a 24 13 4a de 3e fffffc5b 86 2a
FIXUPS: 378e8 21 13 50 5e fffffc86 e00 22 22 25 2f 11 11 11 11 11 10 11
FIXUPS: 3856f 11 11 11 11 11 11 11 11 11 11 11 11 11 11 11 11 11 11 11
FIXUPS: 38058 1f 1f 1f 1f 1f 1f 1f 1f 1f 1f 1f 1f 1f 1f 1f 1f 1f 1f 1f
FIXUPS: 382c4 1f 1f 1f 1f 22 22 22 22 22 22 22 3e5 1d 1d 17 16 11 11 46
FIXUPS: 388f5 14 5b 11 10 34 30 16 3b fffff448 1f 10 e 1e 11 25 11 5e 1f
FIXUPS: 37fc0 1f 1f 1f 1c 12b6 fffff840 1f 10 e 4c 11 4f 11 4d 1f 1f 1f
FIXUPS: 38cf2 17 17 1f 1f 1f 1f 1f 1f 1f 1f 1f bd 11 11 11 11 11 11 b51
FIXUPS: 39b00 1b 52 12 4b 51 52 10 93 3d 33 a3 1a 11 198 ffffefca 1f 19
FIXUPS: 39001 19 108 65 a6 22 17 e 15 e e e 2b fd4 4b 5d 17 b5 ffffef8a
FIXUPS: 393d9 34 35 3e 7 1c 7 1f c7 51 5a 1d 39 6a 55 5a 62 28 2b 83 59
FIXUPS: 39951 74 12 54 2f 121a 43 50 50 4d 65 60 fffff5fe 43 9 82 24 27
FIXUPS: 3a5aa 17 58 50 44 1d 16 c4 13 28 16 1d a 96 f2 10 fffff7aa 18 11b
FIXUPS: 3c05c 28 1e 2c 38 16 22 23 ac 4e 23 125 1c 2b 37 1d 2b 13 b7 fffff97e
FIXUPS: 3bf23 13 24 17 fffff076 1d fffffad3 4d 40 40 43 4d 200d 14 26f
FIXUPS: 3cedd 1c 13 2a 3a 10 13 16 26 1e 41 93 20 68 82 10 30 10 30 10
FIXUPS: 3c601 21 21 24 2a 19 c fffff95a 21 16a2 b a9 b c8 e b 43 c 34 c
FIXUPS: 3d93a 65 11 11 c 23 1d 11 c 18 15 c 5d fffffaa6 fffffe19 28 29
FIXUPS: 3d348 17 fffff815 41 1ffd a 21 154 31c 20 1f0 ffffeb97 b 17 18
FIXUPS: 3de40 37 11 45 fffffd0f 20 20 23 20 20 20 1d 20 20 2d fffffe8d
FIXUPS: 3dbc0 a fffff9ea b6 b dea 2c 9 2c 9 3d 54 84 8d 7e 23 23 23 3a
FIXUPS: 3e7dd 24 51 2a 28 45 2d 2d 28 28 1c 29 41 84 3a 24 31 36 fffff480
FIXUPS: 3e010 9 71 15 1b 51 9 2e 9 6e 15 37 15 1e 14 1c 1c 1c 1b 36 3a
FIXUPS: 3e334 2e 9 48 9 2e 9 2e 9 2c 1812 43 28 31 16 14 fffffcd3 25 a
FIXUPS: 3fa61 fffffeb0 24 a 23 fffffdca 1b 76 be fffffb61 33 2c 32 20 2e
FIXUPS: 3f4cf 1b 43 6f ffffe9bd 15 1b 50 2fb9 10 c fffff35c 14d eb 1c8
FIXUPS: 40796 152 6d 238 13 fffff1f7 21 35 35 13a c 10 c 27 6c fffffa7a
FIXUPS: 3fabc 28 2c 3a 26 1c 5e 25 28 1cf2 53 25 23 fffff74e 14 10 f 24
FIXUPS: 411a0 1c 1f 49 11 71 17 a 40 1d c 25 13 14 fffff976 43 33 24 bd
FIXUPS: 40e76 9b 32 43 1362 4f 1df fffffa40 fffffe5e fffff5eb 11 14 12
FIXUPS: 413de 7 1b 2b 17 150 e 15 18 c 18 17 a 15 3b 5b 52 6c 2c c d b0
FIXUPS: 418c3 161e 5a c 19 42 3c a7 19 28 c 21 fffff822 19 d9 13f 9e fffffc3c
FIXUPS: 42863 ffffff4b fffffed9 c d 3e 29 19 2c fffffe16 14 10 f c6 fffffc1d
FIXUPS: 1e5eb 3a e 14 1e 47 10b e 115 2e 2c 5 5 5 16 50 24b9a c 19 fffffbce
FIXUPS: 43145 58 28 29 fffffaf6 45 29 3a 40 3e 33 4b fffdb0c6 16 27 13
FIXUPS: 1dfbb 13 1d 13 2d 20 23 f 1e 20 13 71 30 11 15 14 22 25 2b 13 3b
FIXUPS: 1e27c d7 18 2566c b fffda9be 238 fffff5be c 11 16 27 c 13 24 14
FIXUPS: 1dc51 c a 22 4b 17 11 28 2b e 21 1f 17 11 22 1a 17 4c 46 34 16
FIXUPS: 1df1b 13 fffff9f7 9 13 14 9 16 10 11 1e 9 19 13 f 13 6 1f 16 1d
FIXUPS: 1da8c c a c 6 3a c a c 6 16 1e 15 d fffffb35 10 c a d d 18 1e 9
FIXUPS: 1d739 1b 1a 16 f c 1f 29 10 20 6 15 18 19 d 15 16 22 21 10 a 9
FIXUPS: 1d911 fffff9da a 25 a 2a 15 10 17 65 c a 29 6 2a b 17 10 51 30
FIXUPS: 1d582 14 263fe b fffd9c6f 1f 1b f 2635d c b fffd9cb1 10 fffff8a5
FIXUPS: 43925 b fffd965b 34 26996 b fffd96c0 12 1b 26927 c b fffd96ef d
FIXUPS: 1d092 8 23 20 2a 46 3b 2f 11 30 30 20 10 11 d 6 63 fffff7fc 31
FIXUPS: 4382a 12 12 12 12 12 12 e fffd92f9 28 17 a a 4b 48 26c42 b fffd941b
FIXUPS: 1cd1f 26bd6 b fffd947e 1b 7 23 18 49 21 c 9a fffff84e 12 1e 20
FIXUPS: 1c794 5 14 1c 20 b 5 14 1c 20 29 32 1d 20 25 20 25 24 25 26 31
FIXUPS: 1c9f7 20 25 26 31 16 c 3ef0 df 5 5 5 16 20 ffffba8b 5 12 1e 20
FIXUPS: 1c5b4 5 12 1e 20 b 5 14 1c 20 15 b 1b 5 14 1c 20 15 b 1b 3bf2 44
FIXUPS: 2039e 16 27 13 20 16 27 13 1d 13 41 30 12 15 14 1f 22 38 18 235dc
FIXUPS: 43bb2 fffdca4e 238 13 3a e 14 1e 44 8e fffff5e9 6 16 1e 15 e 2c
FIXUPS: 20015 11 16 27 c 13 24 14 a c a 5f 5b 17 11 28 2b e 21 1f 17 11
FIXUPS: 202a7 1a 17 fffffa35 31 10 a 9 11 14 9 14 14 9 16 11 11 1e 9 1b
FIXUPS: 1fe4f f 13 6 1f 17 20 2f c a c 6 3a c a fffffac3 2414d c b fffdbec0
FIXUPS: 1fa6c 15 10 c a d e 1a 1e 9 1b 1d 1b 16 f c 1f 29 10 20 6 17 1b
FIXUPS: 1fc52 f 1f 1a fffff910 11 e 6 70 c a 27 a 2d 16 11 17 4f 8f c a
FIXUPS: 1f810 6 2d b 18 11 5a 30 71 14 241de b fffdbe7f 1f 1b 2406d b fffdb70b
FIXUPS: 1f1df 248e6 b fffdb76e 1b 7 23 21 21 c 9a 46 24744 b fffdb90b 34
FIXUPS: 43b25 b fffdb970 12 1b 24677 c b fffdb9ac 11 30 30 21 fffff868
FIXUPS: 1ee26 20 25 20 25 24 25 26 32 c 26 31 16 c 26 31 249cd 12 12 12
FIXUPS: 43a42 12 12 e fffdb5e9 28 17 a a 4b 48 fffff9f1 5 12 1e 20 b 5
FIXUPS: 1ebad 1c 20 15 b 1b 5 14 1c 20 15 b 1b 5 14 1c 20 b 5 14 1c 20
FIXUPS: 1ed92 32 1d 20a3 1d e 1c 13 21 25 5 5 5 16 20 ffffda6b 5 10 10
FIXUPS: 1ea19 b 5 10 10 20 b 5 12 1e 20 b 5 12 1e 20 2509b b fffdcf95 19
FIXUPS: 43be4 b fffdcfcf 23 e 44 f 22fc2 b fffdd05c 13 21 4e 16 22f21 b
FIXUPS: 20d44 1d e 1c 13 21 49 13 e 22e1b b fffdd200 838 3a 2a 2d 225ed
FIXUPS: 43d11 fffddab6 12 2254e b fffddb3f 13 e 6e 26 2d 223f1 a c fffddc63
FIXUPS: 21a30 23 14 54 24 2e 3d fffff4a5 ffffff99 fffffb80 13 e 23186 fffdd5fc
FIXUPS: 212be 21 4e 16 22981 b fffdd6b5 1d e 1c 13 21 3a 12 68 17 14 f
FIXUPS: 2151b 3b 3a 1f 20 41 16 a c 17 22691 b fffde630 1c 9 12 16 19 20
FIXUPS: 223ed 9 5a 14 5 5 5 16 20 ffffec48 55 13 e 22afd b fffdd535 19
FIXUPS: 43c84 b fffdd56f 23 e 44 f 22a22 fffde31c 15 c 1f 2d 21d87 a 10
FIXUPS: 43ddc fffde293 1b 36 21d24 b fffde315 42 21cbe b fffde3bc 13 1d
FIXUPS: 2220e 44 3c 35 f f f 21b34 c 9 b fffddd65 20 e 8 f 35 7 1d 25 220f9
FIXUPS: 43d71 fffddf4c 91 1f 47 47 18 10 1d 15 14 c 32 21edd 9 9 b fffde15c
FIXUPS: 21f3f 1b 1a 29 ba2 35 1d e 1c 13 21 2a fffff8cf 2c 13 55 dd a7
FIXUPS: 2273b 55 58 44 13 49 45 33 19 6b 49 19 2b 61 3b fffff0c7 5 12 fffe00dd
FIXUPS: 1cd2 d 36 23 f 68 13 7d f 74 24 f 1e 19 17 5 f b 5 f f 10 a 5 f
FIXUPS: 1fc2 10 20b2c a 10 e fffde9f6 2a e e e e 194 31 bd 11 19 54 59
FIXUPS: 18e6 27 4b 35 10 4f 45 21 4c 21 13 42 2f 20 f 2a 1a 20 17 ae9 ffffe947
FIXUPS: 1091 1b 13 19 1b 1a f 13 33 16 19 f 36 40 34 22 2b 13 78 f 23 27
FIXUPS: 13b4 39 13 13 78 f 1d 38 dff 22 4e d 42 6a 1a 86 1d 29 19 26 f
FIXUPS: 2554 53 12 22 19 12 22 1f 5 f b 5 f f 10 a 5 f f bab f f 10 fffff48c
FIXUPS: 2767 5 f b 5 f f 10 a 5 f f 10 fffff848 21 1c 1f 38 61 1a 5e 3a
FIXUPS: 2213 c 2f 11 76 fd4 5 f b 5 f f 10 a 5 f f 10 fffff8c0 23 53 13f
FIXUPS: 2db6 148 29 68 231 c 44 5 f b 5 f f 10 a 1eb6 31 21 22 31 21 22
FIXUPS: 523b 21 22 2c 20 2b 4b 18 1c 18 29 13 1fe 5 f f 10 a 5 f f 10 a
FIXUPS: 5645 f fffff624 21 f 51 43 12 f a d 1a 36 d 9b 8 29 28 16 8 94
FIXUPS: 4fa0 25 15 e 21 21 1e 26 24 14 1b 15 21 fffff2ff 28 27 ca 10 a6
FIXUPS: 45e2 24 a 8 48 a 8 25 31 a 8 42 a 8 176 14 37 1e 2d b 13b 10 3a
FIXUPS: 4ada 13a 55 fffff1db 10 e e 14 16 18 2a 2a 4e 2b f 1a 22 12 1a
FIXUPS: 4018 1a 16 1d 38 17d 63 1d 24 a 8 1e 2e a 8 8f 13ce f f 10 a 5
FIXUPS: 57d7 f 10 ffffdbea 5e 1c a 13 13 16 42 43 14 14 24 2b 28 3c 30
FIXUPS: 364a 1a 1c4 1a 187 65 406 1e99 5 f f 10 fffffbf5 17 16 2b6 5 f
FIXUPS: 5bf7 5 f f 10 a 5 f f 10 fffffa65 11 2e 26 12 d 9 e 5 f b 631 b
FIXUPS: 5dc7 f f 10 a 5 f f 10 fffffed8 5 f b 5 f f 10 a 5 f f 10 fffffed8
FIXUPS: 5c76 f b 5 f f 10 4ac a 75 15 11 1b 15 10 11 18 41 c 82 c d 9 29
FIXUPS: 63c9 5 f b 5 f f 10 a 5 f f 10 fffff94b 5 cd0 1b 27 f 15 4f 5 f
FIXUPS: 6b4c 5 f f 10 a 5 f f 10 fffff2b8 22 15 27 f c 125 37 23 23 b 11
FIXUPS: 611e 30 3b1 27 f 9 26 1a 3a 7a 58 2f 4c 21 f 3d 13 33 21 f 76 27
FIXUPS: 6894 3f 21 f 63 27 f 11 13 62 20 27 3fe 19 1b 7 16 32 2e 11 18
FIXUPS: 6f63 18 1a f 22 20 30 17 b 15 b 5 f b 5 f f 10 a 5 f f 10 1a5c
FIXUPS: 4379c 17 b fffc53b0 15 16 ffffe558 5 f b 5 f f 10 a 5 f f 10 fffffa4c
FIXUPS: 6bf9 18 21 14d 64 13 10 1f 7 19 1b 1a57 21 45 16 18 2d 3adc2 fffc526e
FIXUPS: 89bd 1d b 13 37 15 18 9 14 3accb 17 b fffc532c 15 18 9 14 3ac94
FIXUPS: 43787 b fffc5363 19 18 9 fffff9d1 17 38 15 23 10 3c 18 e 1f 8 49
FIXUPS: 8685 12 18 3c 25 a 17 15 1e 19 12 1f 15 2a b 20 24 16 29 1d fffff9c5
FIXUPS: 828e 1f 1f e 18 a 8 31 d 17 11 9 15 13 8 e e 14 1e 12 f e 16 d
FIXUPS: 845e d 19 e 1c 23 15 3b1e5 9 c c c c c b 8 b fffc4930 13 22 b 22
FIXUPS: 80ce 18 1c 13 d f 23 a 3b a 8 2a 1f 12 16 e 18 fffffdff 3b543 b
FIXUPS: 43597 9 9 c 9 c 9 9 c c c c 9 b 8 9 9 c c c c c c c c c b 8 9 fffc46c5
FIXUPS: 7da0 27 f 1b 19 27 f 1b 18 19 27 f 19 27 f 3b e 23 21 14 5 f b
FIXUPS: 7fd6 f f 10 a 5 f f fffff9a4 f f f c c c 1e e ff 13 24 c 1b 13
FIXUPS: 7be9 c 1b 13 27 c 1b 13 27 c 1b 1b 18 18 19 27 f fffff8e9 1a c
FIXUPS: 7687 f c f c c c 16 1e f 1d 13 1b 36 2b 2b 2b 2b 12 f f f 1e 5
FIXUPS: 78db 8 7c 15 52 fffff9ca 1b 5 6b 24 12 4b d 17 13 16 18 18 12 1f
FIXUPS: 7556 c f c f c c c 20 1f c c f c f c c 1833 5 f b 5 f f 10 a 5
FIXUPS: 8eec f 10 ffffe281 f 12 33 19 1c f 1a 13 18 10 2f 2b 2b 2b 28 12
FIXUPS: 7372 f 1f87 f f 10 fffffbdf 5 f b 5 f f 10 a 5 f f 10 fffffc3a
FIXUPS: 8bf8 26 27 2c 20 27 f 9 31 7a 1e 49 4d 1a 1b85 42 1f d 5 f b 5
FIXUPS: aa6f f 10 a 5 f f 10 ffffe509 1e 6a 26 13f 47 7d 22 5 f b 5 f f
FIXUPS: 92f9 a 112a 23 22 11 35 22 27 24 2a 2b 11 32 11 1e 26 22 11 3f
FIXUPS: a6b3 11 42 e 17 1c 1b 11 7e ba 61 24 65 11 fffff533 13 9a f 46
FIXUPS: 9feb 24 1a 22 11 2b 11 1a 27 11 28 1e 11 24 12 4e 20 11 5b 1b bc
FIXUPS: a366 2a 2b 11 32 11 fffff40d ac f 4f 34 2e 2d f 18 1c 3e 15 1c
FIXUPS: 9a7c 87 4d 11 30 1f 1a 33 22 1f 39 21 c2 14 92 15 e 14 65 fe3 f
FIXUPS: ae97 6e 27 f 9 17 5 f b 5 f f 10 a 5 f f 10 ffffe35b 4f 2be 16
FIXUPS: 973d 27 43 12 21 8 8 1a 1823 f 10 a 5 f f 10 fffffac3 27 f 9 49
FIXUPS: abf5 f 9 2c 26 f 9 19 a9 7 a a 18 29 13 13 2b 13 5f 9c7 10 a 5
FIXUPS: b84d f 10 fffff845 11 3c 10 26 21 11 2e 5 f b 5 f f 10 a 5 f f
FIXUPS: b223 fffffdd1 5 f b 5 1d52 ffffe4f1 13 13 4a e 23 1e 104 1f 1f
FIXUPS: b472 15e 1a 4c 1f 1f 16 21 4a 1f 1f 16 35 31 17 17 5 f b 5 f 1296
FIXUPS: cac9 1a 23 1a 23 1a 23 1a 23 1a 23 1a 23 1a 23 1a 14 1f f b 5 f
FIXUPS: ccfa 5 f f 10 a 5 f f 715 40 154 33 27 67 1e f 2f 5 f b 5 f f 10
FIXUPS: d77c 5 f f 10 fffff1ac 1a 23 1a 23 1a 23 1a 23 1a 23 4f8 13 e c
FIXUPS: cfd4 c 23 32 30 20 e 14 16 20 e 14 70 16 1b e 14 f 15 2b f4 1b
FIXUPS: d336 1b 19 84 1b 19 ac6 3e 6 2a 4a 18 31 13 87 52 5 f b 5 f f 10
FIXUPS: e131 5 f f 10 ffffec1e 8a 18 11 41 11 4f 38 56 c 1250 a 5 f f 10
FIXUPS: d7e5 19 1d 18 d b f d 10 29 b 121 60 1a 30 9 c 1c 57 15 1a 13d
FIXUPS: dd17 137 13 3b 1894 13 13 13 13 13 26 39 f 3a 1d 11 12 5 f f 10
FIXUPS: f8b4 5 f f 10 a 5 f ffffe869 5 f b 5 f f 107f 1a 1a 1a 1a 19 1a
FIXUPS: f2f6 37 88 19 1b 1a 25 13 1a 46 1a 14a 16 16 16 16 16 16 16 16
FIXUPS: f6c5 16 16 16 16 fffff78a 1a 1a 1a 1a 1a 1a 62 1a 1a 1a 1a 1a 1a
FIXUPS: f05b 1a 1a 1a 1a 1a 1a 1a 1a 1a 1a 1a 1a 1a 1a 1a 1a 1a fffff737
FIXUPS: e96c 5a 40 c e 2e 56 32 c 2b 2b b7 1a 27 13 1a 65 1b 1a 2a d 20
FIXUPS: ed6e 23 c c 48 c 34 f 4d fffff669 16 16 16 16 16 16 16 16 16 13
FIXUPS: e5e2 13 13 13 16 78 d1 18 15 15 15 15 15 15 3a 1a 64 13 1b 29 d
FIXUPS: fde2 f 10 a 5 f f 10 fffffad2 5 f b 5 f f 10 a 5 f f 10 ffffe885
FIXUPS: e24e d 14 20 1e3 16 16 16 16 16 1eba 5 f f 10 a 5 f f 10 fffff5b4
FIXUPS: f9d6 11 13 10 13 10f 17 3b 1a 19 19 1c 5d c 20 37 109 5 f b 5 a98
FIXUPS: 1087a f 10 fffff5b4 98 27 f 9 43 92 27 f 9 1c 2f 23 5a 2d f c 50
FIXUPS: 10249 61 3e 34 2d f c 17 5 f 547 f 10 a 5 f f 10 fffffbd3 d1 23
FIXUPS: 1061c 1a 1d 66 44 26 1f 18 15 26 f 9 5d 5 f b 5 f f 10 a 6f57 19
FIXUPS: 1781e 29 f f 12 16 5 f f 10 a 5 f f 10 a 5 f 2beb0 c c c c c b
FIXUPS: 108a3 5 f b 5 69a9 31 87 13 7c 16 15 e 20 2c 14 20 1b 1e 10 9d
FIXUPS: 175a2 65 f 20 1d 3d 1e 24 f 15 6 c c 21 14 66 fffff64e 15 19 19
FIXUPS: 16e6d 24 2d 13 7c f 20 1d 1d 47 15 19 19 1b 2d 13 7c 1b f 20 1d
FIXUPS: 171aa 14 17 17 1c 32 21 fffff54d 3a 1d 11 19 25 1a 19 19 73 87
FIXUPS: 169d9 e 49 17 7f 35 28 56 e 35 31 48 14 1c 61 13 7c f 25 1d 1d
FIXUPS: 1631d 35 19 1b 42 13 7c f 20 1d 1c 35 1b 15 23 27 1b 1a 2b 2b 22
FIXUPS: 16638 1c 35 1b 15 23 1f 22 1b 1a 2b fffff603 25 1e 1e 17 1e 50
FIXUPS: 15e79 7c f 20 1d 25 1e 1e 17 50 13 7c f 20 1d 28 21 2c 42 40 3d
FIXUPS: 1625b 76 f 20 fffff594 3c 13 7c f 20 1d 5e f 13 f 20 1d 1c 32 2d
FIXUPS: 15b3a 13 7c 16 e 38 1d 25 15 22 2e 32 13 15 20 1d fffff65b 31 17
FIXUPS: 1541b 17 18 29 1d 21 3a f 1a 3a 40 3d 36 76 16 e 20 1d 1a 31 34
FIXUPS: 157a5 1b f 20 1d 28 24 23 fffff75a 1d 28 15 17 2c 22 1d 31 15 17
FIXUPS: 1513a 1d 24 15 17 2c 1d 1a 33 21 33 17 1a f 13 17 2a f 20 1d 1a
FIXUPS: 14bb3 23 2e 22 1d 29 1b 23 28 20 22 1d 16 20 18 20 1d 27 21 21
FIXUPS: 14e42 2b 23 17 25 22 1d 2f 28 15 17 25 fffff77b 76 16 19 6c 14
FIXUPS: 14867 14 25 16 15 19 80 14 14 14 14 25 16 15 e 20 1d 3d 1d 2b 29
FIXUPS: 14b1d 15 20 1d 29 fffff850 14 1f 13 14 1f 13 14 1f 13 14 1f 13
FIXUPS: 14514 1f 3b 15 26 15 1c 1f 19 15 e 20 1d 14 18 28 24 16 15 fffff879
FIXUPS: 13f9b 16 1b f 20 1d 21 28 12 21 23 f 20 21 1d 11 16 2a 5b 41 14
FIXUPS: 14237 7c 1c f 28 16 e 20 5c 1f fffff7f6 65 1d e 20 1d 25 1d 18
FIXUPS: 13ce9 24 23 f 20 1d 40 f 13 f 20 1d 1d 21 1d 27 1c 16 15 e 20 1d
FIXUPS: 13f6d fffff802 f 25 1d 1c 1b 29 2b 25 20 2d 1d 18 17 1a 15 22 1d
FIXUPS: 139b3 f 20 1d 48 23 f 20 1d 1f 21 f 20 1d fffff7f2 3d 13 7c f 20
FIXUPS: 13446 e 18 39 1d 1d 21 1d 1d 21 1d 1d 21 1d 27 21 21 1d 21 b 26
FIXUPS: 136c1 e 53 7 23 fffff61f 1d 28 10 34 1d 2c 24 71 49 1a 28 7c f
FIXUPS: 13008 1d 2c 24 67 2f f 1a 20 28 7c f 20 1d 11 16 35 6b fffff6b9
FIXUPS: 12a0c 2e 13 f 20 1d 25 1d 25 1d d 16 e 20 25 31 1d 1d 10 20 1d
FIXUPS: 12c56 1a 1b f 20 1d 2f 1b 1b f fffff76a 3f 33 12 7c f 1d 1d 10
FIXUPS: 1262e 1d 42 2d 1a 29 12 75 21 1d 25 1d 11 1f 1d 11 21 46 21 12
FIXUPS: 12978 f 20 fffff769 25 1d 25 25 25 25 1d 22 1d 10 1f 1d 10 20 1d
FIXUPS: 12312 2e 1d 11 13 f 1d 1d 1c f 1d b 2c e 20 1d fffff797 26 30 20
FIXUPS: 11ce2 12 3e 30 1d 16 b 24 1d 1d 1d 21 1d 3c 53 13 7c f 20 25 25
FIXUPS: 12015 25 25 25 25 25 25 fffff4a8 9a b2 19 14 c 11 16 16 27 16 1a
FIXUPS: 117e5 cb 1d 3b 15 18 1f 23 f 47 3a f 54 2b 63 17 5d 40 12 37 fffff620
FIXUPS: 1122d 40 48 f f f 24 f f f 24 f f f 1c f f 1b 1f b 44 1e 15 17
FIXUPS: 114a5 13 12 19 14 36 3c fffff938 12 6 37 a 22 e 5b c 18 1b 1b 1b
FIXUPS: 1101b 21 9 52 2d 12 d b 20 5 16 19 15 e d 14 18 3e 1e 679c a 5
FIXUPS: 179b4 ffff8fc5 6 a 6 d8 27 16 33 11 34 96 20 13 69 81 63 12 12
FIXUPS: 10d65 12 8 21 14 1e 14 1f 55 2d 6df0 e 1b d7 13 c7 13 10 7e f d
FIXUPS: 17f13 f b 5 f f 10 a 5 f f 10 fffff989 5 f f 10 a 5 f f d24 27
FIXUPS: 186e0 27 25 5 f b 5 f f 10 a 5 f f 10 fffff24c 25 1f 28 19 11 1b
FIXUPS: 17af3 3c e 37 15 e 87 3c 1064 10 fffff3f8 49 23 23 48 d 42 18 4c
FIXUPS: 1829b 21 e 16 d 21 e 53 25 16 24 66 a 2b 10 19 af a4 f 15 80 1ad
FIXUPS: 1883c 29 45 87 20 19 1c 27 20 19 3d d8 20 19 3b c 14 11 3b 4b 19
FIXUPS: 18c44 f b 5 f f 10 a 5 f cb0 a 5 f f 10 fffff376 99 1f d 73 23
FIXUPS: 18ef1 49 13 11 5 f b 5 f f 10 a 5 f f 10 fffff7e0 15 20 19 d71
FIXUPS: 195ab f 5d 15 21 15 1f f 52 2a 28 20 f 81 1e 2e 24 22 20 f 17 15
FIXUPS: 198f0 f e 5 f b 5 f f fffff712 60 33 15 21 1f f 60 15 21 15 1f
FIXUPS: 19231 b1 24 9 24 23 20 f 5d 29 28 20 f 27 15 1f f 57 33 15 11cc
FIXUPS: 1a747 fffff265 62 4a cb 51 1f 5d 38 15 2e 5d 24 10 cb 134 301 5
FIXUPS: 1a210 b 5 f f 10 a 5 f f 10 ffffedae 1d 1294 c 65 1e 1f 1e 1f 1e
FIXUPS: 1a412 1f 8 14 29 d 15 b 17 e c0 b3 34 49 5 f b 5 f f 10 a 5 f 540
FIXUPS: 1ac71 26 32 5 f b 5 f f 10 a 5 f f 10 fffff9f9 5 f b 5 f f 10 a
FIXUPS: 1a7b2 f f 10 fffffaba c 28 c37 5 f f 10 a 5 f f 10 fffff8b5 15
FIXUPS: 1a86c f c d0 ca 30 21 a 75 15 11 1b 15 10 11 18 41 c 82 c 778 e
FIXUPS: 1b3f9 15 10 e 15 5f 27 f c 71 27 f c 17 5 f b 5 f f 10 a 5 f f
FIXUPS: 1b63b fffff7a0 10b 5 f eea 5 f f 10 fffff1af 37 27 f c 43 27 f
FIXUPS: 1b0c4 2c 26 f c 19 98 7 a a 18 2e 4c 38 2a 27 b 11 8a 460 c db
FIXUPS: 1b995 53 1d 14 13 14 48 f 15 38 4e 27 f e0 1c 54 27 f 48 28 1c
FIXUPS: 1bd88 5 f b 5 f f 10 29a bb 70 16 b4 15 25 1c 20 f 90 5 f b 5 f
FIXUPS: 1c3c0 10 a 5 f f 10 fffff2c4 27 f c 31 60 16 34 21 ca1 5 f b 5
FIXUPS: 1c4e3 f 10 a 5 f f 10 fffffed8 5 f b 5 f f 10 a 5 f f 10 fffff9c1
FIXUPS: 1bf0e b 2d 68 1a
