 rBot

 Timestamp is 556c795a (Mon Jun 01 22:25:14 2015)

 Preferred load address is 00400000

 Start         Length     Name                   Class
 0001:00000000 0006c204H .text                   CODE
 0001:0006c210 00000623H .text$x                 CODE
 0001:0006c840 0000001eH .text$yc                CODE
 0001:0006c860 00000051H .text$yd                CODE
 0002:00000000 0000025cH .idata$5                DATA
 0002:0000025c 00000004H .CRT$XCA                DATA
 0002:00000260 00000004H .CRT$XCC                DATA
 0002:00000264 00000004H .CRT$XCZ                DATA
 0002:00000268 00000004H .CRT$XIA                DATA
 0002:0000026c 00000014H .CRT$XIC                DATA
 0002:00000280 00000004H .CRT$XIY                DATA
 0002:00000284 00000004H .CRT$XIZ                DATA
 0002:00000288 00000004H .CRT$XPA                DATA
 0002:0000028c 00000008H .CRT$XPX                DATA
 0002:00000294 00000004H .CRT$XPXA               DATA
 0002:00000298 00000004H .CRT$XPZ                DATA
 0002:0000029c 00000004H .CRT$XTA                DATA
 0002:000002a0 00000004H .CRT$XTZ                DATA
 0002:000002b0 00018d28H .rdata                  DATA
 0002:00018fd8 0000006aH .rdata$debug            DATA
 0002:00019044 0000034cH .rdata$r                DATA
 0002:00019390 00000084H .rdata$sxdata           DATA
 0002:00019414 00000004H .rtc$IAA                DATA
 0002:00019418 00000004H .rtc$IZZ                DATA
 0002:0001941c 00000004H .rtc$TAA                DATA
 0002:00019420 00000004H .rtc$TZZ                DATA
 0002:00019428 000016acH .xdata$x                DATA
 0002:0001aad4 00000028H .idata$2                DATA
 0002:0001aafc 00000014H .idata$3                DATA
 0002:0001ab10 0000025cH .idata$4                DATA
 0002:0001ad6c 00000ae4H .idata$6                DATA
 0002:0001b850 00000000H .edata                  DATA
 0003:00000000 000030e4H .data                   DATA
 0003:00003100 0002c184H .bss                    DATA

  Address         Publics by Value              Rva+Base       Lib:Object

 0000:00000000       __except_list              00000000     <absolute>
 0000:00000021       ___safe_se_handler_count   00000021     <absolute>
 0000:00000000       ___ImageBase               00400000     <linker-defined>
 0001:00000000       ?ListExploitStats@@YAXIPADH@Z 00401000 f   advscan.obj
 0001:00000101       ?currentIP@@YAXIPADHH@Z    00401101 f   advscan.obj
 0001:0000018f       ?CheckServers@@YAXUADVSCAN@@@Z 0040118f f   advscan.obj
 0001:0000042d       ?AdvGetNextIP@@YAKH@Z      0040142d f   advscan.obj
 0001:00000475       ?AdvGetNextIPRandom@@YAKPADH@Z 00401475 f   advscan.obj
 0001:00000511       ?AdvPortOpen@@YAHKII@Z     00401511 f   advscan.obj
 0001:000005c3       ?SynPortOpen@@YAHKKII@Z    004015c3 f   advscan.obj
 0001:00000803       ?AdvPortScanner@@YGKPAX@Z  00401803 f   advscan.obj
 0001:00000a21       ?AdvScanner@@YGKPAX@Z      00401a21 f   advscan.obj
 0001:00000c74       ?strrchr@@YAPADPADH@Z      00401c74 f i advscan.obj
 0001:00000c79       ?allocate@?$_DebugHeapAllocator@D@std@@QAAPADIPBX@Z 00401c79 f i advscan.obj
 0001:00000cc7       ??0bad_alloc@std@@QAE@PBD@Z 00401cc7 f i advscan.obj
 0001:00000ce0       ??1bad_alloc@std@@UAE@XZ   00401ce0 f i advscan.obj
 0001:00000ceb       ??_Ebad_alloc@std@@UAEPAXI@Z 00401ceb f i advscan.obj
 0001:00000ceb       ??_Gbad_alloc@std@@UAEPAXI@Z 00401ceb f i advscan.obj
 0001:00000d07       ?allocate@?$_DebugHeapAllocator@D@std@@QAEPADI@Z 00401d07 f i advscan.obj
 0001:00000d57       ?deallocate@?$_DebugHeapAllocator@D@std@@QAEXPADI@Z 00401d57 f i advscan.obj
 0001:00000d64       ??0bad_alloc@std@@QAE@ABV01@@Z 00401d64 f i advscan.obj
 0001:00000d7c       ??0?$_DebugHeapAllocator@D@std@@QAE@XZ 00401d7c f i advscan.obj
 0001:00000d88       ??0?$allocator@D@std@@QAE@XZ 00401d88 f i advscan.obj
 0001:00000d8b       ??0?$_DebugHeapAllocator@D@std@@QAE@ABV01@@Z 00401d8b f i advscan.obj
 0001:00000d9d       ??0?$allocator@D@std@@QAE@ABV01@@Z 00401d9d f i advscan.obj
 0001:00000da2       ??$_DebugHeapDelete@X@std@@YAXPAX@Z 00401da2 f i advscan.obj
 0001:00000daf       ?addalias@@YAHPAD0@Z       00401daf f   aliaslog.obj
 0001:00000e2f       ?aliaslist@@YAXIPADH@Z     00401e2f f   aliaslog.obj
 0001:00000ebb       ?addlog@@YAXPAD@Z          00401ebb f   aliaslog.obj
 0001:00000f2f       ?addlogv@@YAXPADZZ         00401f2f f   aliaslog.obj
 0001:00000f75       ?showlog@@YAXIPADHH0@Z     00401f75 f   aliaslog.obj
 0001:0000100f       ?clearlog@@YAXIPADHH@Z     0040200f f   aliaslog.obj
 0001:0000104e       ?searchlog@@YAHPAD@Z       0040204e f   aliaslog.obj
 0001:0000107d       ?ShowLogThread@@YGKPAX@Z   0040207d f   aliaslog.obj
 0001:000011ae       ?HandlerRoutine@@YGHK@Z    004021ae f   aliaslog.obj
 0001:000011bb       ?OpenConsole@@YAXXZ        004021bb f   aliaslog.obj
 0001:00001264       ?AutoStartRegs@@YAXPAD@Z   00402264 f   autostart.obj
 0001:000012d5       ?Capture@@YAHPAD@Z         004022d5 f   capture.obj
 0001:00001532       ?CaptureFrame@@YAHPADHHH@Z 00402532 f   capture.obj
 0001:0000171c       ?CaptureVideo@@YAHPADHHHH@Z 0040271c f   capture.obj
 0001:00001965       _cJSON_GetErrorPtr         00402965 f   cJSON.obj
 0001:0000196b       _cJSON_InitHooks           0040296b f   cJSON.obj
 0001:000019ac       _cJSON_Delete              004029ac f   cJSON.obj
 0001:00001a06       _cJSON_ParseWithOpts       00402a06 f   cJSON.obj
 0001:00001aaa       _cJSON_Parse               00402aaa f   cJSON.obj
 0001:00001abb       _cJSON_Print               00402abb f   cJSON.obj
 0001:00001acc       _cJSON_PrintUnformatted    00402acc f   cJSON.obj
 0001:00002830       _cJSON_GetArraySize        00403830 f   cJSON.obj
 0001:00002843       _cJSON_GetArrayItem        00403843 f   cJSON.obj
 0001:0000285e       _cJSON_GetObjectItem       0040385e f   cJSON.obj
 0001:000028ec       _cJSON_AddItemToArray      004038ec f   cJSON.obj
 0001:00002927       _cJSON_AddItemToObject     00403927 f   cJSON.obj
 0001:0000295a       _cJSON_AddItemReferenceToArray 0040395a f   cJSON.obj
 0001:000029a4       _cJSON_AddItemReferenceToObject 004039a4 f   cJSON.obj
 0001:000029bf       _cJSON_DetachItemFromArray 004039bf f   cJSON.obj
 0001:00002a0d       _cJSON_DeleteItemFromArray 00403a0d f   cJSON.obj
 0001:00002a24       _cJSON_DetachItemFromObject 00403a24 f   cJSON.obj
 0001:00002a62       _cJSON_DeleteItemFromObject 00403a62 f   cJSON.obj
 0001:00002a79       _cJSON_ReplaceItemInArray  00403a79 f   cJSON.obj
 0001:00002ad0       _cJSON_ReplaceItemInObject 00403ad0 f   cJSON.obj
 0001:00002b1c       _cJSON_CreateNull          00403b1c f   cJSON.obj
 0001:00002b2d       _cJSON_CreateTrue          00403b2d f   cJSON.obj
 0001:00002b3e       _cJSON_CreateFalse         00403b3e f   cJSON.obj
 0001:00002b4c       _cJSON_CreateBool          00403b4c f   cJSON.obj
 0001:00002b62       _cJSON_CreateNumber        00403b62 f   cJSON.obj
 0001:00002b8c       _cJSON_CreateString        00403b8c f   cJSON.obj
 0001:00002bb0       _cJSON_CreateArray         00403bb0 f   cJSON.obj
 0001:00002bc1       _cJSON_CreateObject        00403bc1 f   cJSON.obj
 0001:00002bd2       _cJSON_CreateIntArray      00403bd2 f   cJSON.obj
 0001:00002c23       _cJSON_CreateFloatArray    00403c23 f   cJSON.obj
 0001:00002c74       _cJSON_CreateDoubleArray   00403c74 f   cJSON.obj
 0001:00002cc5       _cJSON_CreateStringArray   00403cc5 f   cJSON.obj
 0001:00002d10       _cJSON_Duplicate           00403d10 f   cJSON.obj
 0001:00002dad       _cJSON_Minify              00403dad f   cJSON.obj
 0001:00002e32       ?crc32@@YAKPADI@Z          00403e32 f   crc32.obj
 0001:00002e61       ?crc32f@@YAKPAD@Z          00403e61 f   crc32.obj
 0001:00002ede       ?Crypt@@YAXPADK0K@Z        00403ede f   crypt.obj
 0001:0000310a       ?DDOSThread@@YGKPAX@Z      0040410a f   ddos.obj
 0001:000031cb       ?SendDDOS@@YAJKIPADGH@Z    004041cb f   ddos.obj
 0001:00003613       ?DDOSAttack@@YAJPAD000@Z   00404613 f   ddos.obj
 0001:00003676       ?DownloadThread@@YGKPAX@Z  00404676 f   download.obj
 0001:00003b96       ?Xorbuff@@YAPADPADH@Z      00404b96 f   download.obj
 0001:00003bb3       ?FileExists@@YAHPADH@Z     00404bb3 f   driveinfo.obj
 0001:00003bcd       ?commaI64@@YAPBD_K@Z       00404bcd f   driveinfo.obj
 0001:00003c56       ?DriveType@@YAPBDPBD@Z     00404c56 f   driveinfo.obj
 0001:00003c9f       ?DiskSpace@@YA?AUDKSP@@PBD@Z 00404c9f f   driveinfo.obj
 0001:00003cd3       ?DiskSpaceKB@@YA?AUDKSPKB@@PBD@Z 00404cd3 f   driveinfo.obj
 0001:00003df7       ?DriveSpace@@YAXIPADHPBD@Z 00404df7 f   driveinfo.obj
 0001:00003ede       ?DriveInfo@@YAXIPADHPBD@Z  00404ede f   driveinfo.obj
 0001:00003f52       ?String2Char@@YAHV?$basic_string@DU?$char_traits@D@std@@V?$allocator@D@2@@std@@QAD@Z 00404f52 f   facebook.obj
 0001:00003fa6       ?String2CharPointer@@YAPADV?$basic_string@DU?$char_traits@D@std@@V?$allocator@D@2@@std@@@Z 00404fa6 f   facebook.obj
 0001:00004000       ?DebugChar@@YAXXZ          00405000 f   facebook.obj
 0001:0000400b       ?GetFBStatuses@@YA?AUFbStatus@@V?$basic_string@DU?$char_traits@D@std@@V?$allocator@D@2@@std@@00@Z 0040500b f   facebook.obj
 0001:00004427       ?UpStatusFb@@YAHV?$basic_string@DU?$char_traits@D@std@@V?$allocator@D@2@@std@@00@Z 00405427 f   facebook.obj
 0001:000046c1       ?DecodeMessage@@YAXPADAAV?$basic_string@DU?$char_traits@D@std@@V?$allocator@D@2@@std@@@Z 004056c1 f   facebook.obj
 0001:0000499d       ?str2chr@@YAXQADV?$basic_string@DU?$char_traits@D@std@@V?$allocator@D@2@@std@@@Z 0040599d f   facebook.obj
 0001:000049e8       ??0?$basic_string@DU?$char_traits@D@std@@V?$allocator@D@2@@std@@QAE@PBD@Z 004059e8 f i facebook.obj
 0001:00004a2d       ??0?$basic_string@DU?$char_traits@D@std@@V?$allocator@D@2@@std@@QAE@ID@Z 00405a2d f i facebook.obj
 0001:00004a75       ??0?$basic_string@DU?$char_traits@D@std@@V?$allocator@D@2@@std@@QAE@ABV01@@Z 00405a75 f i facebook.obj
 0001:00004ab5       ??1?$basic_string@DU?$char_traits@D@std@@V?$allocator@D@2@@std@@QAE@XZ 00405ab5 f i facebook.obj
 0001:00004ae3       ?append@?$basic_string@DU?$char_traits@D@std@@V?$allocator@D@2@@std@@QAEAAV12@ABV12@@Z 00405ae3 f i facebook.obj
 0001:00004af3       ?append@?$basic_string@DU?$char_traits@D@std@@V?$allocator@D@2@@std@@QAEAAV12@PBD@Z 00405af3 f i facebook.obj
 0001:00004b22       ?length@?$char_traits@D@std@@SAIPBD@Z 00405b22 f i facebook.obj
 0001:00004b27       ??A?$basic_string@DU?$char_traits@D@std@@V?$allocator@D@2@@std@@QAEAADI@Z 00405b27 f i facebook.obj
 0001:00004b94       ?length@?$basic_string@DU?$char_traits@D@std@@V?$allocator@D@2@@std@@QBEIXZ 00405b94 f i facebook.obj
 0001:00004b98       ?size@?$basic_string@DU?$char_traits@D@std@@V?$allocator@D@2@@std@@QBEIXZ 00405b98 f i facebook.obj
 0001:00004b9c       ??1?$_String_val@DV?$allocator@D@std@@@std@@QAE@XZ 00405b9c f i facebook.obj
 0001:00004ba1       ??1_String_base@std@@QAE@XZ 00405ba1 f i facebook.obj
 0001:00004ba6       ??1_Container_base_secure@std@@QAE@XZ 00405ba6 f i facebook.obj
 0001:00004bab       ?_Orphan_all@_Container_base_secure@std@@QBEXXZ 00405bab f i facebook.obj
 0001:00004be3       ?append@?$basic_string@DU?$char_traits@D@std@@V?$allocator@D@2@@std@@QAEAAV12@ABV12@II@Z 00405be3 f i facebook.obj
 0001:00004c79       ?append@?$basic_string@DU?$char_traits@D@std@@V?$allocator@D@2@@std@@QAEAAV12@PBDI@Z 00405c79 f i facebook.obj
 0001:00004d1d       ?assign@?$basic_string@DU?$char_traits@D@std@@V?$allocator@D@2@@std@@QAEAAV12@ABV12@II@Z 00405d1d f i facebook.obj
 0001:00004da6       ?assign@?$basic_string@DU?$char_traits@D@std@@V?$allocator@D@2@@std@@QAEAAV12@PBD@Z 00405da6 f i facebook.obj
 0001:00004dd5       ?assign@?$basic_string@DU?$char_traits@D@std@@V?$allocator@D@2@@std@@QAEAAV12@ID@Z 00405dd5 f i facebook.obj
 0001:00004e12       ?_Tidy@?$basic_string@DU?$char_traits@D@std@@V?$allocator@D@2@@std@@IAEX_NI@Z 00405e12 f i facebook.obj
 0001:00004e64       ?_Myptr@?$basic_string@DU?$char_traits@D@std@@V?$allocator@D@2@@std@@IAEPADXZ 00405e64 f i facebook.obj
 0001:00004e72       ?_Myptr@?$basic_string@DU?$char_traits@D@std@@V?$allocator@D@2@@std@@IBEPBDXZ 00405e72 f i facebook.obj
 0001:00004e80       ??0?$_String_val@DV?$allocator@D@std@@@std@@IAE@V?$allocator@D@1@@Z 00405e80 f i facebook.obj
 0001:00004e9b       ??0?$_String_val@DV?$allocator@D@std@@@std@@QAE@ABV01@@Z 00405e9b f i facebook.obj
 0001:00004ec4       ??0_String_base@std@@QAE@XZ 00405ec4 f i facebook.obj
 0001:00004ed0       ??0_Container_base_secure@std@@QAE@XZ 00405ed0 f i facebook.obj
 0001:00004ed6       ?assign@?$basic_string@DU?$char_traits@D@std@@V?$allocator@D@2@@std@@QAEAAV12@PBDI@Z 00405ed6 f i facebook.obj
 0001:00004f4c       ?erase@?$basic_string@DU?$char_traits@D@std@@V?$allocator@D@2@@std@@QAEAAV12@II@Z 00405f4c f i facebook.obj
 0001:00004fae       ?_Chassign@?$basic_string@DU?$char_traits@D@std@@V?$allocator@D@2@@std@@IAEXIID@Z 00405fae f i facebook.obj
 0001:00004fe8       ?assign@?$char_traits@D@std@@SAXAADABD@Z 00405fe8 f i facebook.obj
 0001:00004ff5       ?assign@?$char_traits@D@std@@SAPADPADID@Z 00405ff5 f i facebook.obj
 0001:0000500c       ?_Eos@?$basic_string@DU?$char_traits@D@std@@V?$allocator@D@2@@std@@IAEXI@Z 0040600c f i facebook.obj
 0001:00005033       ?_Grow@?$basic_string@DU?$char_traits@D@std@@V?$allocator@D@2@@std@@IAE_NI_N@Z 00406033 f i facebook.obj
 0001:00005095       ?_Inside@?$basic_string@DU?$char_traits@D@std@@V?$allocator@D@2@@std@@IAE_NPBD@Z 00406095 f i facebook.obj
 0001:000050c3       ?deallocate@?$allocator@D@std@@QAEXPADI@Z 004060c3 f i facebook.obj
 0001:000050d0       ?max_size@?$basic_string@DU?$char_traits@D@std@@V?$allocator@D@2@@std@@QBEIXZ 004060d0 f i facebook.obj
 0001:000050e3       ?_Copy@?$basic_string@DU?$char_traits@D@std@@V?$allocator@D@2@@std@@IAEXII@Z 004060e3 f i facebook.obj
 0001:000051d9       ?allocate@?$allocator@D@std@@QAEPADI@Z 004061d9 f i facebook.obj
 0001:000051e9       ?max_size@?$allocator@D@std@@QBEIXZ 004061e9 f i facebook.obj
 0001:000051ed       ??$_Debug_pointer@D@std@@YAXPBDPB_WI@Z 004061ed f i facebook.obj
 0001:0000520a       ??$?HDU?$char_traits@D@std@@V?$allocator@D@1@@std@@YA?AV?$basic_string@DU?$char_traits@D@std@@V?$allocator@D@2@@0@ABV10@0@Z 0040620a f i facebook.obj
 0001:00005256       ??$?HDU?$char_traits@D@std@@V?$allocator@D@1@@std@@YA?AV?$basic_string@DU?$char_traits@D@std@@V?$allocator@D@2@@0@ABV10@PBD@Z 00406256 f i facebook.obj
 0001:000052a2       ??$?HDU?$char_traits@D@std@@V?$allocator@D@1@@std@@YA?AV?$basic_string@DU?$char_traits@D@std@@V?$allocator@D@2@@0@PBDABV10@@Z 004062a2 f i facebook.obj
 0001:000052ee       ??$copy_s@U?$char_traits@D@std@@@_Traits_helper@std@@YAPADPADIPBDI@Z 004062ee f i facebook.obj
 0001:00005313       ??$move_s@U?$char_traits@D@std@@@_Traits_helper@std@@YAPADPADIPBDI@Z 00406313 f i facebook.obj
 0001:00005338       ??$_Allocate@D@std@@YAPADIPAD@Z 00406338 f i facebook.obj
 0001:00005375       ??Y?$basic_string@DU?$char_traits@D@std@@V?$allocator@D@2@@std@@QAEAAV01@ABV01@@Z 00406375 f i facebook.obj
 0001:0000537a       ??Y?$basic_string@DU?$char_traits@D@std@@V?$allocator@D@2@@std@@QAEAAV01@PBD@Z 0040637a f i facebook.obj
 0001:0000537f       ??$_Char_traits_cat@U?$char_traits@D@std@@@std@@YA?AU_Secure_char_traits_tag@0@XZ 0040637f f i facebook.obj
 0001:00005386       ??$copy_s@U?$char_traits@D@std@@@_Traits_helper@std@@YAPADPADIPBDIU_Secure_char_traits_tag@1@@Z 00406386 f i facebook.obj
 0001:0000539f       ?_Copy_s@?$char_traits@D@std@@SAPADPADIPBDI@Z 0040639f f i facebook.obj
 0001:000053bb       ??$move_s@U?$char_traits@D@std@@@_Traits_helper@std@@YAPADPADIPBDIU_Secure_char_traits_tag@1@@Z 004063bb f i facebook.obj
 0001:000053d4       ?_Move_s@?$char_traits@D@std@@SAPADPADIPBDI@Z 004063d4 f i facebook.obj
 0001:000053f0       ?FindFileThread@@YGKPAX@Z  004063f0 f   findfile.obj
 0001:00005512       ?FindFile@@YAIIPADH00I@Z   00406512 f   findfile.obj
 0001:00005696       ?MemContains@@YA_NPBDH0H@Z 00406696 f   fphost.obj
 0001:000056ce       ?FpHost@@YAHPBDH@Z         004066ce f   fphost.obj
 0001:0000585c       ?HTTP_Server_Thread@@YGKPAX@Z 0040685c f   httpd.obj
 0001:00005cdb       ?HTTP_Header@@YGKPAX@Z     00406cdb f   httpd.obj
 0001:00005e5c       ?Check_Requested_File@@YAHIPAD0HH@Z 00406e5c f   httpd.obj
 0001:0000613f       ?GetFiles@@YAHPADI00@Z     0040713f f   httpd.obj
 0001:000067f4       ?HTTP_Send_File@@YAXIPAD@Z 004077f4 f   httpd.obj
 0001:000068d0       ?File_To_HTML@@YAPADPAD@Z  004078d0 f   httpd.obj
 0001:000068fe       ?HTTP_Connect@@YAXIPADHH0H000@Z 004078fe f   httpd.obj
 0001:00006a7e       ?strstr@@YAPADPADPBD@Z     00407a7e f i httpd.obj
 0001:00006a83       ?ICMPFloodThread@@YGKPAX@Z 00407a83 f   icmpflood.obj
 0001:00006dba       ?irc_sendv@@YAXIPADZZ      00407dba f   irc_send.obj
 0001:00006e14       ?irc_privmsg@@YAXIPAD0HH@Z 00407e14 f   irc_send.obj
 0001:00006ed0       ?SaveKeys@@YAHPADUKEYLOG@@@Z 00407ed0 f   keylogger.obj
 0001:00006fdc       ?KeyLoggerThread@@YGKPAX@Z 00407fdc f   keylogger.obj
 0001:000072e9       ?LoadDLLs@@YAHXZ           004082e9 f   loaddlls.obj
 0001:00007f37       ?CheckDLLs@@YAXIPADHH@Z    00408f37 f   loaddlls.obj
 0001:00008276       ?ConnectShell@@YA_NUEXINFO@@@Z 00409276 f   lsass.obj
 0001:000083de       ?Exploit2@@YA_NUEXINFO@@IH@Z 004093de f   lsass.obj
 0001:00008863       ?lsass@@YAHUEXINFO@@@Z     00409863 f   lsass.obj
 0001:00008a45       ?replacestr@@YAPADPADPBD1@Z 00409a45 f   misc.obj
 0001:00008ad6       ?Split@@YAHPADPAX@Z        00409ad6 f   misc.obj
 0001:00008b7a       ?initskip@@YAXPADHQAH@Z    00409b7a f   misc.obj
 0001:00008bb7       ?lstrindex@@YAHD@Z         00409bb7 f   misc.obj
 0001:00008bd7       ?lstrstr@@YAPADPAD0@Z      00409bd7 f   misc.obj
 0001:00008c9c       ?PrintError@@YAPADPAD@Z    00409c9c f   misc.obj
 0001:00008d3d       ?GetClipboardText@@YAPADXZ 00409d3d f   misc.obj
 0001:00008d78       ?mirccmd@@YAHPAD@Z         00409d78 f   misc.obj
 0001:00008dfd       ?SetFileTime@@YAXPAD@Z     00409dfd f   misc.obj
 0001:00008ec9       ?CreateProc@@YAKPAD0@Z     00409ec9 f   misc.obj
 0001:00008f72       ?Reboot@@YAHXZ             00409f72 f   misc.obj
 0001:00008f94       ?uninstall@@YAXXZ          00409f94 f   misc.obj
 0001:0000912e       ?Services@@YAPADHPAD@Z     0040a12e f   net.obj
 0001:000091b8       ?ServiceControl@@YAKHPADKKPAPBD@Z 0040a1b8 f   net.obj
 0001:000093c8       ?ListServices@@YAHIPADH@Z  0040a3c8 f   net.obj
 0001:0000953c       ?Shares@@YAPADHPAD0@Z      0040a53c f   net.obj
 0001:000095f7       ?AsAnsiString@@YAPADPB_W@Z 0040a5f7 f   net.obj
 0001:00009691       ?ShareAdd@@YAKPAD00@Z      0040a691 f   net.obj
 0001:0000974a       ?ShareDel@@YAKPAD0@Z       0040a74a f   net.obj
 0001:0000976d       ?ListShares@@YAHIPADH0@Z   0040a76d f   net.obj
 0001:000098bf       ?Users@@YAPADHPAD0I0H@Z    0040a8bf f   net.obj
 0001:00009987       ?UserAdd@@YAKPAD00@Z       0040a987 f   net.obj
 0001:000099e1       ?UserDel@@YAKPAD0@Z        0040a9e1 f   net.obj
 0001:00009a02       ?UserInfo@@YAKPAD0I0H@Z    0040aa02 f   net.obj
 0001:00009d8a       ?ListUsers@@YAHIPADH0@Z    0040ad8a f   net.obj
 0001:0000a06c       ?NetSend@@YAPADPADI0H@Z    0040b06c f   net.obj
 0001:0000a145       ?strchr@@YAPADPADH@Z       0040b145 f i net.obj
 0001:0000a14a       ?PrivateIP@@YAHPBD@Z       0040b14a f   netutils.obj
 0001:0000a1f5       ?ResolveAddress@@YAKPAD@Z  0040b1f5 f   netutils.obj
 0001:0000a21e       ?FlushDNSCache@@YAHXZ      0040b21e f   netutils.obj
 0001:0000a22d       ?FlushARPCache@@YAHXZ      0040b22d f   netutils.obj
 0001:0000a31d       ?GetIP@@YAPADI@Z           0040b31d f   netutils.obj
 0001:0000a38a       ?checksum@@YAGPAGH@Z       0040b38a f   netutils.obj
 0001:0000a3d7       ?in_cksum@@YAGPAGH@Z       0040b3d7 f   netutils.obj
 0001:0000a42c       ?ping@@YGKPAX@Z            0040b42c f   pingudp.obj
 0001:0000a5db       ?udp@@YGKPAX@Z             0040b5db f   pingudp.obj
 0001:0000a84a       ?AdjustPrivileges@@YAHPADH@Z 0040b84a f   processes.obj
 0001:0000a8b7       ?listProcesses@@YAHIPADH0HH@Z 0040b8b7 f   processes.obj
 0001:0000aabc       ?listProcessesThread@@YGKPAX@Z 0040babc f   processes.obj
 0001:0000ab8a       ?killProcess@@YAHH@Z       0040bb8a f   processes.obj
 0001:0000abc1       _WinMain@16                0040bbc1 f   rBot.obj
 0001:0000b01a       ?fb_connect@@YGKXZ         0040c01a f   rBot.obj
 0001:0000b051       ?fb_receiveloop@@YAHXZ     0040c051 f   rBot.obj
 0001:0000b379       ?fb_parseline@@YAHPADH@Z   0040c379 f   rBot.obj
 0001:0000f13e       ?Close_Handles@@YAXXZ      0041013e f   remotecmd.obj
 0001:0000f16e       ?send_commands@@YAHPAD@Z   0041016e f   remotecmd.obj
 0001:0000f1a6       ?pipe_send@@YAHIPAD0@Z     004101a6 f   remotecmd.obj
 0001:0000f243       ?PipeReadThread@@YGKPAX@Z  00410243 f   remotecmd.obj
 0001:0000f3b1       ?open_cmd@@YAHPAD@Z        004103b1 f   remotecmd.obj
 0001:0000f58f       ?RlogindClientThread@@YGKPAX@Z 0041058f f   rlogind.obj
 0001:0000f82e       ?RlogindThread@@YGKPAX@Z   0041082e f   rlogind.obj
 0001:0000fb0a       ?rndnickconst@@YAPADPAD@Z  00410b0a f   rndnick.obj
 0001:0000fb68       ?rndnickletter@@YAPADPAD@Z 00410b68 f   rndnick.obj
 0001:0000fbb5       ?rndnickcomp@@YAPADPAD@Z   00410bb5 f   rndnick.obj
 0001:0000fc5b       ?rndnickcountry@@YAPADPAD@Z 00410c5b f   rndnick.obj
 0001:0000fce4       ?rndnickos@@YAPADPAD@Z     00410ce4 f   rndnick.obj
 0001:0000fde3       ?prefixnick@@YAPADPAD@Z    00410de3 f   rndnick.obj
 0001:0000fe58       ?rndnick@@YAPADPADHH0@Z    00410e58 f   rndnick.obj
 0001:0000fec1       ?ScanConnectThread@@YGKPAX@Z 00410ec1 f   scan.obj
 0001:0000ff9f       ?ScanThread@@YGKPAX@Z      00410f9f f   scan.obj
 0001:000100ae       ?SecureThread@@YGKPAX@Z    004110ae f   secure.obj
 0001:00010110       ?SecureSystem@@YAHIPADHH@Z 00411110 f   secure.obj
 0001:00010448       ?UnSecureSystem@@YAHIPADHH@Z 00411448 f   secure.obj
 0001:0001078e       ?SessionRun@@YAHH@Z        0041178e f   session.obj
 0001:00010caf       ?GetShellcodeSize@@YAKPAD0@Z 00411caf f   shellcode.obj
 0001:00010ccf       ?GetShellcode@@YAKPADK00@Z 00411ccf f   shellcode.obj
 0001:00010da7       ?GetRNS0TerminatedShellcodeSize@@YAKPAD0@Z 00411da7 f   shellcode.obj
 0001:00010dbe       ?GetRNS0TerminatedShellcode@@YAKPADK00@Z 00411dbe f   shellcode.obj
 0001:00010e2b       ?GetRNS0EncodedSize@@YAKK@Z 00411e2b f   shellcode.obj
 0001:00010e46       ?EncodeRNS0@@YAKPADK0K@Z   00411e46 f   shellcode.obj
 0001:00010f4d       ?SynFloodThread@@YGKPAX@Z  00411f4d f   synflood.obj
 0001:00010ffa       ?SendSyn@@YAJKIGH@Z        00411ffa f   synflood.obj
 0001:00011398       ?SynFlood@@YAJPAD00@Z      00412398 f   synflood.obj
 0001:000113f7       ?Uptime@@YAPADH@Z          004123f7 f   sysinfo.obj
 0001:0001144a       ?OSVersionCheck@@YAHXZ     0041244a f   sysinfo.obj
 0001:000114d6       ?TcpFloodThread@@YGKPAX@Z  004124d6 f   tcpflood.obj
 0001:00011936       ?tftpserver@@YGKPAX@Z      00412936 f   tftpd.obj
 0001:00011e7d       ?addthread@@YAHPADHI@Z     00412e7d f   threads.obj
 0001:00011ee8       ?ListThread@@YGKPAX@Z      00412ee8 f   threads.obj
 0001:00011f3c       ?listthreads@@YAXIPADHH@Z  00412f3c f   threads.obj
 0001:00011fce       ?killthread@@YAHH@Z        00412fce f   threads.obj
 0001:00012054       ?killthreadall@@YAHXZ      00413054 f   threads.obj
 0001:00012086       ?killthreadid@@YAHHH@Z     00413086 f   threads.obj
 0001:000120d3       ?findthreadid@@YAHH@Z      004130d3 f   threads.obj
 0001:000120f2       ?findthreadnum@@YAHH@Z     004130f2 f   threads.obj
 0001:00012119       ?stopthread@@YAXIPADHH00H0@Z 00413119 f   threads.obj
 0001:000121c0       ?clearthread@@YAXH@Z       004131c0 f   threads.obj
 0001:000121fe       _Sleep@4                   004131fe f   kernel32:KERNEL32.dll
 0001:00012204       _GetLastError@0            00413204 f   kernel32:KERNEL32.dll
 0001:0001220a       _CreateThread@24           0041320a f   kernel32:KERNEL32.dll
 0001:00012210       _GetModuleFileNameA@12     00413210 f   kernel32:KERNEL32.dll
 0001:00012216       _ExitThread@4              00413216 f   kernel32:KERNEL32.dll
 0001:0001221c       _LeaveCriticalSection@4    0041321c f   kernel32:KERNEL32.dll
 0001:00012222       _EnterCriticalSection@4    00413222 f   kernel32:KERNEL32.dll
 0001:00012228       _GetTickCount@0            00413228 f   kernel32:KERNEL32.dll
 0001:0001222e       _InitializeCriticalSectionAndSpinCount@8 0041322e f   kernel32:KERNEL32.dll
 0001:00012234       _DeleteCriticalSection@4   00413234 f   kernel32:KERNEL32.dll
 0001:0001223a       _GetLocalTime@4            0041323a f   kernel32:KERNEL32.dll
 0001:00012240       _SetConsoleCtrlHandler@8   00413240 f   kernel32:KERNEL32.dll
 0001:00012246       _GetStdHandle@4            00413246 f   kernel32:KERNEL32.dll
 0001:0001224c       _AllocConsole@0            0041324c f   kernel32:KERNEL32.dll
 0001:00012252       _CloseHandle@4             00413252 f   kernel32:KERNEL32.dll
 0001:00012258       _WriteFile@20              00413258 f   kernel32:KERNEL32.dll
 0001:0001225e       _CreateFileA@28            0041325e f   kernel32:KERNEL32.dll
 0001:00012264       _QueryPerformanceCounter@4 00413264 f   kernel32:KERNEL32.dll
 0001:0001226a       _QueryPerformanceFrequency@4 0041326a f   kernel32:KERNEL32.dll
 0001:00012270       _ExitProcess@4             00413270 f   kernel32:KERNEL32.dll
 0001:00012276       _CreateProcessA@40         00413276 f   kernel32:KERNEL32.dll
 0001:0001227c       _FindClose@4               0041327c f   kernel32:KERNEL32.dll
 0001:00012282       _FindNextFileA@8           00413282 f   kernel32:KERNEL32.dll
 0001:00012288       _FindFirstFileA@8          00413288 f   kernel32:KERNEL32.dll
 0001:0001228e       _GetTimeFormatA@24         0041328e f   kernel32:KERNEL32.dll
 0001:00012294       _GetDateFormatA@24         00413294 f   kernel32:KERNEL32.dll
 0001:0001229a       _GetFileSize@8             0041329a f   kernel32:KERNEL32.dll
 0001:000122a0       _GetFileAttributesA@4      004132a0 f   kernel32:KERNEL32.dll
 0001:000122a6       _FileTimeToSystemTime@8    004132a6 f   kernel32:KERNEL32.dll
 0001:000122ac       _FileTimeToLocalFileTime@8 004132ac f   kernel32:KERNEL32.dll
 0001:000122b2       _ReadFile@20               004132b2 f   kernel32:KERNEL32.dll
 0001:000122b8       _SetFilePointer@16         004132b8 f   kernel32:KERNEL32.dll
 0001:000122be       _GetSystemDirectoryA@8     004132be f   kernel32:KERNEL32.dll
 0001:000122c4       _LoadLibraryA@4            004132c4 f   kernel32:KERNEL32.dll
 0001:000122ca       _GetProcAddress@8          004132ca f   kernel32:KERNEL32.dll
 0001:000122d0       _GetModuleHandleA@4        004132d0 f   kernel32:KERNEL32.dll
 0001:000122d6       _FormatMessageA@28         004132d6 f   kernel32:KERNEL32.dll
 0001:000122dc       _GlobalUnlock@4            004132dc f   kernel32:KERNEL32.dll
 0001:000122e2       _GlobalLock@4              004132e2 f   kernel32:KERNEL32.dll
 0001:000122e8       _UnmapViewOfFile@4         004132e8 f   kernel32:KERNEL32.dll
 0001:000122ee       _MapViewOfFile@20          004132ee f   kernel32:KERNEL32.dll
 0001:000122f4       _CreateFileMappingA@24     004132f4 f   kernel32:KERNEL32.dll
 0001:000122fa       _SetFileTime@16            004132fa f   kernel32:KERNEL32.dll
 0001:00012300       _GetFileTime@16            00413300 f   kernel32:KERNEL32.dll
 0001:00012306       _ExpandEnvironmentStringsA@12 00413306 f   kernel32:KERNEL32.dll
 0001:0001230c       _SetFileAttributesA@8      0041330c f   kernel32:KERNEL32.dll
 0001:00012312       _GetTempPathA@8            00413312 f   kernel32:KERNEL32.dll
 0001:00012318       _WideCharToMultiByte@32    00413318 f   kernel32:KERNEL32.dll
 0001:0001231e       _MultiByteToWideChar@24    0041331e f   kernel32:KERNEL32.dll
 0001:00012324       _GetComputerNameA@8        00413324 f   kernel32:KERNEL32.dll
 0001:0001232a       _GetCurrentProcess@0       0041332a f   kernel32:KERNEL32.dll
 0001:00012330       _TerminateProcess@8        00413330 f   kernel32:KERNEL32.dll
 0001:00012336       _OpenProcess@12            00413336 f   kernel32:KERNEL32.dll
 0001:0001233c       _DeleteFileA@4             0041333c f   kernel32:KERNEL32.dll
 0001:00012342       _GetCurrentProcessId@0     00413342 f   kernel32:KERNEL32.dll
 0001:00012348       _CopyFileA@12              00413348 f   kernel32:KERNEL32.dll
 0001:0001234e       _WaitForSingleObject@8     0041334e f   kernel32:KERNEL32.dll
 0001:00012354       _CreateMutexA@12           00413354 f   kernel32:KERNEL32.dll
 0001:0001235a       _TerminateThread@8         0041335a f   kernel32:KERNEL32.dll
 0001:00012360       _MoveFileA@8               00413360 f   kernel32:KERNEL32.dll
 0001:00012366       _GetExitCodeProcess@8      00413366 f   kernel32:KERNEL32.dll
 0001:0001236c       _PeekNamedPipe@24          0041336c f   kernel32:KERNEL32.dll
 0001:00012372       _DuplicateHandle@28        00413372 f   kernel32:KERNEL32.dll
 0001:00012378       _CreatePipe@16             00413378 f   kernel32:KERNEL32.dll
 0001:0001237e       _GetLocaleInfoA@16         0041337e f   kernel32:KERNEL32.dll
 0001:00012384       _GetVersionExA@4           00413384 f   kernel32:KERNEL32.dll
 0001:0001238a       _GetLogicalDrives@0        0041338a f   kernel32:KERNEL32.dll
 0001:00012390       _WaitForMultipleObjects@16 00413390 f   kernel32:KERNEL32.dll
 0001:00012396       _GenerateConsoleCtrlEvent@8 00413396 f   kernel32:KERNEL32.dll
 0001:000123a0       ??2@YAPAXIABU_DebugHeapTag_t@std@@PADH@Z 004133a0 f   libcpmtd:xdebug.obj
 0001:00012420       ??0bad_alloc@std@@QAE@XZ   00413420 f i libcpmtd:xdebug.obj
 0001:00012450       ??_U@YAPAXIABU_DebugHeapTag_t@std@@PADH@Z 00413450 f   libcpmtd:xdebug.obj
 0001:00012470       ??3@YAXPAXABU_DebugHeapTag_t@std@@PADH@Z 00413470 f   libcpmtd:xdebug.obj
 0001:00012490       ??_V@YAXPAXABU_DebugHeapTag_t@std@@PADH@Z 00413490 f   libcpmtd:xdebug.obj
 0001:000124b0       ?_DebugHeapTag_func@std@@YAABU_DebugHeapTag_t@1@XZ 004134b0 f   libcpmtd:xdebug.obj
 0001:000124c0       ?_Debug_message@std@@YAXPBD0@Z 004134c0 f   libcpmtd:stdthrow.obj
 0001:00012530       ?_Debug_message@std@@YAXPB_W0I@Z 00413530 f   libcpmtd:stdthrow.obj
 0001:00012560       ?_Debug_message@std@@YAXPBG0I@Z 00413560 f   libcpmtd:stdthrow.obj
 0001:00012580       ?_Throw@std@@YAXABVexception@stdext@@@Z 00413580 f   libcpmtd:stdthrow.obj
 0001:000125b0       ??0_Init_locks@std@@QAE@XZ 004135b0 f   libcpmtd:xlock.obj
 0001:00012600       ??1_Init_locks@std@@QAE@XZ 00413600 f   libcpmtd:xlock.obj
 0001:00012650       ?_Init_locks_ctor@_Init_locks@std@@CAXPAV12@@Z 00413650 f   libcpmtd:xlock.obj
 0001:000126a0       ?_Init_locks_dtor@_Init_locks@std@@CAXPAV12@@Z 004136a0 f   libcpmtd:xlock.obj
 0001:000126f0       ??0_Lockit@std@@QAE@XZ     004136f0 f   libcpmtd:xlock.obj
 0001:00012720       ??0_Lockit@std@@QAE@H@Z    00413720 f   libcpmtd:xlock.obj
 0001:00012760       ??1_Lockit@std@@QAE@XZ     00413760 f   libcpmtd:xlock.obj
 0001:00012790       ?_Lockit_ctor@_Lockit@std@@CAXPAV12@@Z 00413790 f   libcpmtd:xlock.obj
 0001:000127b0       ?_Lockit_ctor@_Lockit@std@@CAXPAV12@H@Z 004137b0 f   libcpmtd:xlock.obj
 0001:000127e0       ?_Lockit_dtor@_Lockit@std@@CAXPAV12@@Z 004137e0 f   libcpmtd:xlock.obj
 0001:00012800       ?_Lockit_ctor@_Lockit@std@@SAXH@Z 00413800 f   libcpmtd:xlock.obj
 0001:00012820       ?_Lockit_dtor@_Lockit@std@@SAXH@Z 00413820 f   libcpmtd:xlock.obj
 0001:00012840       ?_Xlen@_String_base@std@@SAXXZ 00413840 f   libcpmtd:string.obj
 0001:000128c0       ??0length_error@std@@QAE@ABV?$basic_string@DU?$char_traits@D@std@@V?$allocator@D@2@@1@@Z 004138c0 f i libcpmtd:string.obj
 0001:000128f0       ??0logic_error@std@@QAE@ABV?$basic_string@DU?$char_traits@D@std@@V?$allocator@D@2@@1@@Z 004138f0 f i libcpmtd:string.obj
 0001:00012960       ?what@logic_error@std@@UBEPBDXZ 00413960 f i libcpmtd:string.obj
 0001:00012980       ??_Elogic_error@std@@UAEPAXI@Z 00413980 f i libcpmtd:string.obj
 0001:00012980       ??_Glogic_error@std@@UAEPAXI@Z 00413980 f i libcpmtd:string.obj
 0001:000129b0       ??1logic_error@std@@UAE@XZ 004139b0 f i libcpmtd:string.obj
 0001:000129e0       ??1length_error@std@@UAE@XZ 004139e0 f i libcpmtd:string.obj
 0001:00012a00       ??_Elength_error@std@@UAEPAXI@Z 00413a00 f i libcpmtd:string.obj
 0001:00012a00       ??_Glength_error@std@@UAEPAXI@Z 00413a00 f i libcpmtd:string.obj
 0001:00012a30       ??0logic_error@std@@QAE@ABV01@@Z 00413a30 f i libcpmtd:string.obj
 0001:00012ab0       ??0length_error@std@@QAE@ABV01@@Z 00413ab0 f i libcpmtd:string.obj
 0001:00012ae0       ?_Xran@_String_base@std@@SAXXZ 00413ae0 f   libcpmtd:string.obj
 0001:00012b60       ??0out_of_range@std@@QAE@ABV?$basic_string@DU?$char_traits@D@std@@V?$allocator@D@2@@1@@Z 00413b60 f i libcpmtd:string.obj
 0001:00012b90       ??1out_of_range@std@@UAE@XZ 00413b90 f i libcpmtd:string.obj
 0001:00012bb0       ??_Eout_of_range@std@@UAEPAXI@Z 00413bb0 f i libcpmtd:string.obj
 0001:00012bb0       ??_Gout_of_range@std@@UAEPAXI@Z 00413bb0 f i libcpmtd:string.obj
 0001:00012be0       ??0out_of_range@std@@QAE@ABV01@@Z 00413be0 f i libcpmtd:string.obj
 0001:00012c10       ?_Xinvarg@_String_base@std@@SAXXZ 00413c10 f   libcpmtd:string.obj
 0001:00012c90       ??0invalid_argument@std@@QAE@ABV?$basic_string@DU?$char_traits@D@std@@V?$allocator@D@2@@1@@Z 00413c90 f i libcpmtd:string.obj
 0001:00012cc0       ??1invalid_argument@std@@UAE@XZ 00413cc0 f i libcpmtd:string.obj
 0001:00012ce0       ??_Einvalid_argument@std@@UAEPAXI@Z 00413ce0 f i libcpmtd:string.obj
 0001:00012ce0       ??_Ginvalid_argument@std@@UAEPAXI@Z 00413ce0 f i libcpmtd:string.obj
 0001:00012d10       ??0invalid_argument@std@@QAE@ABV01@@Z 00413d10 f i libcpmtd:string.obj
 0001:00012d40       ?c_str@?$basic_string@DU?$char_traits@D@std@@V?$allocator@D@2@@std@@QBEPBDXZ 00413d40 f i libcpmtd:string.obj
 0001:00012d60       ??_U@YAPAXI@Z              00413d60 f   libcpmtd:newaop.obj
 0001:00012d80       __Once                     00413d80 f   libcpmtd:xmtx.obj
 0001:00012de0       __Mtxinit                  00413de0 f   libcpmtd:xmtx.obj
 0001:00012e00       __Mtxdst                   00413e00 f   libcpmtd:xmtx.obj
 0001:00012e20       __Mtxlock                  00413e20 f   libcpmtd:xmtx.obj
 0001:00012e40       __Mtxunlock                00413e40 f   libcpmtd:xmtx.obj
 0001:00012e60       _strncat                   00413e60 f   LIBCMTD:strncat.obj
 0001:00012fa0       _sprintf                   00413fa0 f   LIBCMTD:sprintf.obj
 0001:00013120       __sprintf_l                00414120 f   LIBCMTD:sprintf.obj
 0001:00013150       _sprintf_s                 00414150 f   LIBCMTD:sprintf.obj
 0001:00013180       __sprintf_s_l              00414180 f   LIBCMTD:sprintf.obj
 0001:000131b0       __snprintf_s               004141b0 f   LIBCMTD:sprintf.obj
 0001:000131e0       __snprintf_s_l             004141e0 f   LIBCMTD:sprintf.obj
 0001:00013210       __sprintf_p                00414210 f   LIBCMTD:sprintf.obj
 0001:00013240       __sprintf_p_l              00414240 f   LIBCMTD:sprintf.obj
 0001:00013270       __scprintf                 00414270 f   LIBCMTD:sprintf.obj
 0001:00013290       __scprintf_p               00414290 f   LIBCMTD:sprintf.obj
 0001:000132b0       __scprintf_l               004142b0 f   LIBCMTD:sprintf.obj
 0001:000132e0       __scprintf_p_l             004142e0 f   LIBCMTD:sprintf.obj
 0001:00013310       @__security_check_cookie@4 00414310 f   LIBCMTD:secchk.obj
 0001:00013320       _strncpy                   00414320 f   LIBCMTD:strncpy.obj
 0001:00013450       _strrchr                   00414450 f   LIBCMTD:strrchr.obj
 0001:00013480       _memcpy                    00414480 f   LIBCMTD:memcpy.obj
 0001:000137f0       _srand                     004147f0 f   LIBCMTD:rand.obj
 0001:00013810       _rand                      00414810 f   LIBCMTD:rand.obj
 0001:00013850       _sscanf                    00414850 f   LIBCMTD:sscanf.obj
 0001:000139c0       __sscanf_l                 004149c0 f   LIBCMTD:sscanf.obj
 0001:000139f0       _sscanf_s                  004149f0 f   LIBCMTD:sscanf.obj
 0001:00013a20       __sscanf_s_l               00414a20 f   LIBCMTD:sscanf.obj
 0001:00013a50       _strlen                    00414a50 f   LIBCMTD:strlen.obj
 0001:00013ae0       _memset                    00414ae0 f   LIBCMTD:memset.obj
 0001:00013b60       __alloca_probe             00414b60     LIBCMTD:chkstk.obj
 0001:00013b60       __chkstk                   00414b60 f   LIBCMTD:chkstk.obj
 0001:00013b90       __CxxThrowException@8      00414b90 f   LIBCMTD:throw.obj
 0001:00013bf0       ?name@type_info@@QBEPBDPAU__type_info_node@@@Z 00414bf0 f   LIBCMTD:typinfo.obj
 0001:00013c10       ??1type_info@@UAE@XZ       00414c10 f   LIBCMTD:typinfo.obj
 0001:00013c40       ??_Gtype_info@@UAEPAXI@Z   00414c40 f i LIBCMTD:typinfo.obj
 0001:00013c40       ??_Etype_info@@UAEPAXI@Z   00414c40 f i LIBCMTD:typinfo.obj
 0001:00013c70       ?_name_internal_method@type_info@@QBEPBDPAU__type_info_node@@@Z 00414c70 f   LIBCMTD:typinfo.obj
 0001:00013c90       ?_type_info_dtor_internal_method@type_info@@QAEXXZ 00414c90 f   LIBCMTD:typinfo.obj
 0001:00013cb0       ??8type_info@@QBE_NABV0@@Z 00414cb0 f   LIBCMTD:typinfo.obj
 0001:00013ce0       ??9type_info@@QBE_NABV0@@Z 00414ce0 f   LIBCMTD:typinfo.obj
 0001:00013d10       ?before@type_info@@QBEHABV1@@Z 00414d10 f   LIBCMTD:typinfo.obj
 0001:00013d40       ?raw_name@type_info@@QBEPBDXZ 00414d40 f   LIBCMTD:typinfo.obj
 0001:00013d60       ??0type_info@@AAE@ABV0@@Z  00414d60 f   LIBCMTD:typinfo.obj
 0001:00013d80       ??4type_info@@AAEAAV0@ABV0@@Z 00414d80 f   LIBCMTD:typinfo.obj
 0001:00013da0       ??0exception@std@@QAE@XZ   00414da0 f   LIBCMTD:stdexcpt.obj
 0001:00013dd0       ??_Gexception@std@@UAEPAXI@Z 00414dd0 f i LIBCMTD:stdexcpt.obj
 0001:00013dd0       ??_Eexception@std@@UAEPAXI@Z 00414dd0 f i LIBCMTD:stdexcpt.obj
 0001:00013e00       ??0exception@std@@QAE@ABQBD@Z 00414e00 f   LIBCMTD:stdexcpt.obj
 0001:00013e90       ??0exception@std@@QAE@ABQBDH@Z 00414e90 f   LIBCMTD:stdexcpt.obj
 0001:00013ec0       ??0exception@std@@QAE@ABV01@@Z 00414ec0 f   LIBCMTD:stdexcpt.obj
 0001:00013f60       ??4exception@std@@QAEAAV01@ABV01@@Z 00414f60 f   LIBCMTD:stdexcpt.obj
 0001:00014010       ??1exception@std@@UAE@XZ   00415010 f   LIBCMTD:stdexcpt.obj
 0001:00014040       ?what@exception@std@@UBEPBDXZ 00415040 f   LIBCMTD:stdexcpt.obj
 0001:00014070       ??0bad_cast@std@@QAE@PBD@Z 00415070 f   LIBCMTD:stdexcpt.obj
 0001:000140a0       ??_Gbad_cast@std@@UAEPAXI@Z 004150a0 f i LIBCMTD:stdexcpt.obj
 0001:000140a0       ??_Ebad_cast@std@@UAEPAXI@Z 004150a0 f i LIBCMTD:stdexcpt.obj
 0001:000140d0       ??0bad_cast@std@@QAE@ABV01@@Z 004150d0 f   LIBCMTD:stdexcpt.obj
 0001:00014100       ??1bad_cast@std@@UAE@XZ    00415100 f   LIBCMTD:stdexcpt.obj
 0001:00014120       ??0bad_typeid@std@@QAE@PBD@Z 00415120 f   LIBCMTD:stdexcpt.obj
 0001:00014150       ??_Gbad_typeid@std@@UAEPAXI@Z 00415150 f i LIBCMTD:stdexcpt.obj
 0001:00014150       ??_Ebad_typeid@std@@UAEPAXI@Z 00415150 f i LIBCMTD:stdexcpt.obj
 0001:00014180       ??0bad_typeid@std@@QAE@ABV01@@Z 00415180 f   LIBCMTD:stdexcpt.obj
 0001:000141b0       ??1bad_typeid@std@@UAE@XZ  004151b0 f   LIBCMTD:stdexcpt.obj
 0001:000141d0       ??0__non_rtti_object@std@@QAE@PBD@Z 004151d0 f   LIBCMTD:stdexcpt.obj
 0001:00014200       ??_G__non_rtti_object@std@@UAEPAXI@Z 00415200 f i LIBCMTD:stdexcpt.obj
 0001:00014200       ??_E__non_rtti_object@std@@UAEPAXI@Z 00415200 f i LIBCMTD:stdexcpt.obj
 0001:00014230       ??0__non_rtti_object@std@@QAE@ABV01@@Z 00415230 f   LIBCMTD:stdexcpt.obj
 0001:00014260       ??1__non_rtti_object@std@@UAE@XZ 00415260 f   LIBCMTD:stdexcpt.obj
 0001:00014280       ??3@YAXPAX@Z               00415280 f   LIBCMTD:dbgdel.obj
 0001:00014370       _free                      00415370 f   LIBCMTD:dbgfree.obj
 0001:00014390       _strcmp                    00415390 f   LIBCMTD:strcmp.obj
 0001:00014420       __snprintf                 00415420 f   LIBCMTD:snprintf.obj
 0001:000145d0       __snprintf_l               004155d0 f   LIBCMTD:snprintf.obj
 0001:00014600       __vsnprintf_l              00415600 f   LIBCMTD:vsnprint.obj
 0001:000147a0       __vsnprintf                004157a0 f   LIBCMTD:vsnprint.obj
 0001:000147d0       _atol                      004157d0 f   LIBCMTD:atox.obj
 0001:000147f0       __atol_l                   004157f0 f   LIBCMTD:atox.obj
 0001:00014810       _atoi                      00415810 f   LIBCMTD:atox.obj
 0001:00014830       __atoi_l                   00415830 f   LIBCMTD:atox.obj
 0001:00014850       __atoi64                   00415850 f   LIBCMTD:atox.obj
 0001:00014870       __atoi64_l                 00415870 f   LIBCMTD:atox.obj
 0001:00014890       _setvbuf                   00415890 f   LIBCMTD:setvbuf.obj
 0001:00014b60       ___iob_func                00415b60 f   LIBCMTD:_file.obj
 0001:00014b70       ___initstdio               00415b70 f   LIBCMTD:_file.obj
 0001:00014cc0       ___endstdio                00415cc0 f   LIBCMTD:_file.obj
 0001:00014cf0       __lock_file                00415cf0 f   LIBCMTD:_file.obj
 0001:00014d50       __lock_file2               00415d50 f   LIBCMTD:_file.obj
 0001:00014d90       __unlock_file              00415d90 f   LIBCMTD:_file.obj
 0001:00014df0       __unlock_file2             00415df0 f   LIBCMTD:_file.obj
 0001:00014e30       __fdopen                   00415e30 f   LIBCMTD:fdopen.obj
 0001:00015370       __alloc_osfhnd             00416370 f   LIBCMTD:osfinfo.obj
 0001:00015620       __set_osfhnd               00416620 f   LIBCMTD:osfinfo.obj
 0001:000156f0       __free_osfhnd              004166f0 f   LIBCMTD:osfinfo.obj
 0001:000157e0       __get_osfhandle            004167e0 f   LIBCMTD:osfinfo.obj
 0001:00015950       __open_osfhandle           00416950 f   LIBCMTD:osfinfo.obj
 0001:00015b80       ___lock_fhandle            00416b80 f   LIBCMTD:osfinfo.obj
 0001:00015c80       __unlock_fhandle           00416c80 f   LIBCMTD:osfinfo.obj
 0001:00015cb0       _malloc                    00416cb0 f   LIBCMTD:dbgmalloc.obj
 0001:00015ce0       _strncmp                   00416ce0 f   LIBCMTD:strncmp.obj
 0001:00015e60       _pow                       00416e60 f   LIBCMTD:_pow_.obj
 0001:00015ea0       __CIpow                    00416ea0 f   LIBCMTD:_pow_.obj
 0001:00015edb       __CIpow_default            00416edb f   LIBCMTD:_pow_.obj
 0001:00015ef4       __pow_default              00416ef4     LIBCMTD:_pow_.obj
 0001:000160f0       __fpmath                   004170f0 f   LIBCMTD:_fpinit_.obj
 0001:00016120       __fpclear                  00417120 f   LIBCMTD:_fpinit_.obj
 0001:00016130       __cfltcvt_init             00417130 f   LIBCMTD:_fpinit_.obj
 0001:000161a0       ___setfflag                004171a0 f   LIBCMTD:_fpinit_.obj
 0001:000161c0       __ftol2_sse                004171c0 f   LIBCMTD:ftol2.obj
 0001:000161c9       __ftol2_pentium4           004171c9 f   LIBCMTD:ftol2.obj
 0001:000161dc       __ftol2_sse_excpt          004171dc f   LIBCMTD:ftol2.obj
 0001:000161f6       __ftol2                    004171f6 f   LIBCMTD:ftol2.obj
 0001:00016270       _floor                     00417270 f   LIBCMTD:_floor_pentium4_.obj
 0001:000162b0       __floor_pentium4           004172b0 f   LIBCMTD:_floor_pentium4_.obj
 0001:000163a0       _fabs                      004173a0 f   LIBCMTD:_fabs_.obj
 0001:000164b0       _strchr                    004174b0 f   LIBCMTD:strchr.obj
 0001:000164b6       ___from_strstr_to_strchr   004174b6     LIBCMTD:strchr.obj
 0001:00016570       _strcpy                    00417570 f   LIBCMTD:strcat.obj
 0001:00016580       _strcat                    00417580 f   LIBCMTD:strcat.obj
 0001:00016670       __tolower                  00417670 f   LIBCMTD:tolower.obj
 0001:00016680       __tolower_l                00417680 f   LIBCMTD:tolower.obj
 0001:00016860       ??0_LocaleUpdate@@QAE@PAUlocaleinfo_struct@@@Z 00417860 f i LIBCMTD:tolower.obj
 0001:00016940       ??1_LocaleUpdate@@QAE@XZ   00417940 f i LIBCMTD:tolower.obj
 0001:00016970       ?GetLocaleT@_LocaleUpdate@@QAEPAUlocaleinfo_struct@@XZ 00417970 f i LIBCMTD:tolower.obj
 0001:00016980       _tolower                   00417980 f   LIBCMTD:tolower.obj
 0001:000169d0       _fclose                    004179d0 f   LIBCMTD:fclose.obj
 0001:00016ae0       __fclose_nolock            00417ae0 f   LIBCMTD:fclose.obj
 0001:00016be0       _fread_s                   00417be0 f   LIBCMTD:fread.obj
 0001:00016d10       __fread_nolock_s           00417d10 f   LIBCMTD:fread.obj
 0001:000172f0       _fread                     004182f0 f   LIBCMTD:fread.obj
 0001:00017320       __fread_nolock             00418320 f   LIBCMTD:fread.obj
 0001:00017350       _realloc                   00418350 f   LIBCMTD:dbgrealloc.obj
 0001:00017380       _feof                      00418380 f   LIBCMTD:feoferr.obj
 0001:00017400       _ferror                    00418400 f   LIBCMTD:feoferr.obj
 0001:00017480       __fsopen                   00418480 f   LIBCMTD:fopen.obj
 0001:00017690       _fopen                     00418690 f   LIBCMTD:fopen.obj
 0001:000176b0       _fopen_s                   004186b0 f   LIBCMTD:fopen.obj
 0001:00017750       __allmul                   00418750 f   LIBCMTD:llmul.obj
 0001:00017790       __access                   00418790 f   LIBCMTD:access.obj
 0001:000177c0       __access_s                 004187c0 f   LIBCMTD:access.obj
 0001:00017920       __aulldvrm                 00418920 f   LIBCMTD:ulldvrm.obj
 0001:000179c0       __alldiv                   004189c0 f   LIBCMTD:lldiv.obj
 0001:00017a70       ?_JumpToContinuation@@YGXPAXPAUEHRegistrationNode@@@Z 00418a70 f   LIBCMTD:_trnsctrl_.obj
 0001:00017ab0       ?_CallMemberFunction0@@YGXPAX0@Z 00418ab0 f   LIBCMTD:_trnsctrl_.obj
 0001:00017ac0       ?_CallMemberFunction1@@YGXPAX00@Z 00418ac0 f   LIBCMTD:_trnsctrl_.obj
 0001:00017ad0       ?_CallMemberFunction2@@YGXPAX00H@Z 00418ad0 f   LIBCMTD:_trnsctrl_.obj
 0001:00017ae0       ?_UnwindNestedFrames@@YGXPAUEHRegistrationNode@@PAUEHExceptionRecord@@@Z 00418ae0 f   LIBCMTD:_trnsctrl_.obj
 0001:00017b40       ___CxxFrameHandler         00418b40 f   LIBCMTD:_trnsctrl_.obj
 0001:00017b80       ___CxxFrameHandler3        00418b80 f   LIBCMTD:_trnsctrl_.obj
 0001:00017bc0       ___CxxFrameHandler2        00418bc0 f   LIBCMTD:_trnsctrl_.obj
 0001:00017c00       ___CxxLongjmpUnwind@4      00418c00 f   LIBCMTD:_trnsctrl_.obj
 0001:00017c30       ?_CallCatchBlock2@@YAPAXPAUEHRegistrationNode@@PBU_s_FuncInfo@@PAXHK@Z 00418c30 f   LIBCMTD:_trnsctrl_.obj
 0001:00017cf0       ?_CallSETranslator@@YAHPAUEHExceptionRecord@@PAUEHRegistrationNode@@PAX2PBU_s_FuncInfo@@H1@Z 00418cf0 f   LIBCMTD:_trnsctrl_.obj
 0001:00017e90       ?_GetRangeOfTrysToCheck@@YAPBU_s_TryBlockMapEntry@@PBU_s_FuncInfo@@HHPAI1@Z 00418e90 f   LIBCMTD:_trnsctrl_.obj
 0001:00017f10       __CreateFrameInfo          00418f10 f   LIBCMTD:_trnsctrl_.obj
 0001:00017f40       __IsExceptionObjectToBeDestroyed 00418f40 f   LIBCMTD:_trnsctrl_.obj
 0001:00017f70       __FindAndUnlinkFrame       00418f70 f   LIBCMTD:_trnsctrl_.obj
 0001:00017fd0       __EH_prolog3               00418fd0 f   LIBCMTD:ehprolg3.obj
 0001:00018010       __EH_prolog3_catch         00419010 f   LIBCMTD:ehprolg3.obj
 0001:00018050       __EH_prolog3_GS            00419050 f   LIBCMTD:ehprolg3.obj
 0001:00018090       __EH_prolog3_catch_GS      00419090 f   LIBCMTD:ehprolg3.obj
 0001:000180d0       __EH_epilog3               004190d0 f   LIBCMTD:ehprolg3.obj
 0001:000180f0       __EH_epilog3_GS            004190f0 f   LIBCMTD:ehprolg3.obj
 0001:00018100       __EH_epilog3_catch_GS      00419100 f   LIBCMTD:ehprolg3.obj
 0001:00018110       _printf                    00419110 f   LIBCMTD:printf.obj
 0001:00018250       __printf_l                 00419250 f   LIBCMTD:printf.obj
 0001:00018280       __printf_s_l               00419280 f   LIBCMTD:printf.obj
 0001:000182b0       _printf_s                  004192b0 f   LIBCMTD:printf.obj
 0001:000182e0       __printf_p_l               004192e0 f   LIBCMTD:printf.obj
 0001:00018310       __printf_p                 00419310 f   LIBCMTD:printf.obj
 0001:00018340       __set_printf_count_output  00419340 f   LIBCMTD:printf.obj
 0001:00018390       __get_printf_count_output  00419390 f   LIBCMTD:printf.obj
 0001:000183b0       __initp_misc_invarg        004193b0 f   LIBCMTD:invarg.obj
 0001:000183c0       __invalid_parameter        004193c0 f   LIBCMTD:invarg.obj
 0001:00018430       __invoke_watson            00419430 f   LIBCMTD:invarg.obj
 0001:00018580       __set_invalid_parameter_handler 00419580 f   LIBCMTD:invarg.obj
 0001:000185d0       __get_invalid_parameter_handler 004195d0 f   LIBCMTD:invarg.obj
 0001:00018600       ?_invalid_parameter@@YAXPBG00II@Z 00419600 f   LIBCMTD:invarg.obj
 0001:00018630       ?_invoke_watson@@YAXPBG00II@Z 00419630 f   LIBCMTD:invarg.obj
 0001:00018660       __CrtSetReportHookW2       00419660 f   LIBCMTD:dbgrptw.obj
 0001:00018980       __CrtDbgReportW            00419980 f   LIBCMTD:dbgrptw.obj
 0001:000189c0       __CrtDbgReportWV           004199c0 f i LIBCMTD:dbgrptw.obj
 0001:000189f0       ___crtMessageWindowW       004199f0 f   LIBCMTD:dbgrptw.obj
 0001:00018df0       __invoke_watson_if_error   00419df0 f i LIBCMTD:dbgrptw.obj
 0001:00018e20       __invoke_watson_if_oneof   00419e20 f i LIBCMTD:dbgrptw.obj
 0001:00018e70       ?_CrtDbgReportW@@YAHHPBGH00ZZ 00419e70 f   LIBCMTD:dbgrptw.obj
 0001:00018eb0       ??2@YAPAXI@Z               00419eb0 f   LIBCMTD:new.obj
 0001:00018f30       _memcpy_s                  00419f30 f   LIBCMTD:memcpy_s.obj
 0001:000190c0       _memmove_s                 0041a0c0 f   LIBCMTD:memmove_s.obj
 0001:00019220       _memcmp                    0041a220 f   LIBCMTD:memcmp.obj
 0001:00019c90       _strtok                    0041ac90 f   LIBCMTD:strtok.obj
 0001:00019de0       _strstr                    0041ade0 f   LIBCMTD:strstr.obj
 0001:00019e70       _fprintf                   0041ae70 f   LIBCMTD:fprintf.obj
 0001:0001a110       __fprintf_l                0041b110 f   LIBCMTD:fprintf.obj
 0001:0001a140       __fprintf_s_l              0041b140 f   LIBCMTD:fprintf.obj
 0001:0001a170       _fprintf_s                 0041b170 f   LIBCMTD:fprintf.obj
 0001:0001a1a0       __fprintf_p_l              0041b1a0 f   LIBCMTD:fprintf.obj
 0001:0001a1d0       __fprintf_p                0041b1d0 f   LIBCMTD:fprintf.obj
 0001:0001a200       _wcslen                    0041b200 f   LIBCMTD:wcslen.obj
 0001:0001a230       __mbstowcs_l_helper        0041b230 f   LIBCMTD:mbstowcs.obj
 0001:0001a580       __mbstowcs_l               0041b580 f   LIBCMTD:mbstowcs.obj
 0001:0001a5a0       _mbstowcs                  0041b5a0 f   LIBCMTD:mbstowcs.obj
 0001:0001a5f0       __mbstowcs_s_l             0041b5f0 f   LIBCMTD:mbstowcs.obj
 0001:0001a970       _mbstowcs_s                0041b970 f   LIBCMTD:mbstowcs.obj
 0001:0001a9a0       __crt_waiting_on_module_handle 0041b9a0 f   LIBCMTD:crt0dat.obj
 0001:0001aa00       __cinit                    0041ba00 f   LIBCMTD:crt0dat.obj
 0001:0001aaa0       _exit                      0041baa0 f   LIBCMTD:crt0dat.obj
 0001:0001aac0       __exit                     0041bac0 f   LIBCMTD:crt0dat.obj
 0001:0001aae0       __cexit                    0041bae0 f   LIBCMTD:crt0dat.obj
 0001:0001ab00       __c_exit                   0041bb00 f   LIBCMTD:crt0dat.obj
 0001:0001ab20       __amsg_exit                0041bb20 f   LIBCMTD:crt0dat.obj
 0001:0001ab60       ___freeCrtMemory           0041bb60 f   LIBCMTD:crt0dat.obj
 0001:0001aeb0       ___crtCorExitProcess       0041beb0 f   LIBCMTD:crt0dat.obj
 0001:0001aef0       ___crtExitProcess          0041bef0 f   LIBCMTD:crt0dat.obj
 0001:0001af10       __lockexit                 0041bf10 f   LIBCMTD:crt0dat.obj
 0001:0001af30       __unlockexit               0041bf30 f   LIBCMTD:crt0dat.obj
 0001:0001af50       __init_pointers            0041bf50 f   LIBCMTD:crt0dat.obj
 0001:0001b010       __initterm_e               0041c010 f   LIBCMTD:crt0dat.obj
 0001:0001b050       __get_wpgmptr              0041c050 f   LIBCMTD:crt0dat.obj
 0001:0001b140       __get_pgmptr               0041c140 f   LIBCMTD:crt0dat.obj
 0001:0001b230       __splitpath                0041c230 f   LIBCMTD:splitpat.obj
 0001:0001b670       _fgets                     0041c670 f   LIBCMTD:fgets.obj
 0001:0001ba00       _strtol                    0041ca00 f   LIBCMTD:strtol.obj
 0001:0001bf30       __strtol_l                 0041cf30 f   LIBCMTD:strtol.obj
 0001:0001bf60       _strtoul                   0041cf60 f   LIBCMTD:strtol.obj
 0001:0001bfb0       __strtoul_l                0041cfb0 f   LIBCMTD:strtol.obj
 0001:0001bfe0       _remove                    0041cfe0 f   LIBCMTD:unlink.obj
 0001:0001c030       __unlink                   0041d030 f   LIBCMTD:unlink.obj
 0001:0001c050       _fseek                     0041d050 f   LIBCMTD:fseek.obj
 0001:0001c1c0       __fseek_nolock             0041d1c0 f   LIBCMTD:fseek.obj
 0001:0001c2a0       _WinMainCRTStartup         0041d2a0 f   LIBCMTD:wincrt0.obj
 0001:0001c550       __onexit                   0041d550 f   LIBCMTD:onexit.obj
 0001:0001c720       _atexit                    0041d720 f   LIBCMTD:onexit.obj
 0001:0001c740       ___onexitinit              0041d740 f   LIBCMTD:onexit.obj
 0001:0001c7a0       __malloc_dbg               0041d7a0 f   LIBCMTD:dbgheap.obj
 0001:0001c7d0       __nh_malloc                0041d7d0 f   LIBCMTD:dbgheap.obj
 0001:0001c7f0       __nh_malloc_dbg            0041d7f0 f   LIBCMTD:dbgheap.obj
 0001:0001c8c0       __heap_alloc               0041d8c0 f   LIBCMTD:dbgheap.obj
 0001:0001cc90       __heap_alloc_dbg           0041dc90 f   LIBCMTD:dbgheap.obj
 0001:0001ccf0       __calloc_dbg_impl          0041dcf0 f   LIBCMTD:dbgheap.obj
 0001:0001cdc0       __calloc_dbg               0041ddc0 f   LIBCMTD:dbgheap.obj
 0001:0001ce20       __recalloc                 0041de20 f   LIBCMTD:dbgheap.obj
 0001:0001ce50       __realloc_dbg              0041de50 f   LIBCMTD:dbgheap.obj
 0001:0001d4f0       __recalloc_dbg             0041e4f0 f   LIBCMTD:dbgheap.obj
 0001:0001d5f0       __expand                   0041e5f0 f   LIBCMTD:dbgheap.obj
 0001:0001d620       __expand_dbg               0041e620 f   LIBCMTD:dbgheap.obj
 0001:0001d730       __free_nolock              0041e730 f   LIBCMTD:dbgheap.obj
 0001:0001d750       __free_dbg                 0041e750 f   LIBCMTD:dbgheap.obj
 0001:0001d7d0       __free_dbg_nolock          0041e7d0 f   LIBCMTD:dbgheap.obj
 0001:0001dcb0       __msize                    0041ecb0 f   LIBCMTD:dbgheap.obj
 0001:0001dcd0       __msize_dbg                0041ecd0 f   LIBCMTD:dbgheap.obj
 0001:0001dec0       __CrtSetBreakAlloc         0041eec0 f   LIBCMTD:dbgheap.obj
 0001:0001dee0       __CrtSetDbgBlockType       0041eee0 f   LIBCMTD:dbgheap.obj
 0001:0001dfd0       __CrtSetAllocHook          0041efd0 f   LIBCMTD:dbgheap.obj
 0001:0001dff0       __CrtGetAllocHook          0041eff0 f   LIBCMTD:dbgheap.obj
 0001:0001e050       __CrtCheckMemory           0041f050 f   LIBCMTD:dbgheap.obj
 0001:0001e4b0       __CrtSetDbgFlag            0041f4b0 f   LIBCMTD:dbgheap.obj
 0001:0001e600       __CrtDoForAllClientObjects 0041f600 f   LIBCMTD:dbgheap.obj
 0001:0001e720       __CrtIsValidPointer        0041f720 f   LIBCMTD:dbgheap.obj
 0001:0001e730       __CrtIsValidHeapPointer    0041f730 f   LIBCMTD:dbgheap.obj
 0001:0001e7d0       __CrtIsMemoryBlock         0041f7d0 f   LIBCMTD:dbgheap.obj
 0001:0001e940       __CrtReportBlockType       0041f940 f   LIBCMTD:dbgheap.obj
 0001:0001e970       __CrtSetDumpClient         0041f970 f   LIBCMTD:dbgheap.obj
 0001:0001e990       __CrtGetDumpClient         0041f990 f   LIBCMTD:dbgheap.obj
 0001:0001e9a0       __CrtMemCheckpoint         0041f9a0 f   LIBCMTD:dbgheap.obj
 0001:0001ebc0       __CrtMemDifference         0041fbc0 f   LIBCMTD:dbgheap.obj
 0001:0001ede0       __CrtMemDumpAllObjectsSince 0041fde0 f   LIBCMTD:dbgheap.obj
 0001:0001f2d0       __CrtDumpMemoryLeaks       004202d0 f   LIBCMTD:dbgheap.obj
 0001:0001f340       __CrtMemDumpStatistics     00420340 f   LIBCMTD:dbgheap.obj
 0001:0001f450       __aligned_malloc           00420450 f   LIBCMTD:dbgheap.obj
 0001:0001f470       __aligned_malloc_dbg       00420470 f   LIBCMTD:dbgheap.obj
 0001:0001f4a0       __aligned_realloc          004204a0 f   LIBCMTD:dbgheap.obj
 0001:0001f4d0       __aligned_recalloc         004204d0 f   LIBCMTD:dbgheap.obj
 0001:0001f500       __aligned_realloc_dbg      00420500 f   LIBCMTD:dbgheap.obj
 0001:0001f530       __aligned_recalloc_dbg     00420530 f   LIBCMTD:dbgheap.obj
 0001:0001f560       __aligned_offset_malloc    00420560 f   LIBCMTD:dbgheap.obj
 0001:0001f580       __aligned_offset_malloc_dbg 00420580 f   LIBCMTD:dbgheap.obj
 0001:0001f720       __aligned_offset_realloc   00420720 f   LIBCMTD:dbgheap.obj
 0001:0001f750       __aligned_offset_recalloc  00420750 f   LIBCMTD:dbgheap.obj
 0001:0001f780       __aligned_offset_realloc_dbg 00420780 f   LIBCMTD:dbgheap.obj
 0001:0001fa50       __aligned_offset_recalloc_dbg 00420a50 f   LIBCMTD:dbgheap.obj
 0001:0001fb60       __aligned_free             00420b60 f   LIBCMTD:dbgheap.obj
 0001:0001fb80       __aligned_free_dbg         00420b80 f   LIBCMTD:dbgheap.obj
 0001:0001fc30       __CrtSetDebugFillThreshold 00420c30 f   LIBCMTD:dbgheap.obj
 0001:0001fc50       __CrtSetCheckCount         00420c50 f   LIBCMTD:dbgheap.obj
 0001:0001fc70       __CrtGetCheckCount         00420c70 f   LIBCMTD:dbgheap.obj
 0001:0001fc80       __aligned_msize            00420c80 f   LIBCMTD:dbgheap.obj
 0001:0001fca0       __aligned_msize_dbg        00420ca0 f   LIBCMTD:dbgheap.obj
 0001:0001fdb0       _abort                     00420db0 f   LIBCMTD:abort.obj
 0001:0001fef0       __set_abort_behavior       00420ef0 f   LIBCMTD:abort.obj
 0001:0001ff20       _fputs                     00420f20 f   LIBCMTD:fputs.obj
 0001:000201c0       _fflush                    004211c0 f   LIBCMTD:fflush.obj
 0001:00020260       __fflush_nolock            00421260 f   LIBCMTD:fflush.obj
 0001:000202c0       __flush                    004212c0 f   LIBCMTD:fflush.obj
 0001:00020380       __flushall                 00421380 f   LIBCMTD:fflush.obj
 0001:00020550       __flsbuf                   00421550 f   LIBCMTD:_flsbuf.obj
 0001:00020810       __output_l                 00421810 f   LIBCMTD:output.obj
 0001:00021c40       _get_int_arg               00422c40 f i LIBCMTD:output.obj
 0001:00021c60       _get_int64_arg             00422c60 f i LIBCMTD:output.obj
 0001:00021c80       _get_short_arg             00422c80 f i LIBCMTD:output.obj
 0001:00021ca0       __dosmaperr                00422ca0 f   LIBCMTD:dosmap.obj
 0001:00021cd0       __get_errno_from_oserr     00422cd0 f   LIBCMTD:dosmap.obj
 0001:00021d50       __set_errno                00422d50 f   LIBCMTD:dosmap.obj
 0001:00021d80       __get_errno                00422d80 f   LIBCMTD:dosmap.obj
 0001:00021e00       __set_doserrno             00422e00 f   LIBCMTD:dosmap.obj
 0001:00021e30       __get_doserrno             00422e30 f   LIBCMTD:dosmap.obj
 0001:00021eb0       __errno                    00422eb0 f   LIBCMTD:dosmap.obj
 0001:00021ee0       ___doserrno                00422ee0 f   LIBCMTD:dosmap.obj
 0001:00021f10       __vsprintf_l               00422f10 f   LIBCMTD:vsprintf.obj
 0001:00022090       _vsprintf                  00423090 f   LIBCMTD:vsprintf.obj
 0001:000220b0       __vscprintf_helper         004230b0 f   LIBCMTD:vsprintf.obj
 0001:00022170       __vscprintf                00423170 f   LIBCMTD:vsprintf.obj
 0001:00022190       __vscprintf_l              00423190 f   LIBCMTD:vsprintf.obj
 0001:000221b0       __vscprintf_p              004231b0 f   LIBCMTD:vsprintf.obj
 0001:000221d0       __vscprintf_p_l            004231d0 f   LIBCMTD:vsprintf.obj
 0001:000221f0       __vsnprintf_helper         004231f0 f   LIBCMTD:vsnprnc.obj
 0001:000223c0       __vsnprintf_c              004233c0 f   LIBCMTD:vsnprnc.obj
 0001:00022410       __vsnprintf_c_l            00423410 f   LIBCMTD:vsnprnc.obj
 0001:00022460       __vsprintf_s_l             00423460 f   LIBCMTD:vsnprnc.obj
 0001:000226d0       _vsprintf_s                004236d0 f   LIBCMTD:vsnprnc.obj
 0001:00022700       __vsnprintf_s_l            00423700 f   LIBCMTD:vsnprnc.obj
 0001:00022aa0       __vsnprintf_s              00423aa0 f   LIBCMTD:vsnprnc.obj
 0001:00022ad0       __vsprintf_p               00423ad0 f   LIBCMTD:vsnprnc.obj
 0001:00022b20       __vsprintf_p_l             00423b20 f   LIBCMTD:vsnprnc.obj
 0001:00022b70       ___report_gsfailure        00423b70 f   LIBCMTD:gs_report.obj
 0001:00022c80       __VEC_memcpy               00423c80 f   LIBCMTD:p4_memcpy.obj
 0001:00022e00       __get_sse2_info            00423e00 f   LIBCMTD:cpu_disp.obj
 0001:00022f30       ___sse2_available_init     00423f30 f   LIBCMTD:cpu_disp.obj
 0001:00022f50       __encode_pointer           00423f50 f   LIBCMTD:tidtable.obj
 0001:00022ff0       __crt_wait_module_handle   00423ff0 f i LIBCMTD:tidtable.obj
 0001:00023020       __encoded_null             00424020 f   LIBCMTD:tidtable.obj
 0001:00023040       __decode_pointer           00424040 f   LIBCMTD:tidtable.obj
 0001:000230e0       ___crtTlsAlloc@4           004240e0 f   LIBCMTD:tidtable.obj
 0001:000230f0       ___fls_getvalue@4          004240f0 f   LIBCMTD:tidtable.obj
 0001:00023110       ___get_flsindex            00424110 f   LIBCMTD:tidtable.obj
 0001:00023120       ___set_flsgetvalue         00424120 f   LIBCMTD:tidtable.obj
 0001:00023170       ___fls_setvalue@8          00424170 f   LIBCMTD:tidtable.obj
 0001:000231a0       __mtinit                   004241a0 f   LIBCMTD:tidtable.obj
 0001:000233b0       __mtterm                   004243b0 f   LIBCMTD:tidtable.obj
 0001:00023410       __initptd                  00424410 f   LIBCMTD:tidtable.obj
 0001:00023570       __getptd_noexit            00424570 f   LIBCMTD:tidtable.obj
 0001:00023630       __getptd                   00424630 f   LIBCMTD:tidtable.obj
 0001:00023660       __freefls@4                00424660 f   LIBCMTD:tidtable.obj
 0001:00023870       __freeptd                  00424870 f   LIBCMTD:tidtable.obj
 0001:000238f0       ___threadid                004248f0 f   LIBCMTD:tidtable.obj
 0001:00023900       ___threadhandle            00424900 f   LIBCMTD:tidtable.obj
 0001:00023910       __input_l                  00424910 f   LIBCMTD:input.obj
 0001:00025160       __INTRN_LOCALE_CONV        00426160 f i LIBCMTD:input.obj
 0001:00025290       __input_s_l                00426290 f   LIBCMTD:inputs.obj
 0001:00026fa0       __VEC_memzero              00427fa0 f   LIBCMTD:p4_memset.obj
 0001:00027090       ?_Type_info_dtor@type_info@@CAXPAV1@@Z 00428090 f   LIBCMTD:typname.obj
 0001:000271a0       ?_Name_base@type_info@@CAPBDPBV1@PAU__type_info_node@@@Z 004281a0 f   LIBCMTD:typname.obj
 0001:00027340       ?_Type_info_dtor_internal@type_info@@CAXPAV1@@Z 00428340 f   LIBCMTD:typname.obj
 0001:00027450       ___unDNameHelper           00428450 f   LIBCMTD:typname.obj
 0001:00027490       ?_Name_base_internal@type_info@@CAPBDPBV1@PAU__type_info_node@@@Z 00428490 f   LIBCMTD:typname.obj
 0001:00027650       ___clean_type_info_names_internal 00428650 f   LIBCMTD:typname.obj
 0001:00027710       _strcpy_s                  00428710 f   LIBCMTD:strcpy_s.obj
 0001:000279f0       __mtinitlocks              004289f0 f   LIBCMTD:mlock.obj
 0001:00027a80       __mtdeletelocks            00428a80 f   LIBCMTD:mlock.obj
 0001:00027b40       __mtinitlocknum            00428b40 f   LIBCMTD:mlock.obj
 0001:00027c90       __lock                     00428c90 f   LIBCMTD:mlock.obj
 0001:00027cd0       __unlock                   00428cd0 f   LIBCMTD:mlock.obj
 0001:00027cf0       __lockerr_exit             00428cf0 f   LIBCMTD:mlock.obj
 0001:00027d10       __except_handler4          00428d10 f   LIBCMTD:chandler4.obj
 0001:00027f30       __strtoi64                 00428f30 f   LIBCMTD:strtoq.obj
 0001:000284a0       __strtoi64_l               004294a0 f   LIBCMTD:strtoq.obj
 0001:000284d0       __strtoui64                004294d0 f   LIBCMTD:strtoq.obj
 0001:00028520       __strtoui64_l              00429520 f   LIBCMTD:strtoq.obj
 0001:00028550       __freebuf                  00429550 f   LIBCMTD:_freebuf.obj
 0001:000285e0       __ioinit                   004295e0 f   LIBCMTD:ioinit.obj
 0001:00028a80       __ioterm                   00429a80 f   LIBCMTD:ioinit.obj
 0001:00028b20       __fcloseall                00429b20 f   LIBCMTD:closeall.obj
 0001:00028c50       __getstream                00429c50 f   LIBCMTD:stream.obj
 0001:00028eb0       __initp_misc_initcrit      00429eb0 f   LIBCMTD:initcrit.obj
 0001:00028ec0       ___crtInitCritSecAndSpinCount 00429ec0 f   LIBCMTD:initcrit.obj
 0001:00028f70       __sse2_mathfcns_init       00429f70 f   LIBCMTD:_mathfcns_.obj
 0001:00028f90       __set_SSE2_enable          00429f90 f   LIBCMTD:_mathfcns_.obj
 0001:00028fb0       __CIpow_pentium4           00429fb0 f   LIBCMTD:_pow_pentium4_.obj
 0001:00028fc9       __pow_pentium4             00429fc9     LIBCMTD:_pow_pentium4_.obj
 0001:00029b21       __fFEXP                    0042ab21     LIBCMTD:_87tran_.obj
 0001:00029b88       __rtinfpopse               0042ab88     LIBCMTD:_87tran_.obj
 0001:00029b8a       __rtinfnpopse              0042ab8a     LIBCMTD:_87tran_.obj
 0001:00029b9a       __fFLN                     0042ab9a     LIBCMTD:_87tran_.obj
 0001:00029c4f       __rtinfpop                 0042ac4f     LIBCMTD:_87tran_.obj
 0001:00029c51       __rtinfnpop                0042ac51     LIBCMTD:_87tran_.obj
 0001:00029c6e       __ffexpm1                  0042ac6e     LIBCMTD:_87tran_.obj
 0001:00029d20       __trandisp1                0042ad20 f   LIBCMTD:_87disp_.obj
 0001:00029d87       __trandisp2                0042ad87 f   LIBCMTD:_87disp_.obj
 0001:00029e13       __rttospopde               0042ae13     LIBCMTD:_87disp_.obj
 0001:00029e18       __rttospop                 0042ae18     LIBCMTD:_87disp_.obj
 0001:00029e1a       __rtnospop                 0042ae1a     LIBCMTD:_87disp_.obj
 0001:00029e1c       __rttosnpop                0042ae1c     LIBCMTD:_87disp_.obj
 0001:00029e1d       __rtnospopde               0042ae1d     LIBCMTD:_87disp_.obj
 0001:00029e24       __rtzeropop                0042ae24     LIBCMTD:_87disp_.obj
 0001:00029e26       __rtzeronpop               0042ae26     LIBCMTD:_87disp_.obj
 0001:00029e2b       __rtonepop                 0042ae2b     LIBCMTD:_87disp_.obj
 0001:00029e2d       __rtonenpop                0042ae2d     LIBCMTD:_87disp_.obj
 0001:00029e32       __tosnan1                  0042ae32     LIBCMTD:_87disp_.obj
 0001:00029e5d       __nosnan2                  0042ae5d     LIBCMTD:_87disp_.obj
 0001:00029e5f       __tosnan2                  0042ae5f     LIBCMTD:_87disp_.obj
 0001:00029e87       __nan2                     0042ae87     LIBCMTD:_87disp_.obj
 0001:00029ec6       __rtindfpop                0042aec6     LIBCMTD:_87disp_.obj
 0001:00029ec8       __rtindfnpop               0042aec8     LIBCMTD:_87disp_.obj
 0001:00029ed9       __rttosnpopde              0042aed9     LIBCMTD:_87disp_.obj
 0001:00029ee3       __rtchsifneg               0042aee3     LIBCMTD:_87disp_.obj
 0001:00029ef0       __startTwoArgErrorHandling 0042aef0 f   LIBCMTD:_genexcep_.obj
 0001:00029f07       __startOneArgErrorHandling 0042af07 f   LIBCMTD:_genexcep_.obj
 0001:00029f50       __twoToTOS                 0042af50 f   LIBCMTD:_common_.obj
 0001:00029f65       __load_CW                  0042af65 f   LIBCMTD:_common_.obj
 0001:00029f7c       __convertTOStoQNaN         0042af7c f   LIBCMTD:_common_.obj
 0001:00029f95       __fload_withFB             0042af95 f   LIBCMTD:_common_.obj
 0001:00029fd8       __checkTOS_withFB          0042afd8 f   LIBCMTD:_common_.obj
 0001:00029fee       __fast_exit                0042afee f   LIBCMTD:_common_.obj
 0001:00029ffb       __math_exit                0042affb f   LIBCMTD:_common_.obj
 0001:0002a025       __check_overflow_exit      0042b025 f   LIBCMTD:_common_.obj
 0001:0002a039       __check_range_exit         0042b039 f   LIBCMTD:_common_.obj
 0001:0002a0e0       __powhlp                   0042b0e0 f   LIBCMTD:_powhlp_.obj
 0001:0002a290       __d_inttype                0042b290 f   LIBCMTD:_powhlp_.obj
 0001:0002a320       __setdefaultprecision      0042b320 f   LIBCMTD:fp8.obj
 0001:0002a360       __ms_p5_test_fdiv          0042b360 f   LIBCMTD:_testfdiv_.obj
 0001:0002a3b0       __ms_p5_mp_test_fdiv       0042b3b0 f   LIBCMTD:_testfdiv_.obj
 0001:0002a400       __forcdecpt                0042b400 f   LIBCMTD:cvt.obj
 0001:0002a420       __forcdecpt_l              0042b420 f   LIBCMTD:cvt.obj
 0001:0002a4e0       __cropzeros                0042b4e0 f   LIBCMTD:cvt.obj
 0001:0002a500       __cropzeros_l              0042b500 f   LIBCMTD:cvt.obj
 0001:0002a610       __positive                 0042b610 f   LIBCMTD:cvt.obj
 0001:0002a640       __fassign_l                0042b640 f   LIBCMTD:cvt.obj
 0001:0002a6a0       __fassign                  0042b6a0 f   LIBCMTD:cvt.obj
 0001:0002a6c0       __cftoe_l                  0042b6c0 f   LIBCMTD:cvt.obj
 0001:0002ac10       __cftoe                    0042bc10 f   LIBCMTD:cvt.obj
 0001:0002ac40       __cftoa_l                  0042bc40 f   LIBCMTD:cvt.obj
 0001:0002b410       __cftoa                    0042c410 f   LIBCMTD:cvt.obj
 0001:0002b440       __cftof_l                  0042c440 f   LIBCMTD:cvt.obj
 0001:0002b850       __cftof                    0042c850 f   LIBCMTD:cvt.obj
 0001:0002b880       __cftog_l                  0042c880 f   LIBCMTD:cvt.obj
 0001:0002bab0       __cftog                    0042cab0 f   LIBCMTD:cvt.obj
 0001:0002bae0       __cfltcvt_l                0042cae0 f   LIBCMTD:cvt.obj
 0001:0002bba0       __cfltcvt                  0042cba0 f   LIBCMTD:cvt.obj
 0001:0002bc00       __initp_misc_cfltcvt_tab   0042cc00 f   LIBCMTD:cmiscdat.obj
 0001:0002bc50       ___libm_setusermatherr     0042cc50 f   LIBCMTD:_libm_error_.obj
 0001:0002bc90       ___libm_error_support      0042cc90 f   LIBCMTD:_libm_error_.obj
 0001:0002c7d0       __floor_default            0042d7d0 f   LIBCMTD:_floor_.obj
 0001:0002c910       __handle_qnan1             0042d910 f   LIBCMTD:_fpexcept_.obj
 0001:0002c970       __handle_qnan2             0042d970 f   LIBCMTD:_fpexcept_.obj
 0001:0002c9e0       __except1                  0042d9e0 f   LIBCMTD:_fpexcept_.obj
 0001:0002cae0       __except2                  0042dae0 f   LIBCMTD:_fpexcept_.obj
 0001:0002cbf0       __raise_exc_ex             0042dbf0 f   LIBCMTD:_fpexcept_.obj
 0001:0002d120       __raise_exc                0042e120 f   LIBCMTD:_fpexcept_.obj
 0001:0002d150       __raise_excf               0042e150 f   LIBCMTD:_fpexcept_.obj
 0001:0002d180       __handle_exc               0042e180 f   LIBCMTD:_fpexcept_.obj
 0001:0002d490       __umatherr                 0042e490 f   LIBCMTD:_fpexcept_.obj
 0001:0002d530       __set_errno_from_matherr   0042e530 f   LIBCMTD:_fpexcept_.obj
 0001:0002d5c0       __errcode                  0042e5c0 f   LIBCMTD:_fpexcept_.obj
 0001:0002d630       __set_exp                  0042e630 f   LIBCMTD:_util_.obj
 0001:0002d670       __get_exp                  0042e670 f   LIBCMTD:_util_.obj
 0001:0002d6a0       __add_exp                  0042e6a0 f   LIBCMTD:_util_.obj
 0001:0002d6e0       __set_bexp                 0042e6e0 f   LIBCMTD:_util_.obj
 0001:0002d710       __sptype                   0042e710 f   LIBCMTD:_util_.obj
 0001:0002d790       __decomp                   0042e790 f   LIBCMTD:_util_.obj
 0001:0002d8b0       __statfp                   0042e8b0 f   LIBCMTD:_fpctrl_.obj
 0001:0002d8d0       __clrfp                    0042e8d0 f   LIBCMTD:_fpctrl_.obj
 0001:0002d8f0       __ctrlfp                   0042e8f0 f   LIBCMTD:_fpctrl_.obj
 0001:0002d920       __set_statfp               0042e920 f   LIBCMTD:_fpctrl_.obj
 0001:0002d990       ___get_fpsr_sse2           0042e990 f   LIBCMTD:_fpctrl_.obj
 0001:0002d9c0       ___set_fpsr_sse2           0042e9c0 f   LIBCMTD:_fpctrl_.obj
 0001:0002daa0       ___fclrf_sse2              0042eaa0 f   LIBCMTD:_fpctrl_.obj
 0001:0002dac0       ___statfp_sse2             0042eac0 f   LIBCMTD:_fpctrl_.obj
 0001:0002daf0       ___clrfp_sse2              0042eaf0 f   LIBCMTD:_fpctrl_.obj
 0001:0002db30       ___ctrlfp_sse2             0042eb30 f   LIBCMTD:_fpctrl_.obj
 0001:0002db90       ___set_statfp_sse2         0042eb90 f   LIBCMTD:_fpctrl_.obj
 0001:0002dbc0       ___crtLCMapStringA         0042ebc0 f   LIBCMTD:a_map.obj
 0001:0002e120       __MarkAllocaS              0042f120 f i LIBCMTD:a_map.obj
 0001:0002e150       __freea                    0042f150 f i LIBCMTD:a_map.obj
 0001:0002e210       __isleadbyte_l             0042f210 f i LIBCMTD:_wctype.obj
 0001:0002e260       _isleadbyte                0042f260 f i LIBCMTD:_wctype.obj
 0001:0002e280       __iswalpha_l               0042f280 f i LIBCMTD:_wctype.obj
 0001:0002e2a0       _iswalpha                  0042f2a0 f i LIBCMTD:_wctype.obj
 0001:0002e2c0       __iswupper_l               0042f2c0 f i LIBCMTD:_wctype.obj
 0001:0002e2e0       _iswupper                  0042f2e0 f i LIBCMTD:_wctype.obj
 0001:0002e300       __iswlower_l               0042f300 f i LIBCMTD:_wctype.obj
 0001:0002e320       _iswlower                  0042f320 f i LIBCMTD:_wctype.obj
 0001:0002e340       __iswdigit_l               0042f340 f i LIBCMTD:_wctype.obj
 0001:0002e360       _iswdigit                  0042f360 f i LIBCMTD:_wctype.obj
 0001:0002e380       __iswxdigit_l              0042f380 f i LIBCMTD:_wctype.obj
 0001:0002e3a0       _iswxdigit                 0042f3a0 f i LIBCMTD:_wctype.obj
 0001:0002e3c0       __iswspace_l               0042f3c0 f i LIBCMTD:_wctype.obj
 0001:0002e3e0       _iswspace                  0042f3e0 f i LIBCMTD:_wctype.obj
 0001:0002e400       __iswpunct_l               0042f400 f i LIBCMTD:_wctype.obj
 0001:0002e420       _iswpunct                  0042f420 f i LIBCMTD:_wctype.obj
 0001:0002e440       __iswalnum_l               0042f440 f i LIBCMTD:_wctype.obj
 0001:0002e460       _iswalnum                  0042f460 f i LIBCMTD:_wctype.obj
 0001:0002e480       __iswprint_l               0042f480 f i LIBCMTD:_wctype.obj
 0001:0002e4a0       _iswprint                  0042f4a0 f i LIBCMTD:_wctype.obj
 0001:0002e4c0       __iswgraph_l               0042f4c0 f i LIBCMTD:_wctype.obj
 0001:0002e4e0       _iswgraph                  0042f4e0 f i LIBCMTD:_wctype.obj
 0001:0002e500       __iswcntrl_l               0042f500 f i LIBCMTD:_wctype.obj
 0001:0002e520       _iswcntrl                  0042f520 f i LIBCMTD:_wctype.obj
 0001:0002e540       _iswascii                  0042f540 f i LIBCMTD:_wctype.obj
 0001:0002e560       __iswcsym_l                0042f560 f i LIBCMTD:_wctype.obj
 0001:0002e5a0       ___iswcsym                 0042f5a0 f i LIBCMTD:_wctype.obj
 0001:0002e5e0       __iswcsymf_l               0042f5e0 f i LIBCMTD:_wctype.obj
 0001:0002e620       ___iswcsymf                0042f620 f i LIBCMTD:_wctype.obj
 0001:0002e660       __chvalidator              0042f660 f   LIBCMTD:isctype.obj
 0001:0002e6b0       __chvalidator_l            0042f6b0 f   LIBCMTD:isctype.obj
 0001:0002e760       __isctype_l                0042f760 f   LIBCMTD:isctype.obj
 0001:0002e880       __isctype                  0042f880 f   LIBCMTD:isctype.obj
 0001:0002e8c0       ___updatetmbcinfo          0042f8c0 f   LIBCMTD:mbctype.obj
 0001:0002e9d0       __setmbcp                  0042f9d0 f   LIBCMTD:mbctype.obj
 0001:0002ed80       __setmbcp_nolock           0042fd80 f   LIBCMTD:mbctype.obj
 0001:0002f570       __getmbcp                  00430570 f   LIBCMTD:mbctype.obj
 0001:0002f5e0       ___initmbctable            004305e0 f   LIBCMTD:mbctype.obj
 0001:0002f610       ____setlc_active_func      00430610 f   LIBCMTD:setlocal.obj
 0001:0002f620       ____unguarded_readlc_active_add_func 00430620 f   LIBCMTD:setlocal.obj
 0001:0002f630       ___freetlocinfo            00430630 f   LIBCMTD:setlocal.obj
 0001:0002f910       ___addlocaleref            00430910 f   LIBCMTD:setlocal.obj
 0001:0002fa30       ___removelocaleref         00430a30 f   LIBCMTD:setlocal.obj
 0001:0002fb60       ___updatetlocinfo          00430b60 f   LIBCMTD:setlocal.obj
 0001:0002fcb0       __configthreadlocale       00430cb0 f   LIBCMTD:setlocal.obj
 0001:0002fdc0       __locterm                  00430dc0 f   LIBCMTD:setlocal.obj
 0001:0002fe60       __free_locale              00430e60 f   LIBCMTD:setlocal.obj
 0001:0002ffa0       ___free_locale             00430fa0 f   LIBCMTD:setlocal.obj
 0001:0002ffc0       __create_locale            00430fc0 f   LIBCMTD:setlocal.obj
 0001:000301f0       ___create_locale           004311f0 f   LIBCMTD:setlocal.obj
 0001:00030210       __get_current_locale       00431210 f   LIBCMTD:setlocal.obj
 0001:00030330       ___get_current_locale      00431330 f   LIBCMTD:setlocal.obj
 0001:00030340       _setlocale                 00431340 f   LIBCMTD:setlocal.obj
 0001:00031250       __expandlocale             00432250 f   LIBCMTD:setlocal.obj
 0001:00031500       ___init_dummy              00432500 f   LIBCMTD:setlocal.obj
 0001:00031510       __strcats                  00432510 f   LIBCMTD:setlocal.obj
 0001:00031590       ___lc_strtolc              00432590 f   LIBCMTD:setlocal.obj
 0001:00031790       ___lc_lctostr              00432790 f   LIBCMTD:setlocal.obj
 0001:00031830       __close                    00432830 f   LIBCMTD:close.obj
 0001:00031a40       __close_nolock             00432a40 f   LIBCMTD:close.obj
 0001:00031b10       __fileno                   00432b10 f   LIBCMTD:fileno.obj
 0001:00031b90       __filbuf                   00432b90 f   LIBCMTD:_filbuf.obj
 0001:00031de0       __read                     00432de0 f   LIBCMTD:read.obj
 0001:00032070       __read_nolock              00433070 f   LIBCMTD:read.obj
 0001:00032fc0       __openfile                 00433fc0 f   LIBCMTD:_open.obj
 0001:0003377c       __local_unwind4            0043477c f   LIBCMTD:exsup4.obj
 0001:00033852       __seh_longjmp_unwind4@4    00434852 f   LIBCMTD:exsup4.obj
 0001:0003386e       @_EH4_CallFilterFunc@8     0043486e f   LIBCMTD:exsup4.obj
 0001:00033885       @_EH4_TransferToHandler@8  00434885 f   LIBCMTD:exsup4.obj
 0001:0003389e       @_EH4_GlobalUnwind@4       0043489e f   LIBCMTD:exsup4.obj
 0001:000338b8       @_EH4_LocalUnwind@16       004348b8 f   LIBCMTD:exsup4.obj
 0001:000338d0       ___InternalCxxFrameHandler 004348d0 f   LIBCMTD:frame.obj
 0001:00033ed0       ??0bad_exception@std@@QAE@PBD@Z 00434ed0 f i LIBCMTD:frame.obj
 0001:00033f00       ??1bad_exception@std@@UAE@XZ 00434f00 f i LIBCMTD:frame.obj
 0001:00033f20       ??_Gbad_exception@std@@UAEPAXI@Z 00434f20 f i LIBCMTD:frame.obj
 0001:00033f20       ??_Ebad_exception@std@@UAEPAXI@Z 00434f20 f i LIBCMTD:frame.obj
 0001:00033f50       ??0bad_exception@std@@QAE@ABV01@@Z 00434f50 f i LIBCMTD:frame.obj
 0001:00034100       ___TypeMatch               00435100 f   LIBCMTD:frame.obj
 0001:000341b0       ___FrameUnwindFilter       004351b0 f   LIBCMTD:frame.obj
 0001:00034230       ___FrameUnwindToState      00435230 f   LIBCMTD:frame.obj
 0001:00034770       ___BuildCatchObjectHelper  00435770 f   LIBCMTD:frame.obj
 0001:000349e0       ___BuildCatchObject        004359e0 f   LIBCMTD:frame.obj
 0001:00034af0       ___DestructExceptionObject 00435af0 f   LIBCMTD:frame.obj
 0001:00034ba0       ___AdjustPointer           00435ba0 f   LIBCMTD:frame.obj
 0001:00034bf0       ?__uncaught_exception@@YA_NXZ 00435bf0 f   LIBCMTD:frame.obj
 0001:00034c10       ___CxxExceptionFilter      00435c10 f   LIBCMTD:frame.obj
 0001:00034e00       ___CxxRegisterExceptionObject 00435e00 f   LIBCMTD:frame.obj
 0001:00034f30       ___CxxDetectRethrow        00435f30 f   LIBCMTD:frame.obj
 0001:00034fc0       ___CxxUnregisterExceptionObject 00435fc0 f   LIBCMTD:frame.obj
 0001:00035140       ___CxxQueryExceptionSize   00436140 f   LIBCMTD:frame.obj
 0001:00035150       ___CxxCallUnwindDtor       00436150 f   LIBCMTD:frame.obj
 0001:000351d0       ___CxxCallUnwindDelDtor    004361d0 f   LIBCMTD:frame.obj
 0001:00035250       ___CxxCallUnwindStdDelDtor 00436250 f   LIBCMTD:frame.obj
 0001:000352d0       ___CxxCallUnwindVecDtor    004362d0 f   LIBCMTD:frame.obj
 0001:00035500       ?_is_exception_typeof@@YAHABVtype_info@@PAU_EXCEPTION_POINTERS@@@Z 00436500 f   LIBCMTD:frame.obj
 0001:000355e0       __CallSettingFrame@12      004365e0 f   LIBCMTD:lowhelpr.obj
 0001:00035607       __NLG_Return               00436607     LIBCMTD:lowhelpr.obj
 0001:00035630       __initp_eh_hooks           00436630 f   LIBCMTD:hooks.obj
 0001:00035650       ?terminate@@YAXXZ          00436650 f   LIBCMTD:hooks.obj
 0001:000356d0       ?unexpected@@YAXXZ         004366d0 f   LIBCMTD:hooks.obj
 0001:00035700       ?_inconsistency@@YAXXZ     00436700 f   LIBCMTD:hooks.obj
 0001:00035790       __stbuf                    00436790 f   LIBCMTD:_sftbuf.obj
 0001:000358f0       __ftbuf                    004368f0 f   LIBCMTD:_sftbuf.obj
 0001:00035980       _vprintf_helper            00436980 f   LIBCMTD:vprintf.obj
 0001:00035aa0       __vprintf_l                00436aa0 f   LIBCMTD:vprintf.obj
 0001:00035ac0       __vprintf_s_l              00436ac0 f   LIBCMTD:vprintf.obj
 0001:00035ae0       __vprintf_p_l              00436ae0 f   LIBCMTD:vprintf.obj
 0001:00035b00       _vprintf                   00436b00 f   LIBCMTD:vprintf.obj
 0001:00035b20       _vprintf_s                 00436b20 f   LIBCMTD:vprintf.obj
 0001:00035b40       __vprintf_p                00436b40 f   LIBCMTD:vprintf.obj
 0001:00035b60       __CrtDefaultAllocHook      00436b60 f   LIBCMTD:dbghook.obj
 0001:00035b70       __crt_debugger_hook        00436b70 f   LIBCMTD:dbghook.obj
 0001:00035b90       __CrtDbgBreak              00436b90 f   LIBCMTD:dbgrptt.obj
 0001:00035ba0       __CrtSetReportMode         00436ba0 f   LIBCMTD:dbgrptt.obj
 0001:00035ce0       __CrtSetReportFile         00436ce0 f   LIBCMTD:dbgrptt.obj
 0001:00035de0       __CrtSetReportHook         00436de0 f   LIBCMTD:dbgrptt.obj
 0001:00035e00       __CrtGetReportHook         00436e00 f   LIBCMTD:dbgrptt.obj
 0001:00035e10       __VCrtDbgReportA           00436e10 f   LIBCMTD:dbgrptt.obj
 0001:00036640       __VCrtDbgReportW           00437640 f   LIBCMTD:dbgrptt.obj
 0001:00036f70       __initp_misc_winsig        00437f70 f   LIBCMTD:winsig.obj
 0001:00036fa0       _signal                    00437fa0 f   LIBCMTD:winsig.obj
 0001:00037440       _raise                     00438440 f   LIBCMTD:winsig.obj
 0001:000377b0       ___get_sigabrt             004387b0 f   LIBCMTD:winsig.obj
 0001:000377d0       ___fpecode                 004387d0 f   LIBCMTD:winsig.obj
 0001:000377e0       ___pxcptinfoptrs           004387e0 f   LIBCMTD:winsig.obj
 0001:000377f0       ___crtMessageBoxW          004387f0 f   LIBCMTD:crtmboxw.obj
 0001:00037a10       __swprintf                 00438a10 f   LIBCMTD:swprintf.obj
 0001:00037be0       ___swprintf_l              00438be0 f   LIBCMTD:swprintf.obj
 0001:00037c10       _swprintf_s                00438c10 f   LIBCMTD:swprintf.obj
 0001:00037c40       __snwprintf_s              00438c40 f   LIBCMTD:swprintf.obj
 0001:00037c70       __swprintf_p               00438c70 f   LIBCMTD:swprintf.obj
 0001:00037ca0       __swprintf_s_l             00438ca0 f   LIBCMTD:swprintf.obj
 0001:00037cd0       __snwprintf_s_l            00438cd0 f   LIBCMTD:swprintf.obj
 0001:00037d00       __swprintf_p_l             00438d00 f   LIBCMTD:swprintf.obj
 0001:00037d30       __scwprintf                00438d30 f   LIBCMTD:swprintf.obj
 0001:00037d50       __scwprintf_p              00438d50 f   LIBCMTD:swprintf.obj
 0001:00037d70       __scwprintf_l              00438d70 f   LIBCMTD:swprintf.obj
 0001:00037da0       __scwprintf_p_l            00438da0 f   LIBCMTD:swprintf.obj
 0001:00037dd0       _wcscpy_s                  00438dd0 f   LIBCMTD:wcscpy_s.obj
 0001:000380b0       __initp_heap_handler       004390b0 f   LIBCMTD:handler.obj
 0001:000380c0       ?_set_new_handler@@YAP6AHI@ZP6AHI@Z@Z 004390c0 f   LIBCMTD:handler.obj
 0001:00038110       ?_set_new_handler@@YAP6AHI@ZH@Z 00439110 f   LIBCMTD:handler.obj
 0001:00038150       ?_query_new_handler@@YAP6AHI@ZXZ 00439150 f   LIBCMTD:handler.obj
 0001:00038170       __callnewh                 00439170 f   LIBCMTD:handler.obj
 0001:000381b0       _memmove                   004391b0 f   LIBCMTD:memmove.obj
 0001:00038520       _vfprintf_helper           00439520 f   LIBCMTD:vfprintf.obj
 0001:000387c0       __vfprintf_l               004397c0 f   LIBCMTD:vfprintf.obj
 0001:000387f0       __vfprintf_s_l             004397f0 f   LIBCMTD:vfprintf.obj
 0001:00038820       __vfprintf_p_l             00439820 f   LIBCMTD:vfprintf.obj
 0001:00038850       _vfprintf                  00439850 f   LIBCMTD:vfprintf.obj
 0001:00038880       _vfprintf_s                00439880 f   LIBCMTD:vfprintf.obj
 0001:000388b0       __vfprintf_p               004398b0 f   LIBCMTD:vfprintf.obj
 0001:000388e0       __RTC_Initialize           004398e0 f   LIBCMTD:_initsect_.obj
 0001:00038910       __RTC_Terminate            00439910 f   LIBCMTD:_initsect_.obj
 0001:00038940       __ValidateImageBase        00439940 f   LIBCMTD:pesect.obj
 0001:000389a0       __FindPESection            004399a0 f   LIBCMTD:pesect.obj
 0001:00038a20       __IsNonwritableInCurrentImage 00439a20 f   LIBCMTD:pesect.obj
 0001:00038b40       __FF_MSGBANNER             00439b40 f   LIBCMTD:crt0msg.obj
 0001:00038b90       __NMSG_WRITE               00439b90 f   LIBCMTD:crt0msg.obj
 0001:00038e30       __GET_RTERRMSG             00439e30 f   LIBCMTD:crt0msg.obj
 0001:00038e80       __initp_misc_winxfltr      00439e80 f   LIBCMTD:winxfltr.obj
 0001:00038e90       ___CppXcptFilter           00439e90 f   LIBCMTD:winxfltr.obj
 0001:00038ec0       __XcptFilter               00439ec0 f   LIBCMTD:winxfltr.obj
 0001:000390f0       __initp_misc_rand_s        0043a0f0 f   LIBCMTD:rand_s.obj
 0001:00039100       _rand_s                    0043a100 f   LIBCMTD:rand_s.obj
 0001:00039320       ___getlocaleinfo           0043a320 f   LIBCMTD:inithelp.obj
 0001:000395c0       __initp_misc_purevirt      0043a5c0 f   LIBCMTD:inithelp.obj
 0001:000395d0       __ismbbkalnum_l            0043a5d0 f   LIBCMTD:ismbbyte.obj
 0001:000395f0       __ismbbkalnum              0043a5f0 f   LIBCMTD:ismbbyte.obj
 0001:00039610       __ismbbkprint_l            0043a610 f   LIBCMTD:ismbbyte.obj
 0001:00039630       __ismbbkprint              0043a630 f   LIBCMTD:ismbbyte.obj
 0001:00039650       __ismbbkpunct_l            0043a650 f   LIBCMTD:ismbbyte.obj
 0001:00039670       __ismbbkpunct              0043a670 f   LIBCMTD:ismbbyte.obj
 0001:00039690       __ismbbalnum_l             0043a690 f   LIBCMTD:ismbbyte.obj
 0001:000396b0       __ismbbalnum               0043a6b0 f   LIBCMTD:ismbbyte.obj
 0001:000396d0       __ismbbalpha_l             0043a6d0 f   LIBCMTD:ismbbyte.obj
 0001:000396f0       __ismbbalpha               0043a6f0 f   LIBCMTD:ismbbyte.obj
 0001:00039710       __ismbbgraph_l             0043a710 f   LIBCMTD:ismbbyte.obj
 0001:00039730       __ismbbgraph               0043a730 f   LIBCMTD:ismbbyte.obj
 0001:00039750       __ismbbprint_l             0043a750 f   LIBCMTD:ismbbyte.obj
 0001:00039770       __ismbbprint               0043a770 f   LIBCMTD:ismbbyte.obj
 0001:00039790       __ismbbpunct_l             0043a790 f   LIBCMTD:ismbbyte.obj
 0001:000397b0       __ismbbpunct               0043a7b0 f   LIBCMTD:ismbbyte.obj
 0001:000397d0       __ismbblead_l              0043a7d0 f   LIBCMTD:ismbbyte.obj
 0001:000397f0       __ismbblead                0043a7f0 f   LIBCMTD:ismbbyte.obj
 0001:00039810       __ismbbtrail_l             0043a810 f   LIBCMTD:ismbbyte.obj
 0001:00039830       __ismbbtrail               0043a830 f   LIBCMTD:ismbbyte.obj
 0001:00039850       __ismbbkana_l              0043a850 f   LIBCMTD:ismbbyte.obj
 0001:000398c0       __ismbbkana                0043a8c0 f   LIBCMTD:ismbbyte.obj
 0001:000399b0       __mbsnbcpy_s               0043a9b0 f   LIBCMTD:mbsnbcpy_s.obj
 0001:000399e0       __lseek                    0043a9e0 f   LIBCMTD:lseek.obj
 0001:00039c10       __lseek_nolock             0043ac10 f   LIBCMTD:lseek.obj
 0001:00039cf0       _ftell                     0043acf0 f   LIBCMTD:ftell.obj
 0001:00039de0       __ftell_nolock             0043ade0 f   LIBCMTD:ftell.obj
 0001:0003a0b0       ?__CxxUnhandledExceptionFilter@@YGJPAU_EXCEPTION_POINTERS@@@Z 0043b0b0 f   LIBCMTD:unhandld.obj
 0001:0003a120       ___CxxSetUnhandledExceptionFilter 0043b120 f   LIBCMTD:unhandld.obj
 0001:0003a140       ___security_init_cookie    0043b140 f   LIBCMTD:gs_support.obj
 0001:0003a220       __wincmdln                 0043b220 f   LIBCMTD:wincmdln.obj
 0001:0003a2f0       __setenvp                  0043b2f0 f   LIBCMTD:stdenvp.obj
 0001:0003a490       __setargv                  0043b490 f   LIBCMTD:stdargv.obj
 0001:0003a5b0       __set_pgmptr               0043b5b0 f i LIBCMTD:stdargv.obj
 0001:0003a920       ___crtGetEnvironmentStringsA 0043b920 f   LIBCMTD:a_env.obj
 0001:0003ab40       ___heap_select             0043bb40 f   LIBCMTD:heapinit.obj
 0001:0003ab60       __heap_init                0043bb60 f   LIBCMTD:heapinit.obj
 0001:0003abe0       __heap_term                0043bbe0 f   LIBCMTD:heapinit.obj
 0001:0003ac80       __get_heap_handle          0043bc80 f   LIBCMTD:heapinit.obj
 0001:0003acc0       _V6_HeapAlloc              0043bcc0 f   LIBCMTD:malloc.obj
 0001:0003ad60       __malloc_base              0043bd60 f   LIBCMTD:malloc.obj
 0001:0003adf0       __heap_alloc_base          0043bdf0 f i LIBCMTD:malloc.obj
 0001:0003aeb0       __CrtSetReportHook2        0043beb0 f   LIBCMTD:dbgrpt.obj
 0001:0003b1d0       __CrtDbgReport             0043c1d0 f   LIBCMTD:dbgrpt.obj
 0001:0003b210       __CrtDbgReportV            0043c210 f i LIBCMTD:dbgrpt.obj
 0001:0003b240       ___crtMessageWindowA       0043c240 f   LIBCMTD:dbgrpt.obj
 0001:0003b640       __expand_base              0043c640 f   LIBCMTD:expand.obj
 0001:0003b910       __realloc_base             0043c910 f   LIBCMTD:realloc.obj
 0001:0003bcb0       __free_base                0043ccb0 f   LIBCMTD:free.obj
 0001:0003bde0       __heapchk                  0043cde0 f   LIBCMTD:heapchk.obj
 0001:0003beb0       __heapset                  0043ceb0 f   LIBCMTD:heapchk.obj
 0001:0003bec0       __get_sbh_threshold        0043cec0 f   LIBCMTD:sbheap.obj
 0001:0003bf10       __set_sbh_threshold        0043cf10 f   LIBCMTD:sbheap.obj
 0001:0003c0a0       __set_amblksiz             0043d0a0 f   LIBCMTD:sbheap.obj
 0001:0003c1b0       __get_amblksiz             0043d1b0 f   LIBCMTD:sbheap.obj
 0001:0003c2a0       ___sbh_heap_init           0043d2a0 f   LIBCMTD:sbheap.obj
 0001:0003c310       ___sbh_find_block          0043d310 f   LIBCMTD:sbheap.obj
 0001:0003c370       ___sbh_verify_block        0043d370 f   LIBCMTD:sbheap.obj
 0001:0003c3d0       ___sbh_free_block          0043d3d0 f   LIBCMTD:sbheap.obj
 0001:0003c990       ___sbh_alloc_block         0043d990 f   LIBCMTD:sbheap.obj
 0001:0003ceb0       ___sbh_alloc_new_region    0043deb0 f   LIBCMTD:sbheap.obj
 0001:0003cfc0       ___sbh_alloc_new_group     0043dfc0 f   LIBCMTD:sbheap.obj
 0001:0003d1b0       ___sbh_resize_block        0043e1b0 f   LIBCMTD:sbheap.obj
 0001:0003d780       ___sbh_heapmin             0043e780 f   LIBCMTD:sbheap.obj
 0001:0003d8b0       ___sbh_heap_check          0043e8b0 f   LIBCMTD:sbheap.obj
 0001:0003dda0       _fwrite                    0043eda0 f   LIBCMTD:fwrite.obj
 0001:0003deb0       __fwrite_nolock            0043eeb0 f   LIBCMTD:fwrite.obj
 0001:0003e280       __commit                   0043f280 f   LIBCMTD:commit.obj
 0001:0003e4a0       __write                    0043f4a0 f   LIBCMTD:write.obj
 0001:0003e6d0       __write_nolock             0043f6d0 f   LIBCMTD:write.obj
 0001:0003f210       __lseeki64                 00440210 f   LIBCMTD:lseeki64.obj
 0001:0003f460       __lseeki64_nolock          00440460 f   LIBCMTD:lseeki64.obj
 0001:0003f550       __getbuf                   00440550 f   LIBCMTD:_getbuf.obj
 0001:0003f610       __isatty                   00440610 f   LIBCMTD:isatty.obj
 0001:0003f6f0       __wctomb_s_l               004406f0 f   LIBCMTD:wctomb.obj
 0001:0003f9f0       _wctomb_s                  004409f0 f   LIBCMTD:wctomb.obj
 0001:0003fa20       __wctomb_l                 00440a20 f   LIBCMTD:wctomb.obj
 0001:0003faa0       _wctomb                    00440aa0 f   LIBCMTD:wctomb.obj
 0001:0003faf0       __aulldiv                  00440af0 f   LIBCMTD:ulldiv.obj
 0001:0003fb60       __aullrem                  00440b60 f   LIBCMTD:ullrem.obj
 0001:0003fbe0       __validate_param_reuseA    00440be0 f   LIBCMTD:outputp.obj
 0001:0003fe50       __output_p_l               00440e50 f   LIBCMTD:outputp.obj
 0001:00043a10       _get_crtdouble_arg         00444a10 f i LIBCMTD:outputp.obj
 0001:00043a30       __output_s_l               00444a30 f   LIBCMTD:outputs.obj
 0001:00044fc0       __isalpha_l                00445fc0 f i LIBCMTD:_ctype.obj
 0001:00045050       _isalpha                   00446050 f i LIBCMTD:_ctype.obj
 0001:00045090       __isupper_l                00446090 f i LIBCMTD:_ctype.obj
 0001:00045110       _isupper                   00446110 f i LIBCMTD:_ctype.obj
 0001:00045140       __islower_l                00446140 f i LIBCMTD:_ctype.obj
 0001:000451c0       _islower                   004461c0 f i LIBCMTD:_ctype.obj
 0001:000451f0       __isdigit_l                004461f0 f i LIBCMTD:_ctype.obj
 0001:00045270       _isdigit                   00446270 f i LIBCMTD:_ctype.obj
 0001:000452a0       __isxdigit_l               004462a0 f i LIBCMTD:_ctype.obj
 0001:00045330       _isxdigit                  00446330 f i LIBCMTD:_ctype.obj
 0001:00045370       __isspace_l                00446370 f i LIBCMTD:_ctype.obj
 0001:000453f0       _isspace                   004463f0 f i LIBCMTD:_ctype.obj
 0001:00045420       __ispunct_l                00446420 f i LIBCMTD:_ctype.obj
 0001:000454a0       _ispunct                   004464a0 f i LIBCMTD:_ctype.obj
 0001:000454d0       __isalnum_l                004464d0 f i LIBCMTD:_ctype.obj
 0001:00045560       _isalnum                   00446560 f i LIBCMTD:_ctype.obj
 0001:000455a0       __isprint_l                004465a0 f i LIBCMTD:_ctype.obj
 0001:00045630       _isprint                   00446630 f i LIBCMTD:_ctype.obj
 0001:00045670       __isgraph_l                00446670 f i LIBCMTD:_ctype.obj
 0001:00045700       _isgraph                   00446700 f i LIBCMTD:_ctype.obj
 0001:00045740       __iscntrl_l                00446740 f i LIBCMTD:_ctype.obj
 0001:000457c0       _iscntrl                   004467c0 f i LIBCMTD:_ctype.obj
 0001:000457f0       ___isascii                 004467f0 f i LIBCMTD:_ctype.obj
 0001:00045810       ___toascii                 00446810 f i LIBCMTD:_ctype.obj
 0001:00045820       __iscsymf_l                00446820 f i LIBCMTD:_ctype.obj
 0001:00045860       ___iscsymf                 00446860 f i LIBCMTD:_ctype.obj
 0001:000458a0       __iscsym_l                 004468a0 f i LIBCMTD:_ctype.obj
 0001:000458e0       ___iscsym                  004468e0 f i LIBCMTD:_ctype.obj
 0001:00045920       __mbtowc_l                 00446920 f   LIBCMTD:mbtowc.obj
 0001:00045b40       _mbtowc                    00446b40 f   LIBCMTD:mbtowc.obj
 0001:00045b60       __allshl                   00446b60 f   LIBCMTD:llshl.obj
 0001:00045b80       _ungetc                    00446b80 f   LIBCMTD:ungetc.obj
 0001:00045c70       __ungetc_nolock            00446c70 f   LIBCMTD:ungetc.obj
 0001:00045e90       ___unDName                 00446e90 f   LIBCMTD:undname.obj
 0001:00045f70       ?Constructor@HeapManager@@QAEXP6APAXI@ZP6AXPAX@Z@Z 00446f70 f i LIBCMTD:undname.obj
 0001:00045fb0       ?Destructor@HeapManager@@QAEXXZ 00446fb0 f i LIBCMTD:undname.obj
 0001:00046000       ___unDNameEx               00447000 f   LIBCMTD:undname.obj
 0001:000460e0       ??0UnDecorator@@QAE@PADPBDHP6APADJ@ZK@Z 004470e0 f i LIBCMTD:undname.obj
 0001:00046180       ??BUnDecorator@@QAEPADXZ   00447180 f i LIBCMTD:undname.obj
 0001:000463b0       ?dbGetString@DName@@QBEPADXZ 004473b0 f   LIBCMTD:undname.obj
 0001:000463e0       ?getDecoratedName@UnDecorator@@CA?AVDName@@XZ 004473e0 f   LIBCMTD:undname.obj
 0001:000466f0       ?getSymbolName@UnDecorator@@CA?AVDName@@XZ 004476f0 f i LIBCMTD:undname.obj
 0001:00046770       ?getZName@UnDecorator@@CA?AVDName@@_N0@Z 00447770 f   LIBCMTD:undname.obj
 0001:00046a10       ?getOperatorName@UnDecorator@@CA?AVDName@@_NPA_N@Z 00447a10 f i LIBCMTD:undname.obj
 0001:00047380       ?getStringEncoding@UnDecorator@@CA?AVDName@@PADH@Z 00448380 f   LIBCMTD:undname.obj
 0001:00047480       ?getScope@UnDecorator@@CA?AVDName@@XZ 00448480 f   LIBCMTD:undname.obj
 0001:00047860       ?getSignedDimension@UnDecorator@@CA?AVDName@@XZ 00448860 f   LIBCMTD:undname.obj
 0001:000478e0       ?getDimension@UnDecorator@@CA?AVDName@@_N@Z 004488e0 f   LIBCMTD:undname.obj
 0001:00047b90       ?getNumberOfDimensions@UnDecorator@@CAHXZ 00448b90 f   LIBCMTD:undname.obj
 0001:00047c90       ?getTemplateName@UnDecorator@@CA?AVDName@@_N@Z 00448c90 f   LIBCMTD:undname.obj
 0001:00047e50       ?getTemplateArgumentList@UnDecorator@@CA?AVDName@@XZ 00448e50 f   LIBCMTD:undname.obj
 0001:000480d0       ?getTemplateConstant@UnDecorator@@CA?AVDName@@XZ 004490d0 f   LIBCMTD:undname.obj
 0001:00048560       ?composeDeclaration@UnDecorator@@CA?AVDName@@ABV2@@Z 00449560 f i LIBCMTD:undname.obj
 0001:00049b60       ?getTypeEncoding@UnDecorator@@CAHXZ 0044ab60 f i LIBCMTD:undname.obj
 0001:0004a5a0       ?getBasedType@UnDecorator@@CA?AVDName@@XZ 0044b5a0 f   LIBCMTD:undname.obj
 0001:0004a660       ?getScopedName@UnDecorator@@CA?AVDName@@XZ 0044b660 f   LIBCMTD:undname.obj
 0001:0004a780       ?getCallingConvention@UnDecorator@@CA?AVDName@@XZ 0044b780 f   LIBCMTD:undname.obj
 0001:0004a8e0       ?getReturnType@UnDecorator@@CA?AVDName@@PAV2@@Z 0044b8e0 f   LIBCMTD:undname.obj
 0001:0004a930       ?getDataType@UnDecorator@@CA?AVDName@@PAV2@@Z 0044b930 f   LIBCMTD:undname.obj
 0001:0004aa40       ?getPrimaryDataType@UnDecorator@@CA?AVDName@@ABV2@@Z 0044ba40 f   LIBCMTD:undname.obj
 0001:0004acf0       ?getArgumentTypes@UnDecorator@@CA?AVDName@@XZ 0044bcf0 f   LIBCMTD:undname.obj
 0001:0004ae50       ?getArgumentList@UnDecorator@@CA?AVDName@@XZ 0044be50 f   LIBCMTD:undname.obj
 0001:0004afa0       ?getThrowTypes@UnDecorator@@CA?AVDName@@XZ 0044bfa0 f   LIBCMTD:undname.obj
 0001:0004b050       ?getBasicDataType@UnDecorator@@CA?AVDName@@ABV2@@Z 0044c050 f   LIBCMTD:undname.obj
 0001:0004b600       ?getECSUDataType@UnDecorator@@CA?AVDName@@XZ 0044c600 f   LIBCMTD:undname.obj
 0001:0004b7d0       ?getECSUName@UnDecorator@@CA?AVDName@@XZ 0044c7d0 f i LIBCMTD:undname.obj
 0001:0004b7f0       ?getEnumType@UnDecorator@@CA?AVDName@@XZ 0044c7f0 f i LIBCMTD:undname.obj
 0001:0004b940       ?getFunctionIndirectType@UnDecorator@@CA?AVDName@@ABV2@@Z 0044c940 f   LIBCMTD:undname.obj
 0001:0004bd80       ?getPtrRefType@UnDecorator@@CA?AVDName@@ABV2@0D@Z 0044cd80 f   LIBCMTD:undname.obj
 0001:0004bee0       ?getExtendedDataIndirectType@UnDecorator@@CA?AVDName@@AADAA_NH@Z 0044cee0 f   LIBCMTD:undname.obj
 0001:0004c0f0       ?getDataIndirectType@UnDecorator@@CA?AVDName@@ABV2@D0H@Z 0044d0f0 f   LIBCMTD:undname.obj
 0001:0004c7f0       ?getPtrRefDataType@UnDecorator@@CA?AVDName@@ABV2@H@Z 0044d7f0 f i LIBCMTD:undname.obj
 0001:0004c930       ?getArrayType@UnDecorator@@CA?AVDName@@ABV2@@Z 0044d930 f i LIBCMTD:undname.obj
 0001:0004cb60       ?getLexicalFrame@UnDecorator@@CA?AVDName@@XZ 0044db60 f i LIBCMTD:undname.obj
 0001:0004cba0       ?getThisType@UnDecorator@@CA?AVDName@@XZ 0044dba0 f i LIBCMTD:undname.obj
 0001:0004cbe0       ?getPointerType@UnDecorator@@CA?AVDName@@ABV2@0@Z 0044dbe0 f i LIBCMTD:undname.obj
 0001:0004cc00       ?getPointerTypeArray@UnDecorator@@CA?AVDName@@ABV2@0@Z 0044dc00 f i LIBCMTD:undname.obj
 0001:0004cc20       ?getReferenceType@UnDecorator@@CA?AVDName@@ABV2@0@Z 0044dc20 f i LIBCMTD:undname.obj
 0001:0004cc40       ?getDisplacement@UnDecorator@@CA?AVDName@@XZ 0044dc40 f i LIBCMTD:undname.obj
 0001:0004cc60       ?getCallIndex@UnDecorator@@CA?AVDName@@XZ 0044dc60 f i LIBCMTD:undname.obj
 0001:0004cc80       ?getGuardNumber@UnDecorator@@CA?AVDName@@XZ 0044dc80 f i LIBCMTD:undname.obj
 0001:0004cca0       ?getVbTableType@UnDecorator@@CA?AVDName@@ABV2@@Z 0044dca0 f i LIBCMTD:undname.obj
 0001:0004ccc0       ?getVCallThunkType@UnDecorator@@CA?AVDName@@XZ 0044dcc0 f i LIBCMTD:undname.obj
 0001:0004cd20       ?getVfTableType@UnDecorator@@CA?AVDName@@ABV2@@Z 0044dd20 f i LIBCMTD:undname.obj
 0001:0004cee0       ?getStorageConvention@UnDecorator@@CA?AVDName@@XZ 0044dee0 f i LIBCMTD:undname.obj
 0001:0004cf00       ?getDataIndirectType@UnDecorator@@CA?AVDName@@XZ 0044df00 f i LIBCMTD:undname.obj
 0001:0004cf40       ?getVdispMapType@UnDecorator@@CA?AVDName@@ABV2@@Z 0044df40 f i LIBCMTD:undname.obj
 0001:0004cfb0       ?getExternalDataType@UnDecorator@@CA?AVDName@@ABV2@@Z 0044dfb0 f i LIBCMTD:undname.obj
 0001:0004d040       ?doMSKeywords@UnDecorator@@SAHXZ 0044e040 f i LIBCMTD:undname.obj
 0001:0004d060       ?doPtr64@UnDecorator@@SAHXZ 0044e060 f i LIBCMTD:undname.obj
 0001:0004d080       ?doFunctionReturns@UnDecorator@@SAHXZ 0044e080 f i LIBCMTD:undname.obj
 0001:0004d0a0       ?doAllocationModel@UnDecorator@@SAHXZ 0044e0a0 f i LIBCMTD:undname.obj
 0001:0004d0c0       ?doAllocationLanguage@UnDecorator@@SAHXZ 0044e0c0 f i LIBCMTD:undname.obj
 0001:0004d0e0       ?doThisTypes@UnDecorator@@SAHXZ 0044e0e0 f i LIBCMTD:undname.obj
 0001:0004d100       ?doAccessSpecifiers@UnDecorator@@SAHXZ 0044e100 f i LIBCMTD:undname.obj
 0001:0004d120       ?doThrowTypes@UnDecorator@@SAHXZ 0044e120 f i LIBCMTD:undname.obj
 0001:0004d140       ?doMemberTypes@UnDecorator@@SAHXZ 0044e140 f i LIBCMTD:undname.obj
 0001:0004d160       ?doNameOnly@UnDecorator@@SAHXZ 0044e160 f i LIBCMTD:undname.obj
 0001:0004d180       ?doTypeOnly@UnDecorator@@SAHXZ 0044e180 f i LIBCMTD:undname.obj
 0001:0004d1a0       ?haveTemplateParameters@UnDecorator@@SAHXZ 0044e1a0 f i LIBCMTD:undname.obj
 0001:0004d1c0       ?doEcsu@UnDecorator@@SAHXZ 0044e1c0 f i LIBCMTD:undname.obj
 0001:0004d1e0       ?doEllipsis@UnDecorator@@SAHXZ 0044e1e0 f i LIBCMTD:undname.obj
 0001:0004d200       ?UScore@UnDecorator@@SAPBDW4Tokens@@@Z 0044e200 f   LIBCMTD:undname.obj
 0001:0004d230       ?doUnderScore@UnDecorator@@SAHXZ 0044e230 f i LIBCMTD:undname.obj
 0001:0004d250       ??2@YAPAXIAAVHeapManager@@H@Z 0044e250 f i LIBCMTD:undname.obj
 0001:0004d270       ?getMemory@HeapManager@@QAEPAXIH@Z 0044e270 f   LIBCMTD:undname.obj
 0001:0004d380       ??0Block@HeapManager@@QAE@XZ 0044e380 f i LIBCMTD:undname.obj
 0001:0004d3a0       ??H@YA?AVDName@@DABV0@@Z   0044e3a0 f i LIBCMTD:undname.obj
 0001:0004d3d0       ??H@YA?AVDName@@W4DNameStatus@@ABV0@@Z 0044e3d0 f i LIBCMTD:undname.obj
 0001:0004d400       ??H@YA?AVDName@@PBDABV0@@Z 0044e400 f i LIBCMTD:undname.obj
 0001:0004d430       ??0DName@@QAE@XZ           0044e430 f i LIBCMTD:undname.obj
 0001:0004d4f0       ??0DName@@QAE@D@Z          0044e4f0 f   LIBCMTD:undname.obj
 0001:0004d5d0       ??0DName@@QAE@ABV0@@Z      0044e5d0 f i LIBCMTD:undname.obj
 0001:0004d600       ??0DName@@QAE@PAV0@@Z      0044e600 f   LIBCMTD:undname.obj
 0001:0004d730       ??0DName@@QAE@PBD@Z        0044e730 f   LIBCMTD:undname.obj
 0001:0004d810       ??0DName@@QAE@AAPBDD@Z     0044e810 f   LIBCMTD:undname.obj
 0001:0004dad0       ?doNoIdentCharCheck@UnDecorator@@SAHXZ 0044ead0 f i LIBCMTD:undname.obj
 0001:0004daf0       ??0DName@@QAE@_K@Z         0044eaf0 f   LIBCMTD:undname.obj
 0001:0004dc30       ??0DName@@QAE@_J@Z         0044ec30 f   LIBCMTD:undname.obj
 0001:0004ddb0       ??0DName@@QAE@W4DNameStatus@@@Z 0044edb0 f   LIBCMTD:undname.obj
 0001:0004ded0       ?isValid@DName@@QBEHXZ     0044eed0 f i LIBCMTD:undname.obj
 0001:0004df00       ?isEmpty@DName@@QBEHXZ     0044ef00 f i LIBCMTD:undname.obj
 0001:0004df20       ?status@DName@@QBE?AW4DNameStatus@@XZ 0044ef20 f i LIBCMTD:undname.obj
 0001:0004df40       ?setPtrRef@DName@@QAEAAV1@XZ 0044ef40 f i LIBCMTD:undname.obj
 0001:0004df70       ?isPtrRef@DName@@QBEHXZ    0044ef70 f i LIBCMTD:undname.obj
 0001:0004df90       ?isUDC@DName@@QBEHXZ       0044ef90 f i LIBCMTD:undname.obj
 0001:0004dfd0       ?setIsUDC@DName@@QAEXXZ    0044efd0 f i LIBCMTD:undname.obj
 0001:0004e000       ?isUDTThunk@DName@@QBEHXZ  0044f000 f i LIBCMTD:undname.obj
 0001:0004e040       ?setIsArray@DName@@QAEXXZ  0044f040 f i LIBCMTD:undname.obj
 0001:0004e060       ?isArray@DName@@QBEHXZ     0044f060 f i LIBCMTD:undname.obj
 0001:0004e080       ?isNoTE@DName@@QBEHXZ      0044f080 f i LIBCMTD:undname.obj
 0001:0004e0a0       ?setIsNoTE@DName@@QAEXXZ   0044f0a0 f i LIBCMTD:undname.obj
 0001:0004e0c0       ?isPinPtr@DName@@QBEHXZ    0044f0c0 f i LIBCMTD:undname.obj
 0001:0004e0e0       ?setIsPinPtr@DName@@QAEXXZ 0044f0e0 f i LIBCMTD:undname.obj
 0001:0004e100       ?isComArray@DName@@QBEHXZ  0044f100 f i LIBCMTD:undname.obj
 0001:0004e120       ?setIsComArray@DName@@QAEXXZ 0044f120 f i LIBCMTD:undname.obj
 0001:0004e140       ?isVCallThunk@DName@@QBEHXZ 0044f140 f i LIBCMTD:undname.obj
 0001:0004e160       ?setIsVCallThunk@DName@@QAEXXZ 0044f160 f i LIBCMTD:undname.obj
 0001:0004e180       ?length@DName@@QBEHXZ      0044f180 f i LIBCMTD:undname.obj
 0001:0004e1b0       ?getLastChar@DName@@QBEDXZ 0044f1b0 f i LIBCMTD:undname.obj
 0001:0004e1e0       ?getString@DName@@QBEPADPADH@Z 0044f1e0 f i LIBCMTD:undname.obj
 0001:0004e270       ?getString@DName@@QBEPADPAD0@Z 0044f270 f i LIBCMTD:undname.obj
 0001:0004e2b0       ??HDName@@QBE?AV0@D@Z      0044f2b0 f   LIBCMTD:undname.obj
 0001:0004e2f0       ??HDName@@QBE?AV0@PBD@Z    0044f2f0 f   LIBCMTD:undname.obj
 0001:0004e330       ??HDName@@QBE?AV0@ABV0@@Z  0044f330 f   LIBCMTD:undname.obj
 0001:0004e370       ??HDName@@QBE?AV0@PAV0@@Z  0044f370 f   LIBCMTD:undname.obj
 0001:0004e3b0       ??HDName@@QBE?AV0@W4DNameStatus@@@Z 0044f3b0 f   LIBCMTD:undname.obj
 0001:0004e3f0       ?append@DName@@AAEXPAVDNameNode@@@Z 0044f3f0 f   LIBCMTD:undname.obj
 0001:0004e480       ??YDName@@QAEAAV0@D@Z      0044f480 f   LIBCMTD:undname.obj
 0001:0004e510       ??YDName@@QAEAAV0@PBD@Z    0044f510 f   LIBCMTD:undname.obj
 0001:0004e5b0       ??YDName@@QAEAAV0@ABV0@@Z  0044f5b0 f   LIBCMTD:undname.obj
 0001:0004e620       ??YDName@@QAEAAV0@PAV0@@Z  0044f620 f   LIBCMTD:undname.obj
 0001:0004e6e0       ??YDName@@QAEAAV0@W4DNameStatus@@@Z 0044f6e0 f   LIBCMTD:undname.obj
 0001:0004e750       ??_5DName@@QAEAAV0@ABV0@@Z 0044f750 f   LIBCMTD:undname.obj
 0001:0004e7b0       ??4DName@@QAEAAV0@D@Z      0044f7b0 f i LIBCMTD:undname.obj
 0001:0004e890       ??4DName@@QAEAAV0@PBD@Z    0044f890 f   LIBCMTD:undname.obj
 0001:0004e970       ??4DName@@QAEAAV0@ABV0@@Z  0044f970 f   LIBCMTD:undname.obj
 0001:0004e9a0       ??4DName@@QAEAAV0@PAV0@@Z  0044f9a0 f   LIBCMTD:undname.obj
 0001:0004eae0       ??4DName@@QAEAAV0@W4DNameStatus@@@Z 0044fae0 f   LIBCMTD:undname.obj
 0001:0004ebe0       ?doPchar@DName@@AAEXPBDH@Z 0044fbe0 f   LIBCMTD:undname.obj
 0001:0004ed20       ?isFull@Replicator@@QBEHXZ 0044fd20 f i LIBCMTD:undname.obj
 0001:0004ed40       ??0Replicator@@QAE@XZ      0044fd40 f i LIBCMTD:undname.obj
 0001:0004ed60       ??YReplicator@@QAEAAV0@ABVDName@@@Z 0044fd60 f   LIBCMTD:undname.obj
 0001:0004edf0       ??AReplicator@@QBE?AVDName@@H@Z 0044fdf0 f   LIBCMTD:undname.obj
 0001:0004ee60       ??0DNameNode@@IAE@XZ       0044fe60 f   LIBCMTD:undname.obj
 0001:0004ee80       ??0charNode@@QAE@D@Z       0044fe80 f   LIBCMTD:undname.obj
 0001:0004eeb0       ?length@charNode@@UBEHXZ   0044feb0 f i LIBCMTD:undname.obj
 0001:0004eed0       ?getLastChar@charNode@@UBEDXZ 0044fed0 f i LIBCMTD:undname.obj
 0001:0004eef0       ?getString@charNode@@UBEPADPAD0@Z 0044fef0 f i LIBCMTD:undname.obj
 0001:0004ef20       ??0pcharNode@@QAE@PBDH@Z   0044ff20 f   LIBCMTD:undname.obj
 0001:0004efb0       ?length@pcharNode@@UBEHXZ  0044ffb0 f i LIBCMTD:undname.obj
 0001:0004efd0       ?getLastChar@pcharNode@@UBEDXZ 0044ffd0 f i LIBCMTD:undname.obj
 0001:0004f010       ?getString@pcharNode@@UBEPADPAD0@Z 00450010 f i LIBCMTD:undname.obj
 0001:0004f040       ?getStringHelper@@YAPADPAD00H@Z 00450040 f i LIBCMTD:undname.obj
 0001:0004f080       ??0pDNameNode@@QAE@PAVDName@@@Z 00450080 f   LIBCMTD:undname.obj
 0001:0004f0e0       ?length@pDNameNode@@UBEHXZ 004500e0 f i LIBCMTD:undname.obj
 0001:0004f120       ?getLastChar@pDNameNode@@UBEDXZ 00450120 f i LIBCMTD:undname.obj
 0001:0004f150       ?getString@pDNameNode@@UBEPADPAD0@Z 00450150 f i LIBCMTD:undname.obj
 0001:0004f190       ??0DNameStatusNode@@AAE@W4DNameStatus@@@Z 00450190 f   LIBCMTD:undname.obj
 0001:0004f1e0       ?length@DNameStatusNode@@UBEHXZ 004501e0 f i LIBCMTD:undname.obj
 0001:0004f200       ?getLastChar@DNameStatusNode@@UBEDXZ 00450200 f i LIBCMTD:undname.obj
 0001:0004f220       ?getString@DNameStatusNode@@UBEPADPAD0@Z 00450220 f i LIBCMTD:undname.obj
 0001:0004f260       ?make@DNameStatusNode@@SAPAV1@W4DNameStatus@@@Z 00450260 f i LIBCMTD:undname.obj
 0001:0004f310       ??0pairNode@@QAE@PAVDNameNode@@0@Z 00450310 f   LIBCMTD:undname.obj
 0001:0004f350       ?length@pairNode@@UBEHXZ   00450350 f i LIBCMTD:undname.obj
 0001:0004f3a0       ?getLastChar@pairNode@@UBEDXZ 004503a0 f i LIBCMTD:undname.obj
 0001:0004f3f0       ?getString@pairNode@@UBEPADPAD0@Z 004503f0 f i LIBCMTD:undname.obj
 0001:0004f530       _fdiv_main_routine         00450530 f   LIBCMTD:_adj_fdiv_.obj
 0001:0004f647       __adj_fdiv_r               00450647 f   LIBCMTD:_adj_fdiv_.obj
 0001:0004fae6       __fdivp_sti_st             00450ae6 f   LIBCMTD:_adj_fdiv_.obj
 0001:0004faf9       __fdivrp_sti_st            00450af9 f   LIBCMTD:_adj_fdiv_.obj
 0001:0004fb0c       __adj_fdiv_m32             00450b0c f   LIBCMTD:_adj_fdiv_.obj
 0001:0004fb58       __adj_fdiv_m64             00450b58 f   LIBCMTD:_adj_fdiv_.obj
 0001:0004fba4       __adj_fdiv_m16i            00450ba4 f   LIBCMTD:_adj_fdiv_.obj
 0001:0004fbd8       __adj_fdiv_m32i            00450bd8 f   LIBCMTD:_adj_fdiv_.obj
 0001:0004fc0c       __adj_fdivr_m32            00450c0c f   LIBCMTD:_adj_fdiv_.obj
 0001:0004fc58       __adj_fdivr_m64            00450c58 f   LIBCMTD:_adj_fdiv_.obj
 0001:0004fca4       __adj_fdivr_m16i           00450ca4 f   LIBCMTD:_adj_fdiv_.obj
 0001:0004fcd8       __adj_fdivr_m32i           00450cd8 f   LIBCMTD:_adj_fdiv_.obj
 0001:0004fd0c       __safe_fdiv                00450d0c f   LIBCMTD:_adj_fdiv_.obj
 0001:0004fd21       __safe_fdivr               00450d21 f   LIBCMTD:_adj_fdiv_.obj
 0001:0004fd36       __fprem_common             00450d36 f   LIBCMTD:_adj_fdiv_.obj
 0001:0004ff3c       __adj_fprem                00450f3c f   LIBCMTD:_adj_fdiv_.obj
 0001:0004ffee       __fprem1_common            00450fee f   LIBCMTD:_adj_fdiv_.obj
 0001:000501f4       __adj_fprem1               004511f4 f   LIBCMTD:_adj_fdiv_.obj
 0001:000502a9       __safe_fprem               004512a9 f   LIBCMTD:_adj_fdiv_.obj
 0001:000502af       __safe_fprem1              004512af f   LIBCMTD:_adj_fdiv_.obj
 0001:000502b5       __adj_fpatan               004512b5 f   LIBCMTD:_adj_fdiv_.obj
 0001:000502b8       __adj_fptan                004512b8 f   LIBCMTD:_adj_fdiv_.obj
 0001:000502c0       __87except                 004512c0 f   LIBCMTD:_87except_.obj
 0001:00050470       __frnd                     00451470 f   LIBCMTD:_frnd_.obj
 0001:00050490       __copysign                 00451490 f   LIBCMTD:_ieeemisc_.obj
 0001:000504d0       __chgsign                  004514d0 f   LIBCMTD:_ieeemisc_.obj
 0001:00050510       __scalb                    00451510 f   LIBCMTD:_ieeemisc_.obj
 0001:00050530       __logb                     00451530 f   LIBCMTD:_ieeemisc_.obj
 0001:00050660       __nextafter                00451660 f   LIBCMTD:_ieeemisc_.obj
 0001:00050980       __finite                   00451980 f   LIBCMTD:_ieeemisc_.obj
 0001:000509a0       __isnan                    004519a0 f   LIBCMTD:_ieeemisc_.obj
 0001:000509f0       __fpclass                  004519f0 f   LIBCMTD:_ieeemisc_.obj
 0001:00050ac0       __controlfp_s              00451ac0 f   LIBCMTD:_contrlfp_.obj
 0001:00050ba0       __atodbl_l                 00451ba0 f   LIBCMTD:atodbl.obj
 0001:00050cb0       __atodbl                   00451cb0 f   LIBCMTD:atodbl.obj
 0001:00050cd0       __atoldbl_l                00451cd0 f   LIBCMTD:atodbl.obj
 0001:00050de0       __atoldbl                  00451de0 f   LIBCMTD:atodbl.obj
 0001:00050e00       __atoflt_l                 00451e00 f   LIBCMTD:atodbl.obj
 0001:00050f10       __atoflt                   00451f10 f   LIBCMTD:atodbl.obj
 0001:00050f30       __fptostr                  00451f30 f   LIBCMTD:_fptostr.obj
 0001:000511e0       __fltout2                  004521e0 f   LIBCMTD:_cfout_.obj
 0001:00051290       ___dtold                   00452290 f   LIBCMTD:_cfout_.obj
 0001:000513f0       __set_output_format        004523f0 f   LIBCMTD:outputformat.obj
 0001:00051470       __get_output_format        00452470 f   LIBCMTD:outputformat.obj
 0001:00051480       __allrem                   00452480 f   LIBCMTD:llrem.obj
 0001:00051540       __aullshr                  00452540 f   LIBCMTD:ullshr.obj
 0001:00051560       __fptrap                   00452560 f   LIBCMTD:crt0fp.obj
 0001:00051580       __matherr                  00452580 f   LIBCMTD:_matherr_.obj
 0001:00051590       ___ansicp                  00452590 f   LIBCMTD:convrtcp.obj
 0001:000515f0       ___convertcp               004525f0 f   LIBCMTD:convrtcp.obj
 0001:00051840       __iswctype_l               00452840 f   LIBCMTD:iswctype.obj
 0001:000518f0       _iswctype                  004528f0 f   LIBCMTD:iswctype.obj
 0001:00051980       _is_wctype                 00452980 f   LIBCMTD:iswctype.obj
 0001:000519a0       ___crtGetStringTypeA       004529a0 f   LIBCMTD:a_str.obj
 0001:00051c30       ___pwctype_func            00452c30 f   LIBCMTD:ctype.obj
 0001:00051c40       ___pctype_func             00452c40 f   LIBCMTD:ctype.obj
 0001:00051c90       ___init_time               00452c90 f   LIBCMTD:inittime.obj
 0001:000523b0       ___free_lc_time            004533b0 f   LIBCMTD:inittime.obj
 0001:000526c0       ___init_numeric            004536c0 f   LIBCMTD:initnum.obj
 0001:00052a20       ___free_lconv_num          00453a20 f   LIBCMTD:initnum.obj
 0001:00052a90       ___init_monetary           00453a90 f   LIBCMTD:initmon.obj
 0001:00052f90       ___free_lconv_mon          00453f90 f   LIBCMTD:initmon.obj
 0001:00053080       ___init_ctype              00454080 f   LIBCMTD:initctyp.obj
 0001:00053630       ____mb_cur_max_func        00454630 f   LIBCMTD:initctyp.obj
 0001:00053680       ____mb_cur_max_l_func      00454680 f   LIBCMTD:initctyp.obj
 0001:000536b0       ____lc_codepage_func       004546b0 f   LIBCMTD:initctyp.obj
 0001:00053700       ____lc_collate_cp_func     00454700 f   LIBCMTD:initctyp.obj
 0001:00053750       ____lc_handle_func         00454750 f   LIBCMTD:initctyp.obj
 0001:000537a0       ___init_collate            004547a0 f   LIBCMTD:initcoll.obj
 0001:000537b0       __Getdays_l                004547b0 f   LIBCMTD:strftime.obj
 0001:00053970       __Getdays                  00454970 f   LIBCMTD:strftime.obj
 0001:00053990       __Getmonths_l              00454990 f   LIBCMTD:strftime.obj
 0001:00053b50       __Getmonths                00454b50 f   LIBCMTD:strftime.obj
 0001:00053b70       __Gettnames_l              00454b70 f   LIBCMTD:strftime.obj
 0001:000540e0       __Gettnames                004550e0 f   LIBCMTD:strftime.obj
 0001:00054100       __strftime_l               00455100 f   LIBCMTD:strftime.obj
 0001:00054130       _strftime                  00455130 f   LIBCMTD:strftime.obj
 0001:00054160       __Strftime                 00455160 f   LIBCMTD:strftime.obj
 0001:00054190       __Strftime_l               00455190 f   LIBCMTD:strftime.obj
 0001:00055fa0       _localeconv                00456fa0 f   LIBCMTD:lconv.obj
 0001:00055ff0       _strncpy_s                 00456ff0 f   LIBCMTD:strncpy_s.obj
 0001:000563e0       _strcspn                   004573e0 f   LIBCMTD:strcspn.obj
 0001:00056430       _strpbrk                   00457430 f   LIBCMTD:strpbrk.obj
 0001:00056470       _strcat_s                  00457470 f   LIBCMTD:strcat_s.obj
 0001:00056850       ___get_qualified_locale    00457850 f   LIBCMTD:getqloc.obj
 0001:000576f0       __open                     004586f0 f   LIBCMTD:open.obj
 0001:00057870       __sopen_helper             00458870 f   LIBCMTD:open.obj
 0001:00058ad0       __sopen                    00459ad0 f   LIBCMTD:open.obj
 0001:00058b50       __sopen_s                  00459b50 f   LIBCMTD:open.obj
 0001:00058b80       __mbsnbicmp_l              00459b80 f   LIBCMTD:mbsnbicm.obj
 0001:00059020       __mbsnbicmp                0045a020 f   LIBCMTD:mbsnbicm.obj
 0001:00059040       __mbsnbcmp_l               0045a040 f   LIBCMTD:mbsnbcmp.obj
 0001:00059320       __mbsnbcmp                 0045a320 f   LIBCMTD:mbsnbcmp.obj
 0001:00059340       __global_unwind2           0045a340 f   LIBCMTD:exsup.obj
 0001:000593a5       __local_unwind2            0045a3a5 f   LIBCMTD:exsup.obj
 0001:00059429       __abnormal_termination     0045a429 f   LIBCMTD:exsup.obj
 0001:0005944c       __NLG_Notify1              0045a44c f   LIBCMTD:exsup.obj
 0001:00059455       __NLG_Notify               0045a455 f   LIBCMTD:exsup.obj
 0001:0005946c       __NLG_Dispatch2            0045a46c     LIBCMTD:exsup.obj
 0001:0005946c       __NLG_Dispatch             0045a46c     LIBCMTD:exsup.obj
 0001:00059474       __NLG_Call                 0045a474 f   LIBCMTD:exsup.obj
 0001:00059476       __NLG_Return2              0045a476     LIBCMTD:exsup.obj
 0001:00059480       ?_ValidateRead@@YAHPBXI@Z  0045a480 f   LIBCMTD:validate.obj
 0001:000594b0       ?_ValidateWrite@@YAHPAXI@Z 0045a4b0 f   LIBCMTD:validate.obj
 0001:000594e0       ?_ValidateExecute@@YAHP6GHXZ@Z 0045a4e0 f   LIBCMTD:validate.obj
 0001:00059510       __itoa_s                   0045a510 f   LIBCMTD:xtoas.obj
 0001:000598e0       __ltoa_s                   0045a8e0 f   LIBCMTD:xtoas.obj
 0001:00059920       __ultoa_s                  0045a920 f   LIBCMTD:xtoas.obj
 0001:00059940       __i64toa_s                 0045a940 f   LIBCMTD:xtoas.obj
 0001:00059d40       __ui64toa_s                0045ad40 f   LIBCMTD:xtoas.obj
 0001:00059d60       __wcstombs_l_helper        0045ad60 f   LIBCMTD:wcstombs.obj
 0001:0005a250       __wcstombs_l               0045b250 f   LIBCMTD:wcstombs.obj
 0001:0005a270       _wcstombs                  0045b270 f   LIBCMTD:wcstombs.obj
 0001:0005a290       __wcstombs_s_l             0045b290 f   LIBCMTD:wcstombs.obj
 0001:0005a5c0       _wcstombs_s                0045b5c0 f   LIBCMTD:wcstombs.obj
 0001:0005a5f0       _wcscat_s                  0045b5f0 f   LIBCMTD:wcscat_s.obj
 0001:0005a9e0       __vswprintf_helper         0045b9e0 f   LIBCMTD:vswprnc.obj
 0001:0005ac10       __vswprintf_c              0045bc10 f   LIBCMTD:vswprnc.obj
 0001:0005ac60       __vswprintf_c_l            0045bc60 f   LIBCMTD:vswprnc.obj
 0001:0005acb0       __vswprintf_s_l            0045bcb0 f   LIBCMTD:vswprnc.obj
 0001:0005af20       _vswprintf_s               0045bf20 f   LIBCMTD:vswprnc.obj
 0001:0005af50       __vsnwprintf_s_l           0045bf50 f   LIBCMTD:vswprnc.obj
 0001:0005b300       __vsnwprintf_s             0045c300 f   LIBCMTD:vswprnc.obj
 0001:0005b330       __vswprintf_p              0045c330 f   LIBCMTD:vswprnc.obj
 0001:0005b380       __vswprintf_p_l            0045c380 f   LIBCMTD:vswprnc.obj
 0001:0005b3d0       __itow_s                   0045c3d0 f   LIBCMTD:xtows.obj
 0001:0005b7b0       __ltow_s                   0045c7b0 f   LIBCMTD:xtows.obj
 0001:0005b7f0       __ultow_s                  0045c7f0 f   LIBCMTD:xtows.obj
 0001:0005b810       __i64tow_s                 0045c810 f   LIBCMTD:xtows.obj
 0001:0005bc30       __ui64tow_s                0045cc30 f   LIBCMTD:xtows.obj
 0001:0005bc50       __woutput_l                0045cc50 f   LIBCMTD:woutput.obj
 0001:0005ce20       __vswprintf_l              0045de20 f   LIBCMTD:vswprint.obj
 0001:0005cff0       __vswprintf                0045dff0 f   LIBCMTD:vswprint.obj
 0001:0005d010       ___vswprintf_l             0045e010 f   LIBCMTD:vswprint.obj
 0001:0005d030       __vscwprintf_helper        0045e030 f   LIBCMTD:vswprint.obj
 0001:0005d0f0       __vscwprintf               0045e0f0 f   LIBCMTD:vswprint.obj
 0001:0005d110       __vscwprintf_l             0045e110 f   LIBCMTD:vswprint.obj
 0001:0005d130       __vscwprintf_p             0045e130 f   LIBCMTD:vswprint.obj
 0001:0005d150       __vscwprintf_p_l           0045e150 f   LIBCMTD:vswprint.obj
 0001:0005d170       __set_error_mode           0045e170 f   LIBCMTD:errmode.obj
 0001:0005d230       ___set_app_type            0045e230 f   LIBCMTD:errmode.obj
 0001:0005d240       ___get_app_type            0045e240 f   LIBCMTD:errmode.obj
 0001:0005d250       ___crtMessageBoxA          0045e250 f   LIBCMTD:crtmbox.obj
 0001:0005d470       ___crtGetLocaleInfoW       0045e470 f   LIBCMTD:w_loc.obj
 0001:0005d4e0       ___crtGetLocaleInfoA       0045e4e0 f   LIBCMTD:a_loc.obj
 0001:0005d6c0       __mbsnbcpy_s_l             0045e6c0 f   LIBCMTD:mbsnbcpy_s_l.obj
 0001:0005dd40       __putwch                   0045ed40 f   LIBCMTD:putwch.obj
 0001:0005ddd0       __putwch_nolock            0045edd0 f   LIBCMTD:putwch.obj
 0001:0005ded0       __cputws                   0045eed0 f   LIBCMTD:putwch.obj
 0001:0005e020       _DebuggerKnownHandle       0045f020 f   LIBCMTD:_error_.obj
 0001:0005e0e0       ?_RTC_Failure@@YAXPAXH@Z   0045f0e0 f   LIBCMTD:_error_.obj
 0001:0005e3f0       ?_RTC_StackFailure@@YAXPAXPBD@Z 0045f3f0 f   LIBCMTD:_error_.obj
 0001:0005e4f0       ?_RTC_AllocaFailure@@YAXPAXPAU_RTC_ALLOCA_NODE@@H@Z 0045f4f0 f   LIBCMTD:_error_.obj
 0001:0005e6a0       __RTC_UninitUse            0045f6a0 f   LIBCMTD:_error_.obj
 0001:0005e790       __purecall                 0045f790 f   LIBCMTD:purevirt.obj
 0001:0005e7d0       __set_purecall_handler     0045f7d0 f   LIBCMTD:purevirt.obj
 0001:0005e810       __get_purecall_handler     0045f810 f   LIBCMTD:purevirt.obj
 0001:0005e830       _ldexp                     0045f830 f   LIBCMTD:_ldexp_.obj
 0001:0005eaf0       __statusfp2                0045faf0 f   LIBCMTD:_ieee87_.obj
 0001:0005eb30       __statusfp                 0045fb30 f   LIBCMTD:_ieee87_.obj
 0001:0005eb80       __clearfp                  0045fb80 f   LIBCMTD:_ieee87_.obj
 0001:0005ebd0       ___control87_2             0045fbd0 f   LIBCMTD:_ieee87_.obj
 0001:0005ec80       __controlfp                0045fc80 f   LIBCMTD:_ieee87_.obj
 0001:0005eca0       __control87                0045fca0 f i LIBCMTD:_ieee87_.obj
 0001:0005ed50       __set_controlfp            0045fd50 f   LIBCMTD:_ieee87_.obj
 0001:0005ede0       __fpreset                  0045fde0 f   LIBCMTD:_ieee87_.obj
 0001:0005f5a0       __ld12tod                  004605a0 f   LIBCMTD:_intrncvt_.obj
 0001:0005f5c0       __ld12cvt                  004605c0 f i LIBCMTD:_intrncvt_.obj
 0001:0005f810       __RoundMan                 00460810 f i LIBCMTD:_intrncvt_.obj
 0001:0005f8f0       __ZeroTail                 004608f0 f i LIBCMTD:_intrncvt_.obj
 0001:0005f980       __IncMan                   00460980 f i LIBCMTD:_intrncvt_.obj
 0001:0005fa30       ___addl                    00460a30 f i LIBCMTD:_intrncvt_.obj
 0001:0005fa70       __CopyMan                  00460a70 f i LIBCMTD:_intrncvt_.obj
 0001:0005fac0       __FillZeroMan              00460ac0 f i LIBCMTD:_intrncvt_.obj
 0001:0005fb00       __IsZeroMan                00460b00 f i LIBCMTD:_intrncvt_.obj
 0001:0005fb40       __ShrMan                   00460b40 f i LIBCMTD:_intrncvt_.obj
 0001:0005fc30       __ld12tof                  00460c30 f   LIBCMTD:_intrncvt_.obj
 0001:0005fc50       __ld12told                 00460c50 f   LIBCMTD:_intrncvt_.obj
 0001:0005fd00       ___strgtold12_l            00460d00 f   LIBCMTD:_strgtold_.obj
 0001:000607b0       ___multtenpow12            004617b0 f i LIBCMTD:_strgtold_.obj
 0001:00060890       ___ld12mul                 00461890 f i LIBCMTD:_strgtold_.obj
 0001:00060c90       ___shl_12                  00461c90 f i LIBCMTD:_strgtold_.obj
 0001:00060d00       ___shr_12                  00461d00 f i LIBCMTD:_strgtold_.obj
 0001:00060d70       ___STRINGTOLD_L            00461d70 f   LIBCMTD:_strgtold_.obj
 0001:00060de0       _$I10_OUTPUT               00461de0 f   LIBCMTD:_x10fout_.obj
 0001:00061390       ___add_12                  00462390 f i LIBCMTD:_x10fout_.obj
 0001:00061440       ___crtGetStringTypeW       00462440 f   LIBCMTD:w_str.obj
 0001:000614c0       __get_daylight             004624c0 f   LIBCMTD:timeset.obj
 0001:00061540       __get_dstbias              00462540 f   LIBCMTD:timeset.obj
 0001:000615c0       __get_timezone             004625c0 f   LIBCMTD:timeset.obj
 0001:00061640       __get_tzname               00462640 f   LIBCMTD:timeset.obj
 0001:00061810       ___daylight                00462810 f   LIBCMTD:timeset.obj
 0001:00061820       ___dstbias                 00462820 f   LIBCMTD:timeset.obj
 0001:00061830       ___timezone                00462830 f   LIBCMTD:timeset.obj
 0001:00061840       ___tzname                  00462840 f   LIBCMTD:timeset.obj
 0001:00061850       ___tzset                   00462850 f   LIBCMTD:tzset.obj
 0001:000618f0       __tzset                    004628f0 f   LIBCMTD:tzset.obj
 0001:00061ea0       __set_daylight             00462ea0 f i LIBCMTD:tzset.obj
 0001:00061ec0       __set_dstbias              00462ec0 f i LIBCMTD:tzset.obj
 0001:00061ee0       __set_timezone             00462ee0 f i LIBCMTD:tzset.obj
 0001:00061f00       __isindst                  00462f00 f   LIBCMTD:tzset.obj
 0001:000625b0       __stricmp_l                004635b0 f   LIBCMTD:stricmp.obj
 0001:00062760       ___ascii_stricmp           00463760 f   LIBCMTD:stricmp.obj
 0001:000627e0       __stricmp                  004637e0 f   LIBCMTD:stricmp.obj
 0001:000628f0       __strnicmp_l               004638f0 f   LIBCMTD:strnicmp.obj
 0001:00062b30       __strnicmp                 00463b30 f   LIBCMTD:strnicmp.obj
 0001:00062cc0       __chsize_s                 00463cc0 f   LIBCMTD:chsize.obj
 0001:00062f60       __chsize_nolock            00463f60 f   LIBCMTD:chsize.obj
 0001:000631f0       __chsize                   004641f0 f   LIBCMTD:chsize.obj
 0001:00063220       __setmode                  00464220 f   LIBCMTD:setmode.obj
 0001:000634b0       __setmode_nolock           004644b0 f   LIBCMTD:setmode.obj
 0001:00063720       __set_fmode                00464720 f   LIBCMTD:setmode.obj
 0001:000637d0       __get_fmode                004647d0 f   LIBCMTD:setmode.obj
 0001:00063850       __woutput_s_l              00464850 f   LIBCMTD:woutputs.obj
 0001:00064b80       __validate_param_reuseW    00465b80 f   LIBCMTD:woutputp.obj
 0001:00064df0       __woutput_p_l              00465df0 f   LIBCMTD:woutputp.obj
 0001:00068550       _fputwc                    00469550 f   LIBCMTD:fputwc.obj
 0001:00068650       __fputwc_nolock            00469650 f   LIBCMTD:fputwc.obj
 0001:00068940       _putwc                     00469940 f   LIBCMTD:fputwc.obj
 0001:00068960       ___initconin               00469960 f   LIBCMTD:initcon.obj
 0001:00068990       ___initconout              00469990 f   LIBCMTD:initcon.obj
 0001:000689c0       ___termcon                 004699c0 f   LIBCMTD:initcon.obj
 0001:00068a10       ?_RTC_GetSrcLine@@YAHPAEPA_WKPAH1K@Z 00469a10 f   LIBCMTD:_pdblkup_.obj
 0001:00068eb0       __RTC_NumErrors            00469eb0 f   LIBCMTD:_userapi_.obj
 0001:00068ec0       __RTC_GetErrDesc           00469ec0 f   LIBCMTD:_userapi_.obj
 0001:00068ee0       __RTC_SetErrorType         00469ee0 f   LIBCMTD:_userapi_.obj
 0001:00068f10       __RTC_SetErrorFunc         00469f10 f   LIBCMTD:_userapi_.obj
 0001:00068f30       __RTC_SetErrorFuncW        00469f30 f   LIBCMTD:_userapi_.obj
 0001:00068f50       ?_RTC_GetErrorFunc@@YAP6AHHPBDH00ZZPBX@Z 00469f50 f   LIBCMTD:_userapi_.obj
 0001:00068f60       ?_RTC_GetErrorFuncW@@YAP6AHHPB_WH00ZZPBX@Z 00469f60 f   LIBCMTD:_userapi_.obj
 0001:00068f70       ___mtold12                 00469f70 f   LIBCMTD:_mantold_.obj
 0001:000690d0       _getenv                    0046a0d0 f   LIBCMTD:getenv.obj
 0001:00069220       __getenv_helper_nolock     0046a220 f   LIBCMTD:getenv.obj
 0001:00069340       _getenv_s                  0046a340 f   LIBCMTD:getenv.obj
 0001:00069570       __dupenv_s                 0046a570 f   LIBCMTD:getenv.obj
 0001:000695a0       __dupenv_s_dbg             0046a5a0 f   LIBCMTD:getenv.obj
 0001:000697f0       ___ascii_strnicmp          0046a7f0 f   LIBCMTD:_strnicm.obj
 0001:00069860       _wcstol                    0046a860 f   LIBCMTD:wcstol.obj
 0001:00069ce0       __wcstol_l                 0046ace0 f   LIBCMTD:wcstol.obj
 0001:00069d10       _wcstoul                   0046ad10 f   LIBCMTD:wcstol.obj
 0001:00069d60       __wcstoul_l                0046ad60 f   LIBCMTD:wcstol.obj
 0001:00069d90       __flswbuf                  0046ad90 f   LIBCMTD:_flswbuf.obj
 0001:0006a070       _strnlen                   0046b070 f   LIBCMTD:strlen_s.obj
 0001:0006a0b0       __mbsnbicoll_l             0046b0b0 f   LIBCMTD:mbsnbico.obj
 0001:0006a2f0       __mbsnbicoll               0046b2f0 f   LIBCMTD:mbsnbico.obj
 0001:0006a310       ___wtomb_environ           0046b310 f   LIBCMTD:wtombenv.obj
 0001:0006a400       __wchartodigit             0046b400 f   LIBCMTD:wchtodig.obj
 0001:0006a730       ___crtCompareStringA       0046b730 f   LIBCMTD:a_cmp.obj
 0001:0006acf0       __strnicoll_l              0046bcf0 f   LIBCMTD:strnicol.obj
 0001:0006af40       __strnicoll                0046bf40 f   LIBCMTD:strnicol.obj
 0001:0006af80       ___crtsetenv               0046bf80 f   LIBCMTD:setenv.obj
 0001:0006b600       __mbschr_l                 0046c600 f   LIBCMTD:mbschr.obj
 0001:0006b790       __mbschr                   0046c790 f   LIBCMTD:mbschr.obj
 0001:0006b7aa       _InternetReadFile@16       0046c7aa f   wininet:WININET.dll
 0001:0006b7b0       _HttpSendRequestA@20       0046c7b0 f   wininet:WININET.dll
 0001:0006b7b6       _HttpOpenRequestA@32       0046c7b6 f   wininet:WININET.dll
 0001:0006b7bc       _InternetConnectA@32       0046c7bc f   wininet:WININET.dll
 0001:0006b7c2       _InternetOpenA@20          0046c7c2 f   wininet:WININET.dll
 0001:0006b7c8       _InternetCloseHandle@4     0046c7c8 f   wininet:WININET.dll
 0001:0006b7ce       _InterlockedIncrement@4    0046c7ce f   kernel32:KERNEL32.dll
 0001:0006b7d4       _InterlockedDecrement@4    0046c7d4 f   kernel32:KERNEL32.dll
 0001:0006b7da       _InterlockedExchange@8     0046c7da f   kernel32:KERNEL32.dll
 0001:0006b7e0       _InitializeCriticalSection@4 0046c7e0 f   kernel32:KERNEL32.dll
 0001:0006b7e6       _RaiseException@16         0046c7e6 f   kernel32:KERNEL32.dll
 0001:0006b7ec       _SetStdHandle@8            0046c7ec f   kernel32:KERNEL32.dll
 0001:0006b7f2       _GetFileType@4             0046c7f2 f   kernel32:KERNEL32.dll
 0001:0006b7f8       _RtlUnwind@16              0046c7f8 f   kernel32:KERNEL32.dll
 0001:0006b7fe       _UnhandledExceptionFilter@4 0046c7fe f   kernel32:KERNEL32.dll
 0001:0006b804       _SetUnhandledExceptionFilter@4 0046c804 f   kernel32:KERNEL32.dll
 0001:0006b80a       _IsDebuggerPresent@0       0046c80a f   kernel32:KERNEL32.dll
 0001:0006b810       _GetModuleFileNameW@12     0046c810 f   kernel32:KERNEL32.dll
 0001:0006b816       _GetModuleHandleW@4        0046c816 f   kernel32:KERNEL32.dll
 0001:0006b81c       _GetCommandLineA@0         0046c81c f   kernel32:KERNEL32.dll
 0001:0006b822       _GetStartupInfoA@4         0046c822 f   kernel32:KERNEL32.dll
 0001:0006b828       _HeapValidate@12           0046c828 f   kernel32:KERNEL32.dll
 0001:0006b82e       _IsBadReadPtr@8            0046c82e f   kernel32:KERNEL32.dll
 0001:0006b834       _TlsGetValue@4             0046c834 f   kernel32:KERNEL32.dll
 0001:0006b83a       _TlsAlloc@0                0046c83a f   kernel32:KERNEL32.dll
 0001:0006b840       _TlsSetValue@8             0046c840 f   kernel32:KERNEL32.dll
 0001:0006b846       _GetCurrentThreadId@0      0046c846 f   kernel32:KERNEL32.dll
 0001:0006b84c       _TlsFree@4                 0046c84c f   kernel32:KERNEL32.dll
 0001:0006b852       _SetLastError@4            0046c852 f   kernel32:KERNEL32.dll
 0001:0006b858       _GetCurrentThread@0        0046c858 f   kernel32:KERNEL32.dll
 0001:0006b85e       _FatalAppExitA@8           0046c85e f   kernel32:KERNEL32.dll
 0001:0006b864       _SetHandleCount@4          0046c864 f   kernel32:KERNEL32.dll
 0001:0006b86a       _LCMapStringA@24           0046c86a f   kernel32:KERNEL32.dll
 0001:0006b870       _LCMapStringW@24           0046c870 f   kernel32:KERNEL32.dll
 0001:0006b876       _GetACP@0                  0046c876 f   kernel32:KERNEL32.dll
 0001:0006b87c       _GetOEMCP@0                0046c87c f   kernel32:KERNEL32.dll
 0001:0006b882       _GetCPInfo@8               0046c882 f   kernel32:KERNEL32.dll
 0001:0006b888       _IsValidCodePage@4         0046c888 f   kernel32:KERNEL32.dll
 0001:0006b88e       _DebugBreak@0              0046c88e f   kernel32:KERNEL32.dll
 0001:0006b894       _OutputDebugStringA@4      0046c894 f   kernel32:KERNEL32.dll
 0001:0006b89a       _WriteConsoleW@20          0046c89a f   kernel32:KERNEL32.dll
 0001:0006b8a0       _OutputDebugStringW@4      0046c8a0 f   kernel32:KERNEL32.dll
 0001:0006b8a6       _LoadLibraryW@4            0046c8a6 f   kernel32:KERNEL32.dll
 0001:0006b8ac       _FreeLibrary@4             0046c8ac f   kernel32:KERNEL32.dll
 0001:0006b8b2       _GetSystemTimeAsFileTime@4 0046c8b2 f   kernel32:KERNEL32.dll
 0001:0006b8b8       _FreeEnvironmentStringsA@4 0046c8b8 f   kernel32:KERNEL32.dll
 0001:0006b8be       _GetEnvironmentStrings@0   0046c8be f   kernel32:KERNEL32.dll
 0001:0006b8c4       _FreeEnvironmentStringsW@4 0046c8c4 f   kernel32:KERNEL32.dll
 0001:0006b8ca       _GetEnvironmentStringsW@0  0046c8ca f   kernel32:KERNEL32.dll
 0001:0006b8d0       _HeapDestroy@4             0046c8d0 f   kernel32:KERNEL32.dll
 0001:0006b8d6       _HeapCreate@12             0046c8d6 f   kernel32:KERNEL32.dll
 0001:0006b8dc       _HeapFree@12               0046c8dc f   kernel32:KERNEL32.dll
 0001:0006b8e2       _VirtualFree@12            0046c8e2 f   kernel32:KERNEL32.dll
 0001:0006b8e8       _HeapAlloc@12              0046c8e8 f   kernel32:KERNEL32.dll
 0001:0006b8ee       _HeapSize@12               0046c8ee f   kernel32:KERNEL32.dll
 0001:0006b8f4       _HeapReAlloc@16            0046c8f4 f   kernel32:KERNEL32.dll
 0001:0006b8fa       _VirtualAlloc@16           0046c8fa f   kernel32:KERNEL32.dll
 0001:0006b900       _FlushFileBuffers@4        0046c900 f   kernel32:KERNEL32.dll
 0001:0006b906       _GetConsoleCP@0            0046c906 f   kernel32:KERNEL32.dll
 0001:0006b90c       _GetConsoleMode@8          0046c90c f   kernel32:KERNEL32.dll
 0001:0006b912       _GetStringTypeA@20         0046c912 f   kernel32:KERNEL32.dll
 0001:0006b918       _GetStringTypeW@16         0046c918 f   kernel32:KERNEL32.dll
 0001:0006b91e       _IsValidLocale@8           0046c91e f   kernel32:KERNEL32.dll
 0001:0006b924       _EnumSystemLocalesA@8      0046c924 f   kernel32:KERNEL32.dll
 0001:0006b92a       _GetUserDefaultLCID@0      0046c92a f   kernel32:KERNEL32.dll
 0001:0006b930       _GetLocaleInfoW@16         0046c930 f   kernel32:KERNEL32.dll
 0001:0006b936       _WriteConsoleA@20          0046c936 f   kernel32:KERNEL32.dll
 0001:0006b93c       _GetConsoleOutputCP@0      0046c93c f   kernel32:KERNEL32.dll
 0001:0006b942       _lstrlenA@4                0046c942 f   kernel32:KERNEL32.dll
 0001:0006b948       _GetTimeZoneInformation@4  0046c948 f   kernel32:KERNEL32.dll
 0001:0006b94e       _SetEndOfFile@4            0046c94e f   kernel32:KERNEL32.dll
 0001:0006b954       _GetProcessHeap@0          0046c954 f   kernel32:KERNEL32.dll
 0001:0006b95a       _VirtualQuery@12           0046c95a f   kernel32:KERNEL32.dll
 0001:0006b960       _CompareStringA@24         0046c960 f   kernel32:KERNEL32.dll
 0001:0006b966       _CompareStringW@24         0046c966 f   kernel32:KERNEL32.dll
 0001:0006b96c       _SetEnvironmentVariableA@8 0046c96c f   kernel32:KERNEL32.dll
 0001:0006b980       __getch                    0046c980 f   LIBCMTD:getch.obj
 0001:0006b980       _getch                     0046c980 f   LIBCMTD:getch.obj
 0001:0006ba00       __getche                   0046ca00 f   LIBCMTD:getch.obj
 0001:0006ba80       __getch_nolock             0046ca80 f   LIBCMTD:getch.obj
 0001:0006bb90       __getche_nolock            0046cb90 f   LIBCMTD:getch.obj
 0001:0006bbf0       __kbhit                    0046cbf0 f   LIBCMTD:getch.obj
 0001:0006bc70       __kbhit_nolock             0046cc70 f   LIBCMTD:getch.obj
 0001:0006bdd0       __ungetch                  0046cdd0 f   LIBCMTD:getch.obj
 0001:0006be50       __ungetch_nolock           0046ce50 f   LIBCMTD:getch.obj
 0001:0006be80       __getextendedkeycode       0046ce80 f   LIBCMTD:getch.obj
 0001:0006bfd0       __strdup                   0046cfd0 f   LIBCMTD:strdup.obj
 0001:0006bfd0       _strdup                    0046cfd0 f   LIBCMTD:strdup.obj
 0001:0006bff0       __strdup_dbg               0046cff0 f   LIBCMTD:strdup.obj
 0001:0006c080       __putch                    0046d080 f   LIBCMTD:putch.obj
 0001:0006c100       __putch_nolock             0046d100 f   LIBCMTD:putch.obj
 0001:0006c1ec       _ReadConsoleInputA@16      0046d1ec f   kernel32:KERNEL32.dll
 0001:0006c1f2       _SetConsoleMode@8          0046d1f2 f   kernel32:KERNEL32.dll
 0001:0006c1f8       _PeekConsoleInputA@16      0046d1f8 f   kernel32:KERNEL32.dll
 0001:0006c1fe       _GetNumberOfConsoleInputEvents@8 0046d1fe f   kernel32:KERNEL32.dll
 0002:00000000       __imp__Sleep@4             0046e000     kernel32:KERNEL32.dll
 0002:00000004       __imp__GetLastError@0      0046e004     kernel32:KERNEL32.dll
 0002:00000008       __imp__CreateThread@24     0046e008     kernel32:KERNEL32.dll
 0002:0000000c       __imp__GetModuleFileNameA@12 0046e00c     kernel32:KERNEL32.dll
 0002:00000010       __imp__ExitThread@4        0046e010     kernel32:KERNEL32.dll
 0002:00000014       __imp__LeaveCriticalSection@4 0046e014     kernel32:KERNEL32.dll
 0002:00000018       __imp__EnterCriticalSection@4 0046e018     kernel32:KERNEL32.dll
 0002:0000001c       __imp__GetTickCount@0      0046e01c     kernel32:KERNEL32.dll
 0002:00000020       __imp__InitializeCriticalSectionAndSpinCount@8 0046e020     kernel32:KERNEL32.dll
 0002:00000024       __imp__DeleteCriticalSection@4 0046e024     kernel32:KERNEL32.dll
 0002:00000028       __imp__GetLocalTime@4      0046e028     kernel32:KERNEL32.dll
 0002:0000002c       __imp__SetConsoleCtrlHandler@8 0046e02c     kernel32:KERNEL32.dll
 0002:00000030       __imp__GetStdHandle@4      0046e030     kernel32:KERNEL32.dll
 0002:00000034       __imp__AllocConsole@0      0046e034     kernel32:KERNEL32.dll
 0002:00000038       __imp__CloseHandle@4       0046e038     kernel32:KERNEL32.dll
 0002:0000003c       __imp__WriteFile@20        0046e03c     kernel32:KERNEL32.dll
 0002:00000040       __imp__CreateFileA@28      0046e040     kernel32:KERNEL32.dll
 0002:00000044       __imp__QueryPerformanceCounter@4 0046e044     kernel32:KERNEL32.dll
 0002:00000048       __imp__QueryPerformanceFrequency@4 0046e048     kernel32:KERNEL32.dll
 0002:0000004c       __imp__ExitProcess@4       0046e04c     kernel32:KERNEL32.dll
 0002:00000050       __imp__CreateProcessA@40   0046e050     kernel32:KERNEL32.dll
 0002:00000054       __imp__FindClose@4         0046e054     kernel32:KERNEL32.dll
 0002:00000058       __imp__FindNextFileA@8     0046e058     kernel32:KERNEL32.dll
 0002:0000005c       __imp__FindFirstFileA@8    0046e05c     kernel32:KERNEL32.dll
 0002:00000060       __imp__GetTimeFormatA@24   0046e060     kernel32:KERNEL32.dll
 0002:00000064       __imp__GetDateFormatA@24   0046e064     kernel32:KERNEL32.dll
 0002:00000068       __imp__GetFileSize@8       0046e068     kernel32:KERNEL32.dll
 0002:0000006c       __imp__GetFileAttributesA@4 0046e06c     kernel32:KERNEL32.dll
 0002:00000070       __imp__FileTimeToSystemTime@8 0046e070     kernel32:KERNEL32.dll
 0002:00000074       __imp__FileTimeToLocalFileTime@8 0046e074     kernel32:KERNEL32.dll
 0002:00000078       __imp__ReadFile@20         0046e078     kernel32:KERNEL32.dll
 0002:0000007c       __imp__SetFilePointer@16   0046e07c     kernel32:KERNEL32.dll
 0002:00000080       __imp__GetSystemDirectoryA@8 0046e080     kernel32:KERNEL32.dll
 0002:00000084       __imp__LoadLibraryA@4      0046e084     kernel32:KERNEL32.dll
 0002:00000088       __imp__GetProcAddress@8    0046e088     kernel32:KERNEL32.dll
 0002:0000008c       __imp__GetModuleHandleA@4  0046e08c     kernel32:KERNEL32.dll
 0002:00000090       __imp__FormatMessageA@28   0046e090     kernel32:KERNEL32.dll
 0002:00000094       __imp__GlobalUnlock@4      0046e094     kernel32:KERNEL32.dll
 0002:00000098       __imp__GlobalLock@4        0046e098     kernel32:KERNEL32.dll
 0002:0000009c       __imp__UnmapViewOfFile@4   0046e09c     kernel32:KERNEL32.dll
 0002:000000a0       __imp__MapViewOfFile@20    0046e0a0     kernel32:KERNEL32.dll
 0002:000000a4       __imp__CreateFileMappingA@24 0046e0a4     kernel32:KERNEL32.dll
 0002:000000a8       __imp__SetFileTime@16      0046e0a8     kernel32:KERNEL32.dll
 0002:000000ac       __imp__GetFileTime@16      0046e0ac     kernel32:KERNEL32.dll
 0002:000000b0       __imp__ExpandEnvironmentStringsA@12 0046e0b0     kernel32:KERNEL32.dll
 0002:000000b4       __imp__SetFileAttributesA@8 0046e0b4     kernel32:KERNEL32.dll
 0002:000000b8       __imp__GetTempPathA@8      0046e0b8     kernel32:KERNEL32.dll
 0002:000000bc       __imp__WideCharToMultiByte@32 0046e0bc     kernel32:KERNEL32.dll
 0002:000000c0       __imp__MultiByteToWideChar@24 0046e0c0     kernel32:KERNEL32.dll
 0002:000000c4       __imp__GetComputerNameA@8  0046e0c4     kernel32:KERNEL32.dll
 0002:000000c8       __imp__GetCurrentProcess@0 0046e0c8     kernel32:KERNEL32.dll
 0002:000000cc       __imp__TerminateProcess@8  0046e0cc     kernel32:KERNEL32.dll
 0002:000000d0       __imp__OpenProcess@12      0046e0d0     kernel32:KERNEL32.dll
 0002:000000d4       __imp__DeleteFileA@4       0046e0d4     kernel32:KERNEL32.dll
 0002:000000d8       __imp__GetCurrentProcessId@0 0046e0d8     kernel32:KERNEL32.dll
 0002:000000dc       __imp__CopyFileA@12        0046e0dc     kernel32:KERNEL32.dll
 0002:000000e0       __imp__WaitForSingleObject@8 0046e0e0     kernel32:KERNEL32.dll
 0002:000000e4       __imp__CreateMutexA@12     0046e0e4     kernel32:KERNEL32.dll
 0002:000000e8       __imp__TerminateThread@8   0046e0e8     kernel32:KERNEL32.dll
 0002:000000ec       __imp__MoveFileA@8         0046e0ec     kernel32:KERNEL32.dll
 0002:000000f0       __imp__GetExitCodeProcess@8 0046e0f0     kernel32:KERNEL32.dll
 0002:000000f4       __imp__PeekNamedPipe@24    0046e0f4     kernel32:KERNEL32.dll
 0002:000000f8       __imp__DuplicateHandle@28  0046e0f8     kernel32:KERNEL32.dll
 0002:000000fc       __imp__CreatePipe@16       0046e0fc     kernel32:KERNEL32.dll
 0002:00000100       __imp__GetLocaleInfoA@16   0046e100     kernel32:KERNEL32.dll
 0002:00000104       __imp__GetVersionExA@4     0046e104     kernel32:KERNEL32.dll
 0002:00000108       __imp__GetLogicalDrives@0  0046e108     kernel32:KERNEL32.dll
 0002:0000010c       __imp__WaitForMultipleObjects@16 0046e10c     kernel32:KERNEL32.dll
 0002:00000110       __imp__GenerateConsoleCtrlEvent@8 0046e110     kernel32:KERNEL32.dll
 0002:00000114       __imp__PeekConsoleInputA@16 0046e114     kernel32:KERNEL32.dll
 0002:00000118       __imp__SetConsoleMode@8    0046e118     kernel32:KERNEL32.dll
 0002:0000011c       __imp__ReadConsoleInputA@16 0046e11c     kernel32:KERNEL32.dll
 0002:00000120       __imp__SetEnvironmentVariableA@8 0046e120     kernel32:KERNEL32.dll
 0002:00000124       __imp__CompareStringW@24   0046e124     kernel32:KERNEL32.dll
 0002:00000128       __imp__GetNumberOfConsoleInputEvents@8 0046e128     kernel32:KERNEL32.dll
 0002:0000012c       __imp__CompareStringA@24   0046e12c     kernel32:KERNEL32.dll
 0002:00000130       __imp__InterlockedIncrement@4 0046e130     kernel32:KERNEL32.dll
 0002:00000134       __imp__InterlockedDecrement@4 0046e134     kernel32:KERNEL32.dll
 0002:00000138       __imp__InterlockedExchange@8 0046e138     kernel32:KERNEL32.dll
 0002:0000013c       __imp__InitializeCriticalSection@4 0046e13c     kernel32:KERNEL32.dll
 0002:00000140       __imp__RaiseException@16   0046e140     kernel32:KERNEL32.dll
 0002:00000144       __imp__SetStdHandle@8      0046e144     kernel32:KERNEL32.dll
 0002:00000148       __imp__GetFileType@4       0046e148     kernel32:KERNEL32.dll
 0002:0000014c       __imp__RtlUnwind@16        0046e14c     kernel32:KERNEL32.dll
 0002:00000150       __imp__UnhandledExceptionFilter@4 0046e150     kernel32:KERNEL32.dll
 0002:00000154       __imp__SetUnhandledExceptionFilter@4 0046e154     kernel32:KERNEL32.dll
 0002:00000158       __imp__IsDebuggerPresent@0 0046e158     kernel32:KERNEL32.dll
 0002:0000015c       __imp__GetModuleFileNameW@12 0046e15c     kernel32:KERNEL32.dll
 0002:00000160       __imp__GetModuleHandleW@4  0046e160     kernel32:KERNEL32.dll
 0002:00000164       __imp__GetCommandLineA@0   0046e164     kernel32:KERNEL32.dll
 0002:00000168       __imp__GetStartupInfoA@4   0046e168     kernel32:KERNEL32.dll
 0002:0000016c       __imp__HeapValidate@12     0046e16c     kernel32:KERNEL32.dll
 0002:00000170       __imp__IsBadReadPtr@8      0046e170     kernel32:KERNEL32.dll
 0002:00000174       __imp__TlsGetValue@4       0046e174     kernel32:KERNEL32.dll
 0002:00000178       __imp__TlsAlloc@0          0046e178     kernel32:KERNEL32.dll
 0002:0000017c       __imp__TlsSetValue@8       0046e17c     kernel32:KERNEL32.dll
 0002:00000180       __imp__GetCurrentThreadId@0 0046e180     kernel32:KERNEL32.dll
 0002:00000184       __imp__TlsFree@4           0046e184     kernel32:KERNEL32.dll
 0002:00000188       __imp__SetLastError@4      0046e188     kernel32:KERNEL32.dll
 0002:0000018c       __imp__GetCurrentThread@0  0046e18c     kernel32:KERNEL32.dll
 0002:00000190       __imp__FatalAppExitA@8     0046e190     kernel32:KERNEL32.dll
 0002:00000194       __imp__SetHandleCount@4    0046e194     kernel32:KERNEL32.dll
 0002:00000198       __imp__LCMapStringA@24     0046e198     kernel32:KERNEL32.dll
 0002:0000019c       __imp__LCMapStringW@24     0046e19c     kernel32:KERNEL32.dll
 0002:000001a0       __imp__GetACP@0            0046e1a0     kernel32:KERNEL32.dll
 0002:000001a4       __imp__GetOEMCP@0          0046e1a4     kernel32:KERNEL32.dll
 0002:000001a8       __imp__GetCPInfo@8         0046e1a8     kernel32:KERNEL32.dll
 0002:000001ac       __imp__IsValidCodePage@4   0046e1ac     kernel32:KERNEL32.dll
 0002:000001b0       __imp__DebugBreak@0        0046e1b0     kernel32:KERNEL32.dll
 0002:000001b4       __imp__OutputDebugStringA@4 0046e1b4     kernel32:KERNEL32.dll
 0002:000001b8       __imp__WriteConsoleW@20    0046e1b8     kernel32:KERNEL32.dll
 0002:000001bc       __imp__OutputDebugStringW@4 0046e1bc     kernel32:KERNEL32.dll
 0002:000001c0       __imp__LoadLibraryW@4      0046e1c0     kernel32:KERNEL32.dll
 0002:000001c4       __imp__FreeLibrary@4       0046e1c4     kernel32:KERNEL32.dll
 0002:000001c8       __imp__GetSystemTimeAsFileTime@4 0046e1c8     kernel32:KERNEL32.dll
 0002:000001cc       __imp__FreeEnvironmentStringsA@4 0046e1cc     kernel32:KERNEL32.dll
 0002:000001d0       __imp__GetEnvironmentStrings@0 0046e1d0     kernel32:KERNEL32.dll
 0002:000001d4       __imp__FreeEnvironmentStringsW@4 0046e1d4     kernel32:KERNEL32.dll
 0002:000001d8       __imp__GetEnvironmentStringsW@0 0046e1d8     kernel32:KERNEL32.dll
 0002:000001dc       __imp__HeapDestroy@4       0046e1dc     kernel32:KERNEL32.dll
 0002:000001e0       __imp__HeapCreate@12       0046e1e0     kernel32:KERNEL32.dll
 0002:000001e4       __imp__HeapFree@12         0046e1e4     kernel32:KERNEL32.dll
 0002:000001e8       __imp__VirtualFree@12      0046e1e8     kernel32:KERNEL32.dll
 0002:000001ec       __imp__HeapAlloc@12        0046e1ec     kernel32:KERNEL32.dll
 0002:000001f0       __imp__HeapSize@12         0046e1f0     kernel32:KERNEL32.dll
 0002:000001f4       __imp__HeapReAlloc@16      0046e1f4     kernel32:KERNEL32.dll
 0002:000001f8       __imp__VirtualAlloc@16     0046e1f8     kernel32:KERNEL32.dll
 0002:000001fc       __imp__FlushFileBuffers@4  0046e1fc     kernel32:KERNEL32.dll
 0002:00000200       __imp__GetConsoleCP@0      0046e200     kernel32:KERNEL32.dll
 0002:00000204       __imp__GetConsoleMode@8    0046e204     kernel32:KERNEL32.dll
 0002:00000208       __imp__GetStringTypeA@20   0046e208     kernel32:KERNEL32.dll
 0002:0000020c       __imp__GetStringTypeW@16   0046e20c     kernel32:KERNEL32.dll
 0002:00000210       __imp__IsValidLocale@8     0046e210     kernel32:KERNEL32.dll
 0002:00000214       __imp__EnumSystemLocalesA@8 0046e214     kernel32:KERNEL32.dll
 0002:00000218       __imp__GetUserDefaultLCID@0 0046e218     kernel32:KERNEL32.dll
 0002:0000021c       __imp__GetLocaleInfoW@16   0046e21c     kernel32:KERNEL32.dll
 0002:00000220       __imp__WriteConsoleA@20    0046e220     kernel32:KERNEL32.dll
 0002:00000224       __imp__GetConsoleOutputCP@0 0046e224     kernel32:KERNEL32.dll
 0002:00000228       __imp__lstrlenA@4          0046e228     kernel32:KERNEL32.dll
 0002:0000022c       __imp__GetTimeZoneInformation@4 0046e22c     kernel32:KERNEL32.dll
 0002:00000230       __imp__SetEndOfFile@4      0046e230     kernel32:KERNEL32.dll
 0002:00000234       __imp__GetProcessHeap@0    0046e234     kernel32:KERNEL32.dll
 0002:00000238       __imp__VirtualQuery@12     0046e238     kernel32:KERNEL32.dll
 0002:0000023c       \177KERNEL32_NULL_THUNK_DATA 0046e23c     kernel32:KERNEL32.dll
 0002:00000240       __imp__InternetOpenA@20    0046e240     wininet:WININET.dll
 0002:00000244       __imp__InternetConnectA@32 0046e244     wininet:WININET.dll
 0002:00000248       __imp__HttpOpenRequestA@32 0046e248     wininet:WININET.dll
 0002:0000024c       __imp__HttpSendRequestA@20 0046e24c     wininet:WININET.dll
 0002:00000250       __imp__InternetReadFile@16 0046e250     wininet:WININET.dll
 0002:00000254       __imp__InternetCloseHandle@4 0046e254     wininet:WININET.dll
 0002:00000258       \177WININET_NULL_THUNK_DATA 0046e258     wininet:WININET.dll
 0002:0000025c       ___xc_a                    0046e25c     LIBCMTD:crt0init.obj
 0002:00000264       ___xc_z                    0046e264     LIBCMTD:crt0init.obj
 0002:00000268       ___xi_a                    0046e268     LIBCMTD:crt0init.obj
 0002:00000284       ___xi_z                    0046e284     LIBCMTD:crt0init.obj
 0002:00000288       ___xp_a                    0046e288     LIBCMTD:crt0init.obj
 0002:00000298       ___xp_z                    0046e298     LIBCMTD:crt0init.obj
 0002:0000029c       ___xt_a                    0046e29c     LIBCMTD:crt0init.obj
 0002:000002a0       ___xt_z                    0046e2a0     LIBCMTD:crt0init.obj
 0002:000005cc       ?collate@?$_Locbase@H@std@@2HB 0046e5cc     advscan.obj
 0002:000005d0       ?ctype@?$_Locbase@H@std@@2HB 0046e5d0     advscan.obj
 0002:000005d4       ?monetary@?$_Locbase@H@std@@2HB 0046e5d4     advscan.obj
 0002:000005d8       ?numeric@?$_Locbase@H@std@@2HB 0046e5d8     advscan.obj
 0002:000005dc       ?time@?$_Locbase@H@std@@2HB 0046e5dc     advscan.obj
 0002:000005e0       ?messages@?$_Locbase@H@std@@2HB 0046e5e0     advscan.obj
 0002:000005e4       ?all@?$_Locbase@H@std@@2HB 0046e5e4     advscan.obj
 0002:000005e8       ?none@?$_Locbase@H@std@@2HB 0046e5e8     advscan.obj
 0002:000005ec       ?table_size@?$ctype@D@std@@2IB 0046e5ec     advscan.obj
 0002:000005f0       ?skipws@?$_Iosb@H@std@@2W4_Fmtflags@12@B 0046e5f0     advscan.obj
 0002:000005f4       ?unitbuf@?$_Iosb@H@std@@2W4_Fmtflags@12@B 0046e5f4     advscan.obj
 0002:000005f8       ?uppercase@?$_Iosb@H@std@@2W4_Fmtflags@12@B 0046e5f8     advscan.obj
 0002:000005fc       ?showbase@?$_Iosb@H@std@@2W4_Fmtflags@12@B 0046e5fc     advscan.obj
 0002:00000600       ?showpoint@?$_Iosb@H@std@@2W4_Fmtflags@12@B 0046e600     advscan.obj
 0002:00000604       ?showpos@?$_Iosb@H@std@@2W4_Fmtflags@12@B 0046e604     advscan.obj
 0002:00000608       ?left@?$_Iosb@H@std@@2W4_Fmtflags@12@B 0046e608     advscan.obj
 0002:0000060c       ?right@?$_Iosb@H@std@@2W4_Fmtflags@12@B 0046e60c     advscan.obj
 0002:00000610       ?internal@?$_Iosb@H@std@@2W4_Fmtflags@12@B 0046e610     advscan.obj
 0002:00000614       ?dec@?$_Iosb@H@std@@2W4_Fmtflags@12@B 0046e614     advscan.obj
 0002:00000618       ?oct@?$_Iosb@H@std@@2W4_Fmtflags@12@B 0046e618     advscan.obj
 0002:0000061c       ?hex@?$_Iosb@H@std@@2W4_Fmtflags@12@B 0046e61c     advscan.obj
 0002:00000620       ?scientific@?$_Iosb@H@std@@2W4_Fmtflags@12@B 0046e620     advscan.obj
 0002:00000624       ?fixed@?$_Iosb@H@std@@2W4_Fmtflags@12@B 0046e624     advscan.obj
 0002:00000628       ?hexfloat@?$_Iosb@H@std@@2W4_Fmtflags@12@B 0046e628     advscan.obj
 0002:0000062c       ?boolalpha@?$_Iosb@H@std@@2W4_Fmtflags@12@B 0046e62c     advscan.obj
 0002:00000630       ?_Stdio@?$_Iosb@H@std@@2W4_Fmtflags@12@B 0046e630     advscan.obj
 0002:00000634       ?adjustfield@?$_Iosb@H@std@@2W4_Fmtflags@12@B 0046e634     advscan.obj
 0002:00000638       ?basefield@?$_Iosb@H@std@@2W4_Fmtflags@12@B 0046e638     advscan.obj
 0002:0000063c       ?floatfield@?$_Iosb@H@std@@2W4_Fmtflags@12@B 0046e63c     advscan.obj
 0002:00000640       ?goodbit@?$_Iosb@H@std@@2W4_Iostate@12@B 0046e640     advscan.obj
 0002:00000644       ?eofbit@?$_Iosb@H@std@@2W4_Iostate@12@B 0046e644     advscan.obj
 0002:00000648       ?failbit@?$_Iosb@H@std@@2W4_Iostate@12@B 0046e648     advscan.obj
 0002:0000064c       ?badbit@?$_Iosb@H@std@@2W4_Iostate@12@B 0046e64c     advscan.obj
 0002:00000650       ?_Hardfail@?$_Iosb@H@std@@2W4_Iostate@12@B 0046e650     advscan.obj
 0002:00000654       ?in@?$_Iosb@H@std@@2W4_Openmode@12@B 0046e654     advscan.obj
 0002:00000658       ?out@?$_Iosb@H@std@@2W4_Openmode@12@B 0046e658     advscan.obj
 0002:0000065c       ?ate@?$_Iosb@H@std@@2W4_Openmode@12@B 0046e65c     advscan.obj
 0002:00000660       ?app@?$_Iosb@H@std@@2W4_Openmode@12@B 0046e660     advscan.obj
 0002:00000664       ?trunc@?$_Iosb@H@std@@2W4_Openmode@12@B 0046e664     advscan.obj
 0002:00000668       ?_Nocreate@?$_Iosb@H@std@@2W4_Openmode@12@B 0046e668     advscan.obj
 0002:0000066c       ?_Noreplace@?$_Iosb@H@std@@2W4_Openmode@12@B 0046e66c     advscan.obj
 0002:00000670       ?binary@?$_Iosb@H@std@@2W4_Openmode@12@B 0046e670     advscan.obj
 0002:00000674       ?beg@?$_Iosb@H@std@@2W4_Seekdir@12@B 0046e674     advscan.obj
 0002:00000678       ?cur@?$_Iosb@H@std@@2W4_Seekdir@12@B 0046e678     advscan.obj
 0002:0000067c       ?end@?$_Iosb@H@std@@2W4_Seekdir@12@B 0046e67c     advscan.obj
 0002:00000680       ??_C@_0DP@CCOAGOA@C?3?2Program?5Files?2Microsoft?5Visua@ 0046e680     advscan.obj
 0002:000006c4       ??_7bad_alloc@std@@6B@     0046e6c4     advscan.obj
 0002:00000838       __real@4024000000000000    0046e838     cJSON.obj
 0002:00000840       __real@bff0000000000000    0046e840     cJSON.obj
 0002:00000848       __real@3ff0000000000000    0046e848     cJSON.obj
 0002:00000850       __real@0000000000000000    0046e850     cJSON.obj
 0002:00000858       __real@41cdcd6500000000    0046e858     cJSON.obj
 0002:00000860       __real@3eb0c6f7a0b5ed8d    0046e860     cJSON.obj
 0002:00000868       __real@4c63e9e4e4c2f344    0046e868     cJSON.obj
 0002:00000870       __real@c1e0000000000000    0046e870     cJSON.obj
 0002:00000878       __real@41dfffffffc00000    0046e878     cJSON.obj
 0002:00000880       __real@3cb0000000000000    0046e880     cJSON.obj
 0002:00000f28       __real@3f50000000000000    0046ef28     download.obj
 0002:00000f30       __real@41f0000000000000    0046ef30     download.obj
 0002:000011b8       ??_C@_1IA@IJKDJKBN@?$AAC?$AA?3?$AA?2?$AAP?$AAr?$AAo?$AAg?$AAr?$AAa?$AAm?$AA?5?$AAF?$AAi?$AAl?$AAe?$AAs?$AA?2?$AAM?$AAi?$AAc?$AAr?$AAo?$AAs?$AAo?$AAf?$AAt?$AA?5?$AAV?$AAi?$AAs?$AAu?$AAa@ 0046f1b8     facebook.obj
 0002:00001238       ??_C@_1BO@MEPPHOO@?$AA?$CC?$AAo?$AAu?$AAt?$AA?5?$AAo?$AAf?$AA?5?$AAr?$AAa?$AAn?$AAg?$AAe?$AA?$CC?$AA?$AA@ 0046f238     facebook.obj
 0002:00001258       ??_C@_1LO@NPPEKPAI@?$AAs?$AAt?$AAd?$AA?3?$AA?3?$AAb?$AAa?$AAs?$AAi?$AAc?$AA_?$AAs?$AAt?$AAr?$AAi?$AAn?$AAg?$AA?$DM?$AAc?$AAh?$AAa?$AAr?$AA?0?$AAs?$AAt?$AAr?$AAu?$AAc?$AAt?$AA?5?$AAs?$AAt@ 0046f258     facebook.obj
 0002:00001318       ??_C@_1FG@CMLDHNON@?$AA?$CI?$AA?$CC?$AAS?$AAt?$AAa?$AAn?$AAd?$AAa?$AAr?$AAd?$AA?5?$AAC?$AA?$CL?$AA?$CL?$AA?5?$AAL?$AAi?$AAb?$AAr?$AAa?$AAr?$AAi?$AAe?$AAs?$AA?5?$AAO?$AAu?$AAt?$AA?5?$AAo?$AAf?$AA?5@ 0046f318     facebook.obj
 0002:00001370       ??_C@_1DM@GMPLOCPK@?$AAs?$AAt?$AAr?$AAi?$AAn?$AAg?$AA?5?$AAs?$AAu?$AAb?$AAs?$AAc?$AAr?$AAi?$AAp?$AAt?$AA?5?$AAo?$AAu?$AAt?$AA?5?$AAo?$AAf?$AA?5?$AAr?$AAa?$AAn?$AAg?$AAe?$AA?$AA@ 0046f370     facebook.obj
 0002:000013ac       ??_C@_1CK@EOPGIILJ@?$AAi?$AAn?$AAv?$AAa?$AAl?$AAi?$AAd?$AA?5?$AAn?$AAu?$AAl?$AAl?$AA?5?$AAp?$AAo?$AAi?$AAn?$AAt?$AAe?$AAr?$AA?$AA@ 0046f3ac     facebook.obj
 0002:00006c08       ??_C@_0P@GHFPNOJB@bad?5allocation?$AA@ 00474c08     libcpmtd:xdebug.obj
 0002:00006c1c       ??_C@_0CO@JPCIKGOF@f?3?2dd?2vctools?2crt_bld?2self_x86?2c@ 00474c1c     libcpmtd:xdebug.obj
 0002:00006c4c       ??_C@_01EEMJAFIK@?6?$AA@   00474c4c     libcpmtd:stdthrow.obj
 0002:00006c50       ??_C@_07CIFAGBMG@unknown?$AA@ 00474c50     libcpmtd:stdthrow.obj
 0002:00006c58       ??_C@_0M@LLHBPFNE@exception?3?5?$AA@ 00474c58     libcpmtd:stdthrow.obj
 0002:00006c64       ??_C@_0BA@JFNIOLAK@string?5too?5long?$AA@ 00474c64     libcpmtd:string.obj
 0002:00006c78       ??_7length_error@std@@6B@  00474c78     libcpmtd:string.obj
 0002:00006c84       ??_7logic_error@std@@6B@   00474c84     libcpmtd:string.obj
 0002:00006c8c       ??_C@_0BI@CFPLBAOH@invalid?5string?5position?$AA@ 00474c8c     libcpmtd:string.obj
 0002:00006ca8       ??_7out_of_range@std@@6B@  00474ca8     libcpmtd:string.obj
 0002:00006cb0       ??_C@_0BI@ILCMCLF@invalid?5string?5argument?$AA@ 00474cb0     libcpmtd:string.obj
 0002:00006ccc       ??_7invalid_argument@std@@6B@ 00474ccc     libcpmtd:string.obj
 0002:00006cd4       ?npos@?$basic_string@DU?$char_traits@D@std@@V?$allocator@D@2@@std@@2IB 00474cd4     libcpmtd:string.obj
 0002:00006cd8       ??_C@_1FO@BEGKGBFG@?$AAf?$AA?3?$AA?2?$AAd?$AAd?$AA?2?$AAv?$AAc?$AAt?$AAo?$AAo?$AAl?$AAs?$AA?2?$AAc?$AAr?$AAt?$AA_?$AAb?$AAl?$AAd?$AA?2?$AAs?$AAe?$AAl?$AAf?$AA_?$AAx?$AA8?$AA6?$AA?2?$AAc@ 00474cd8     libcpmtd:string.obj
 0002:00006d38       ??_C@_1CC@OLIJCKA@?$AA?$CI?$AAs?$AAt?$AAr?$AAi?$AAn?$AAg?$AA?5?$AA?$CB?$AA?$DN?$AA?5?$AAN?$AAU?$AAL?$AAL?$AA?$CJ?$AA?$AA@ 00474d38     LIBCMTD:sprintf.obj
 0002:00006d5c       ??_C@_1BA@KBJJGFFE@?$AAs?$AAp?$AAr?$AAi?$AAn?$AAt?$AAf?$AA?$AA@ 00474d5c     LIBCMTD:sprintf.obj
 0002:00006d70       ??_C@_1GC@BMNPEKNN@?$AAf?$AA?3?$AA?2?$AAd?$AAd?$AA?2?$AAv?$AAc?$AAt?$AAo?$AAo?$AAl?$AAs?$AA?2?$AAc?$AAr?$AAt?$AA_?$AAb?$AAl?$AAd?$AA?2?$AAs?$AAe?$AAl?$AAf?$AA_?$AAx?$AA8?$AA6?$AA?2?$AAc@ 00474d70     LIBCMTD:sprintf.obj
 0002:00006dd4       ??_C@_1CC@MGIEJOME@?$AA?$CI?$AAf?$AAo?$AAr?$AAm?$AAa?$AAt?$AA?5?$AA?$CB?$AA?$DN?$AA?5?$AAN?$AAU?$AAL?$AAL?$AA?$CJ?$AA?$AA@ 00474dd4     LIBCMTD:sprintf.obj
 0002:00006df8       ??_C@_1BC@KMGJCMNP@?$AAv?$AAs?$AAc?$AAa?$AAn?$AA_?$AAf?$AAn?$AA?$AA@ 00474df8     LIBCMTD:sscanf.obj
 0002:00006e10       ??_C@_1GA@GDIHGGDN@?$AAf?$AA?3?$AA?2?$AAd?$AAd?$AA?2?$AAv?$AAc?$AAt?$AAo?$AAo?$AAl?$AAs?$AA?2?$AAc?$AAr?$AAt?$AA_?$AAb?$AAl?$AAd?$AA?2?$AAs?$AAe?$AAl?$AAf?$AA_?$AAx?$AA8?$AA6?$AA?2?$AAc@ 00474e10     LIBCMTD:sscanf.obj
 0002:00006e94       ??_7type_info@@6B@         00474e94     LIBCMTD:typinfo.obj
 0002:00006e9c       ??_7exception@std@@6B@     00474e9c     LIBCMTD:stdexcpt.obj
 0002:00006ea4       ??_C@_0BC@EOODALEL@Unknown?5exception?$AA@ 00474ea4     LIBCMTD:stdexcpt.obj
 0002:00006ebc       ??_7bad_cast@std@@6B@      00474ebc     LIBCMTD:stdexcpt.obj
 0002:00006ec8       ??_7bad_typeid@std@@6B@    00474ec8     LIBCMTD:stdexcpt.obj
 0002:00006ed4       ??_7__non_rtti_object@std@@6B@ 00474ed4     LIBCMTD:stdexcpt.obj
 0002:00006ee0       ??_C@_1GE@BDAODJCD@?$AAf?$AA?3?$AA?2?$AAd?$AAd?$AA?2?$AAv?$AAc?$AAt?$AAo?$AAo?$AAl?$AAs?$AA?2?$AAc?$AAr?$AAt?$AA_?$AAb?$AAl?$AAd?$AA?2?$AAs?$AAe?$AAl?$AAf?$AA_?$AAx?$AA8?$AA6?$AA?2?$AAc@ 00474ee0     LIBCMTD:dbgdel.obj
 0002:00006f48       ??_C@_1EO@LHDAJOCM@?$AA_?$AAB?$AAL?$AAO?$AAC?$AAK?$AA_?$AAT?$AAY?$AAP?$AAE?$AA_?$AAI?$AAS?$AA_?$AAV?$AAA?$AAL?$AAI?$AAD?$AA?$CI?$AAp?$AAH?$AAe?$AAa?$AAd?$AA?9?$AA?$DO?$AAn?$AAB?$AAl?$AAo@ 00474f48     LIBCMTD:dbgdel.obj
 0002:00006f98       ?ProcessDetach@NativeDll@<CrtImplementationDetails>@@0IB 00474f98     LIBCMTD:dbgfree.obj
 0002:00006f9c       ?ProcessAttach@NativeDll@<CrtImplementationDetails>@@0IB 00474f9c     LIBCMTD:dbgfree.obj
 0002:00006fa0       ?ThreadAttach@NativeDll@<CrtImplementationDetails>@@0IB 00474fa0     LIBCMTD:dbgfree.obj
 0002:00006fa4       ?ThreadDetach@NativeDll@<CrtImplementationDetails>@@0IB 00474fa4     LIBCMTD:dbgfree.obj
 0002:00006fa8       ?ProcessVerifier@NativeDll@<CrtImplementationDetails>@@0IB 00474fa8     LIBCMTD:dbgfree.obj
 0002:00006fb0       ??_C@_1EC@FABAOFFO@?$AA?$CI?$AAc?$AAo?$AAu?$AAn?$AAt?$AA?5?$AA?$DN?$AA?$DN?$AA?5?$AA0?$AA?$CJ?$AA?5?$AA?$HM?$AA?$HM?$AA?5?$AA?$CI?$AAs?$AAt?$AAr?$AAi?$AAn?$AAg?$AA?5?$AA?$CB?$AA?$DN?$AA?5?$AAN?$AAU?$AAL?$AAL?$AA?$CJ@ 00474fb0     LIBCMTD:snprintf.obj
 0002:00006ff4       ??_C@_1BE@CHNFPLHD@?$AA_?$AAs?$AAn?$AAp?$AAr?$AAi?$AAn?$AAt?$AAf?$AA?$AA@ 00474ff4     LIBCMTD:snprintf.obj
 0002:00007008       ??_C@_1BK@FHMHFMNL@?$AA_?$AAv?$AAs?$AAn?$AAp?$AAr?$AAi?$AAn?$AAt?$AAf?$AA_?$AAl?$AA?$AA@ 00475008     LIBCMTD:vsnprint.obj
 0002:00007028       ??_C@_1GE@DPADKNCG@?$AAf?$AA?3?$AA?2?$AAd?$AAd?$AA?2?$AAv?$AAc?$AAt?$AAo?$AAo?$AAl?$AAs?$AA?2?$AAc?$AAr?$AAt?$AA_?$AAb?$AAl?$AAd?$AA?2?$AAs?$AAe?$AAl?$AAf?$AA_?$AAx?$AA8?$AA6?$AA?2?$AAc@ 00475028     LIBCMTD:vsnprint.obj
 0002:0000708c       ??_C@_0DB@MIGHMKAN@f?3?2dd?2vctools?2crt_bld?2self_x86?2c@ 0047508c     LIBCMTD:setvbuf.obj
 0002:000070c0       ??_C@_1EG@IJNJIDNB@?$AA?$CI?$AA?$CI?$AA2?$AA?5?$AA?$DM?$AA?$DN?$AA?5?$AAs?$AAi?$AAz?$AAe?$AA?$CJ?$AA?5?$AA?$CG?$AA?$CG?$AA?5?$AA?$CI?$AAs?$AAi?$AAz?$AAe?$AA?5?$AA?$DM?$AA?$DN?$AA?5?$AAI?$AAN?$AAT?$AA_?$AAM?$AAA?$AAX@ 004750c0     LIBCMTD:setvbuf.obj
 0002:00007108       ??_C@_1HC@CBFEDAGG@?$AA?$CI?$AAt?$AAy?$AAp?$AAe?$AA?5?$AA?$DN?$AA?$DN?$AA?5?$AA_?$AAI?$AAO?$AAN?$AAB?$AAF?$AA?$CJ?$AA?5?$AA?$HM?$AA?$HM?$AA?5?$AA?$CI?$AAt?$AAy?$AAp?$AAe?$AA?5?$AA?$DN?$AA?$DN?$AA?5?$AA_?$AAI?$AAO@ 00475108     LIBCMTD:setvbuf.obj
 0002:0000717c       ??_C@_1BA@OGODIODK@?$AAs?$AAe?$AAt?$AAv?$AAb?$AAu?$AAf?$AA?$AA@ 0047517c     LIBCMTD:setvbuf.obj
 0002:00007190       ??_C@_1GC@FPPJLAOD@?$AAf?$AA?3?$AA?2?$AAd?$AAd?$AA?2?$AAv?$AAc?$AAt?$AAo?$AAo?$AAl?$AAs?$AA?2?$AAc?$AAr?$AAt?$AA_?$AAb?$AAl?$AAd?$AA?2?$AAs?$AAe?$AAl?$AAf?$AA_?$AAx?$AA8?$AA6?$AA?2?$AAc@ 00475190     LIBCMTD:setvbuf.obj
 0002:000071f4       ??_C@_1BM@JMKHIAHP@?$AA?$CI?$AAs?$AAt?$AAr?$AA?5?$AA?$CB?$AA?$DN?$AA?5?$AAN?$AAU?$AAL?$AAL?$AA?$CJ?$AA?$AA@ 004751f4     LIBCMTD:setvbuf.obj
 0002:00007210       ??_C@_0CP@BNKDODJJ@f?3?2dd?2vctools?2crt_bld?2self_x86?2c@ 00475210     LIBCMTD:_file.obj
 0002:00007240       ??_C@_1CI@KEDPFCAL@?$AA?$CI?$AA?$CK?$AAm?$AAo?$AAd?$AAe?$AA?5?$AA?$DN?$AA?$DN?$AA?5?$AA_?$AAT?$AA?$CI?$AA?8?$AA?2?$AA0?$AA?8?$AA?$CJ?$AA?$CJ?$AA?$AA@ 00475240     LIBCMTD:fdopen.obj
 0002:00007268       ??_C@_1DK@PKMJBLLN@?$AA?$CI?$AA?$CC?$AAI?$AAn?$AAv?$AAa?$AAl?$AAi?$AAd?$AA?5?$AAf?$AAi?$AAl?$AAe?$AA?5?$AAo?$AAp?$AAe?$AAn?$AA?5?$AAm?$AAo?$AAd?$AAe?$AA?$CC?$AA?0?$AA0?$AA?$CJ?$AA?$AA@ 00475268     LIBCMTD:fdopen.obj
 0002:000072a4       ??_C@_1DG@LNNHNFHJ@?$AA?$CI?$AA_?$AAo?$AAs?$AAf?$AAi?$AAl?$AAe?$AA?$CI?$AAf?$AAi?$AAl?$AAe?$AAd?$AAe?$AAs?$AA?$CJ?$AA?5?$AA?$CG?$AA?5?$AAF?$AAO?$AAP?$AAE?$AAN?$AA?$CJ?$AA?$AA@ 004752a4     LIBCMTD:fdopen.obj
 0002:000072e0       ??_C@_1HC@KFLBHHBC@?$AA?$CI?$AAf?$AAi?$AAl?$AAe?$AAd?$AAe?$AAs?$AA?5?$AA?$DO?$AA?$DN?$AA?5?$AA0?$AA?5?$AA?$CG?$AA?$CG?$AA?5?$AA?$CI?$AAu?$AAn?$AAs?$AAi?$AAg?$AAn?$AAe?$AAd?$AA?$CJ?$AAf?$AAi?$AAl?$AAe?$AAd@ 004752e0     LIBCMTD:fdopen.obj
 0002:00007354       ??_C@_1BA@FMAFIKI@?$AA_?$AAf?$AAd?$AAo?$AAp?$AAe?$AAn?$AA?$AA@ 00475354     LIBCMTD:fdopen.obj
 0002:00007368       ??_C@_1GA@CEENENNF@?$AAf?$AA?3?$AA?2?$AAd?$AAd?$AA?2?$AAv?$AAc?$AAt?$AAo?$AAo?$AAl?$AAs?$AA?2?$AAc?$AAr?$AAt?$AA_?$AAb?$AAl?$AAd?$AA?2?$AAs?$AAe?$AAl?$AAf?$AA_?$AAx?$AA8?$AA6?$AA?2?$AAc@ 00475368     LIBCMTD:fdopen.obj
 0002:000073c8       ??_C@_1BK@HGLMNMEC@?$AAm?$AAo?$AAd?$AAe?$AA?5?$AA?$CB?$AA?$DN?$AA?5?$AAN?$AAU?$AAL?$AAL?$AA?$AA@ 004753c8     LIBCMTD:fdopen.obj
 0002:000073e4       ??_C@_0DB@KIKNCIEC@f?3?2dd?2vctools?2crt_bld?2self_x86?2c@ 004753e4     LIBCMTD:osfinfo.obj
 0002:00007418       ??_C@_1CM@OKGMMMDH@?$AA?$CI?$AA_?$AAo?$AAs?$AAf?$AAi?$AAl?$AAe?$AA?$CI?$AAf?$AAh?$AA?$CJ?$AA?5?$AA?$CG?$AA?5?$AAF?$AAO?$AAP?$AAE?$AAN?$AA?$CJ?$AA?$AA@ 00475418     LIBCMTD:osfinfo.obj
 0002:00007444       ??_C@_1BO@EMBOBGKE@?$AA_?$AAg?$AAe?$AAt?$AA_?$AAo?$AAs?$AAf?$AAh?$AAa?$AAn?$AAd?$AAl?$AAe?$AA?$AA@ 00475444     LIBCMTD:osfinfo.obj
 0002:00007468       ??_C@_1GC@MLKLDJJG@?$AAf?$AA?3?$AA?2?$AAd?$AAd?$AA?2?$AAv?$AAc?$AAt?$AAo?$AAo?$AAl?$AAs?$AA?2?$AAc?$AAr?$AAt?$AA_?$AAb?$AAl?$AAd?$AA?2?$AAs?$AAe?$AAl?$AAf?$AA_?$AAx?$AA8?$AA6?$AA?2?$AAc@ 00475468     LIBCMTD:osfinfo.obj
 0002:000074d0       ??_C@_1FO@LPCLHKGE@?$AA?$CI?$AAf?$AAh?$AA?5?$AA?$DO?$AA?$DN?$AA?5?$AA0?$AA?5?$AA?$CG?$AA?$CG?$AA?5?$AA?$CI?$AAu?$AAn?$AAs?$AAi?$AAg?$AAn?$AAe?$AAd?$AA?$CJ?$AAf?$AAh?$AA?5?$AA?$DM?$AA?5?$AA?$CI?$AAu?$AAn?$AAs?$AAi@ 004754d0     LIBCMTD:osfinfo.obj
 0002:00007530       __FPinit                   00475530     LIBCMTD:_fpinit_.obj
 0002:00007534       __FPmtinit                 00475534     LIBCMTD:_fpinit_.obj
 0002:00007538       __FPmtterm                 00475538     LIBCMTD:_fpinit_.obj
 0002:00007590       ??_C@_1O@EGMJNCOI@?$AAf?$AAc?$AAl?$AAo?$AAs?$AAe?$AA?$AA@ 00475590     LIBCMTD:fclose.obj
 0002:000075a0       ??_C@_1GA@KMIDAPAP@?$AAf?$AA?3?$AA?2?$AAd?$AAd?$AA?2?$AAv?$AAc?$AAt?$AAo?$AAo?$AAl?$AAs?$AA?2?$AAc?$AAr?$AAt?$AA_?$AAb?$AAl?$AAd?$AA?2?$AAs?$AAe?$AAl?$AAf?$AA_?$AAx?$AA8?$AA6?$AA?2?$AAc@ 004755a0     LIBCMTD:fclose.obj
 0002:00007600       ??_C@_1CC@FADMNIL@?$AA?$CI?$AAs?$AAt?$AAr?$AAe?$AAa?$AAm?$AA?5?$AA?$CB?$AA?$DN?$AA?5?$AAN?$AAU?$AAL?$AAL?$AA?$CJ?$AA?$AA@ 00475600     LIBCMTD:fclose.obj
 0002:00007624       ??_C@_1BO@JINCABEC@?$AA_?$AAf?$AAc?$AAl?$AAo?$AAs?$AAe?$AA_?$AAn?$AAo?$AAl?$AAo?$AAc?$AAk?$AA?$AA@ 00475624     LIBCMTD:fclose.obj
 0002:00007644       ??_C@_1BA@CMLCEIGG@?$AAf?$AAr?$AAe?$AAa?$AAd?$AA_?$AAs?$AA?$AA@ 00475644     LIBCMTD:fread.obj
 0002:00007658       ??_C@_1FO@PNLFLIH@?$AAf?$AA?3?$AA?2?$AAd?$AAd?$AA?2?$AAv?$AAc?$AAt?$AAo?$AAo?$AAl?$AAs?$AA?2?$AAc?$AAr?$AAt?$AA_?$AAb?$AAl?$AAd?$AA?2?$AAs?$AAe?$AAl?$AAf?$AA_?$AAx?$AA8?$AA6?$AA?2?$AAc@ 00475658     LIBCMTD:fread.obj
 0002:000076b8       ??_C@_1DA@DKEFLDMG@?$AA?$CI?$AA?$CC?$AAb?$AAu?$AAf?$AAf?$AAe?$AAr?$AA?5?$AAt?$AAo?$AAo?$AA?5?$AAs?$AAm?$AAa?$AAl?$AAl?$AA?$CC?$AA?0?$AA?5?$AA0?$AA?$CJ?$AA?$AA@ 004756b8     LIBCMTD:fread.obj
 0002:000076e8       ??_C@_1LG@DCNDJCHK@?$AA?$CI?$AA?$CC?$AAI?$AAn?$AAc?$AAo?$AAn?$AAs?$AAi?$AAs?$AAt?$AAe?$AAn?$AAt?$AA?5?$AAS?$AAt?$AAr?$AAe?$AAa?$AAm?$AA?5?$AAC?$AAo?$AAu?$AAn?$AAt?$AA?4?$AA?5?$AAF?$AAl?$AAu@ 004756e8     LIBCMTD:fread.obj
 0002:000077a0       ??_C@_1EA@FAMECDND@?$AAn?$AAu?$AAm?$AA?5?$AA?$DM?$AA?$DN?$AA?5?$AA?$CI?$AAS?$AAI?$AAZ?$AAE?$AA_?$AAM?$AAA?$AAX?$AA?5?$AA?1?$AA?5?$AAe?$AAl?$AAe?$AAm?$AAe?$AAn?$AAt?$AAS?$AAi?$AAz?$AAe?$AA?$CJ?$AA?$AA@ 004757a0     LIBCMTD:fread.obj
 0002:000077e0       ??_C@_1CA@IDPOGFL@?$AA_?$AAf?$AAr?$AAe?$AAa?$AAd?$AA_?$AAn?$AAo?$AAl?$AAo?$AAc?$AAk?$AA_?$AAs?$AA?$AA@ 004757e0     LIBCMTD:fread.obj
 0002:00007800       ??_C@_1CC@CGFEEBMC@?$AA?$CI?$AAb?$AAu?$AAf?$AAf?$AAe?$AAr?$AA?5?$AA?$CB?$AA?$DN?$AA?5?$AAN?$AAU?$AAL?$AAL?$AA?$CJ?$AA?$AA@ 00475800     LIBCMTD:fread.obj
 0002:00007824       ??_C@_19LPGIFIDB@?$AAf?$AAe?$AAo?$AAf?$AA?$AA@ 00475824     LIBCMTD:feoferr.obj
 0002:00007830       ??_C@_1GC@CAEOCPLB@?$AAf?$AA?3?$AA?2?$AAd?$AAd?$AA?2?$AAv?$AAc?$AAt?$AAo?$AAo?$AAl?$AAs?$AA?2?$AAc?$AAr?$AAt?$AA_?$AAb?$AAl?$AAd?$AA?2?$AAs?$AAe?$AAl?$AAf?$AA_?$AAx?$AA8?$AA6?$AA?2?$AAc@ 00475830     LIBCMTD:feoferr.obj
 0002:00007894       ??_C@_1O@MOPHEPGP@?$AAf?$AAe?$AAr?$AAr?$AAo?$AAr?$AA?$AA@ 00475894     LIBCMTD:feoferr.obj
 0002:000078a4       ??_C@_1CI@HBNALCBB@?$AA?$CI?$AA?$CK?$AAm?$AAo?$AAd?$AAe?$AA?5?$AA?$CB?$AA?$DN?$AA?5?$AA_?$AAT?$AA?$CI?$AA?8?$AA?2?$AA0?$AA?8?$AA?$CJ?$AA?$CJ?$AA?$AA@ 004758a4     LIBCMTD:fopen.obj
 0002:000078cc       ??_C@_1BO@MJMKAKCJ@?$AA?$CI?$AAm?$AAo?$AAd?$AAe?$AA?5?$AA?$CB?$AA?$DN?$AA?5?$AAN?$AAU?$AAL?$AAL?$AA?$CJ?$AA?$AA@ 004758cc     LIBCMTD:fopen.obj
 0002:000078ec       ??_C@_1BA@HNEAFMNL@?$AA_?$AAf?$AAs?$AAo?$AAp?$AAe?$AAn?$AA?$AA@ 004758ec     LIBCMTD:fopen.obj
 0002:00007900       ??_C@_1FO@NCADDBOO@?$AAf?$AA?3?$AA?2?$AAd?$AAd?$AA?2?$AAv?$AAc?$AAt?$AAo?$AAo?$AAl?$AAs?$AA?2?$AAc?$AAr?$AAt?$AA_?$AAb?$AAl?$AAd?$AA?2?$AAs?$AAe?$AAl?$AAf?$AA_?$AAx?$AA8?$AA6?$AA?2?$AAc@ 00475900     LIBCMTD:fopen.obj
 0002:00007960       ??_C@_1BO@CLGIAEOJ@?$AA?$CI?$AAf?$AAi?$AAl?$AAe?$AA?5?$AA?$CB?$AA?$DN?$AA?5?$AAN?$AAU?$AAL?$AAL?$AA?$CJ?$AA?$AA@ 00475960     LIBCMTD:fopen.obj
 0002:00007980       ??_C@_1BA@PBGKCCAP@?$AAf?$AAo?$AAp?$AAe?$AAn?$AA_?$AAs?$AA?$AA@ 00475980     LIBCMTD:fopen.obj
 0002:00007990       ??_C@_1CA@LLJLFCDN@?$AA?$CI?$AAp?$AAf?$AAi?$AAl?$AAe?$AA?5?$AA?$CB?$AA?$DN?$AA?5?$AAN?$AAU?$AAL?$AAL?$AA?$CJ?$AA?$AA@ 00475990     LIBCMTD:fopen.obj
 0002:000079b0       ??_C@_1CM@DCGCAFIP@?$AA?$CI?$AA?$CI?$AAa?$AAm?$AAo?$AAd?$AAe?$AA?5?$AA?$CG?$AA?5?$AA?$CI?$AA?$HO?$AA6?$AA?$CJ?$AA?$CJ?$AA?5?$AA?$DN?$AA?$DN?$AA?5?$AA0?$AA?$CJ?$AA?$AA@ 004759b0     LIBCMTD:access.obj
 0002:000079dc       ??_C@_1BE@LKCFPEPG@?$AA_?$AAa?$AAc?$AAc?$AAe?$AAs?$AAs?$AA_?$AAs?$AA?$AA@ 004759dc     LIBCMTD:access.obj
 0002:000079f0       ??_C@_1GA@ELNKGBFA@?$AAf?$AA?3?$AA?2?$AAd?$AAd?$AA?2?$AAv?$AAc?$AAt?$AAo?$AAo?$AAl?$AAs?$AA?2?$AAc?$AAr?$AAt?$AA_?$AAb?$AAl?$AAd?$AA?2?$AAs?$AAe?$AAl?$AAf?$AA_?$AAx?$AA8?$AA6?$AA?2?$AAc@ 004759f0     LIBCMTD:access.obj
 0002:00007a50       ??_C@_1BO@DPAOGEII@?$AA?$CI?$AAp?$AAa?$AAt?$AAh?$AA?5?$AA?$CB?$AA?$DN?$AA?5?$AAN?$AAU?$AAL?$AAL?$AA?$CJ?$AA?$AA@ 00475a50     LIBCMTD:access.obj
 0002:00007a70       ??_C@_1O@GKDHFACN@?$AAp?$AAr?$AAi?$AAn?$AAt?$AAf?$AA?$AA@ 00475a70     LIBCMTD:printf.obj
 0002:00007a80       ??_C@_1GA@LHEGHOAF@?$AAf?$AA?3?$AA?2?$AAd?$AAd?$AA?2?$AAv?$AAc?$AAt?$AAo?$AAo?$AAl?$AAs?$AA?2?$AAc?$AAr?$AAt?$AA_?$AAb?$AAl?$AAd?$AA?2?$AAs?$AAe?$AAl?$AAf?$AA_?$AAx?$AA8?$AA6?$AA?2?$AAc@ 00475a80     LIBCMTD:printf.obj
 0002:00007ae0       ??_C@_17LGKOMLJ@?$AA?4?$AA?4?$AA?4?$AA?$AA@ 00475ae0     LIBCMTD:dbgrptw.obj
 0002:00007ae8       ??_C@_1CC@CGHMNGDG@?$AAA?$AAs?$AAs?$AAe?$AAr?$AAt?$AAi?$AAo?$AAn?$AA?5?$AAF?$AAa?$AAi?$AAl?$AAe?$AAd?$AA?$AA@ 00475ae8     LIBCMTD:dbgrptw.obj
 0002:00007b0c       ??_C@_1M@ILHOPKA@?$AAE?$AAr?$AAr?$AAo?$AAr?$AA?$AA@ 00475b0c     LIBCMTD:dbgrptw.obj
 0002:00007b18       ??_C@_1BA@GLMCNLEM@?$AAW?$AAa?$AAr?$AAn?$AAi?$AAn?$AAg?$AA?$AA@ 00475b18     LIBCMTD:dbgrptw.obj
 0002:00007b34       ??_C@_0DA@PCCBBBID@f?3?2dd?2vctools?2crt_bld?2self_x86?2c@ 00475b34     LIBCMTD:dbgrptw.obj
 0002:00007b68       ??_C@_1FI@PHIAFFHM@?$AA?$CI?$AA?$CC?$AAT?$AAh?$AAe?$AA?5?$AAh?$AAo?$AAo?$AAk?$AA?5?$AAf?$AAu?$AAn?$AAc?$AAt?$AAi?$AAo?$AAn?$AA?5?$AAi?$AAs?$AA?5?$AAn?$AAo?$AAt?$AA?5?$AAi?$AAn?$AA?5?$AAt?$AAh@ 00475b68     LIBCMTD:dbgrptw.obj
 0002:00007bc0       ??_C@_1CG@JBJEFOCM@?$AAp?$AAf?$AAn?$AAN?$AAe?$AAw?$AAH?$AAo?$AAo?$AAk?$AA?5?$AA?$CB?$AA?$DN?$AA?5?$AAN?$AAU?$AAL?$AAL?$AA?$AA@ 00475bc0     LIBCMTD:dbgrptw.obj
 0002:00007be8       ??_C@_1CI@IIHEAKEI@?$AA_?$AAC?$AAr?$AAt?$AAS?$AAe?$AAt?$AAR?$AAe?$AAp?$AAo?$AAr?$AAt?$AAH?$AAo?$AAo?$AAk?$AAW?$AA2?$AA?$AA@ 00475be8     LIBCMTD:dbgrptw.obj
 0002:00007c10       ??_C@_1GA@IBJGKIFE@?$AAf?$AA?3?$AA?2?$AAd?$AAd?$AA?2?$AAv?$AAc?$AAt?$AAo?$AAo?$AAl?$AAs?$AA?2?$AAc?$AAr?$AAt?$AA_?$AAb?$AAl?$AAd?$AA?2?$AAs?$AAe?$AAl?$AAf?$AA_?$AAx?$AA8?$AA6?$AA?2?$AAc@ 00475c10     LIBCMTD:dbgrptw.obj
 0002:00007c70       ??_C@_1HI@OFEHGPPC@?$AAm?$AAo?$AAd?$AAe?$AA?5?$AA?$DN?$AA?$DN?$AA?5?$AA_?$AAC?$AAR?$AAT?$AA_?$AAR?$AAP?$AAT?$AAH?$AAO?$AAO?$AAK?$AA_?$AAI?$AAN?$AAS?$AAT?$AAA?$AAL?$AAL?$AA?5?$AA?$HM?$AA?$HM?$AA?5@ 00475c70     LIBCMTD:dbgrptw.obj
 0002:00007ce8       ??_C@_1EG@PEOEAKBB@?$AAM?$AAi?$AAc?$AAr?$AAo?$AAs?$AAo?$AAf?$AAt?$AA?5?$AAV?$AAi?$AAs?$AAu?$AAa?$AAl?$AA?5?$AAC?$AA?$CL?$AA?$CL?$AA?5?$AAD?$AAe?$AAb?$AAu?$AAg?$AA?5?$AAL?$AAi?$AAb?$AAr?$AAa@ 00475ce8     LIBCMTD:dbgrptw.obj
 0002:00007d30       ??_C@_1FG@BBOLDHGF@?$AA_?$AAC?$AAr?$AAt?$AAD?$AAb?$AAg?$AAR?$AAe?$AAp?$AAo?$AAr?$AAt?$AA?3?$AA?5?$AAS?$AAt?$AAr?$AAi?$AAn?$AAg?$AA?5?$AAt?$AAo?$AAo?$AA?5?$AAl?$AAo?$AAn?$AAg?$AA?5?$AAo@ 00475d30     LIBCMTD:dbgrptw.obj
 0002:00007d88       ??_C@_1JI@EACPGHID@?$AAw?$AAc?$AAs?$AAc?$AAp?$AAy?$AA_?$AAs?$AA?$CI?$AAs?$AAz?$AAO?$AAu?$AAt?$AAM?$AAe?$AAs?$AAs?$AAa?$AAg?$AAe?$AA?0?$AA?5?$AA4?$AA0?$AA9?$AA6?$AA?0?$AA?5?$AAL?$AA?$CC?$AA_@ 00475d88     LIBCMTD:dbgrptw.obj
 0002:00007e20       ??_C@_1BI@KALLJECN@?$AA?$CI?$AA?$CK?$AA_?$AAe?$AAr?$AAr?$AAn?$AAo?$AA?$CI?$AA?$CJ?$AA?$CJ?$AA?$AA@ 00475e20     LIBCMTD:dbgrptw.obj
 0002:00007e38       ??_C@_1KK@MEFMPOLM@?$AAD?$AAe?$AAb?$AAu?$AAg?$AA?5?$AA?$CF?$AAs?$AA?$CB?$AA?6?$AA?6?$AAP?$AAr?$AAo?$AAg?$AAr?$AAa?$AAm?$AA?3?$AA?5?$AA?$CF?$AAs?$AA?$CF?$AAs?$AA?$CF?$AAs?$AA?$CF?$AAs?$AA?$CF?$AAs?$AA?$CF?$AAs@ 00475e38     LIBCMTD:dbgrptw.obj
 0002:00007ee4       ??_C@_1BE@CGCJKGHI@?$AA?6?$AAM?$AAo?$AAd?$AAu?$AAl?$AAe?$AA?3?$AA?5?$AA?$AA@ 00475ee4     LIBCMTD:dbgrptw.obj
 0002:00007ef8       ??_C@_1BA@LNHECFIM@?$AA?6?$AAF?$AAi?$AAl?$AAe?$AA?3?$AA?5?$AA?$AA@ 00475ef8     LIBCMTD:dbgrptw.obj
 0002:00007f08       ??_C@_1BA@GLLGCPCK@?$AA?6?$AAL?$AAi?$AAn?$AAe?$AA?3?$AA?5?$AA?$AA@ 00475f08     LIBCMTD:dbgrptw.obj
 0002:00007f18       ??_C@_15IABLJNFO@?$AA?6?$AA?6?$AA?$AA@ 00475f18     LIBCMTD:dbgrptw.obj
 0002:00007f20       ??_C@_1BK@PEDCIPMA@?$AAE?$AAx?$AAp?$AAr?$AAe?$AAs?$AAs?$AAi?$AAo?$AAn?$AA?3?$AA?5?$AA?$AA@ 00475f20     LIBCMTD:dbgrptw.obj
 0002:00007f3c       ??_C@_11LOCGONAA@?$AA?$AA@ 00475f3c     LIBCMTD:dbgrptw.obj
 0002:00007f40       ??_C@_1OG@PMPPFHAF@?$AA?6?$AA?6?$AAF?$AAo?$AAr?$AA?5?$AAi?$AAn?$AAf?$AAo?$AAr?$AAm?$AAa?$AAt?$AAi?$AAo?$AAn?$AA?5?$AAo?$AAn?$AA?5?$AAh?$AAo?$AAw?$AA?5?$AAy?$AAo?$AAu?$AAr?$AA?5?$AAp?$AAr@ 00475f40     LIBCMTD:dbgrptw.obj
 0002:00008028       ??_C@_1NO@LECLLHOL@?$AAm?$AAe?$AAm?$AAc?$AAp?$AAy?$AA_?$AAs?$AA?$CI?$AAs?$AAz?$AAS?$AAh?$AAo?$AAr?$AAt?$AAP?$AAr?$AAo?$AAg?$AAN?$AAa?$AAm?$AAe?$AA?0?$AA?5?$AAs?$AAi?$AAz?$AAe?$AAo?$AAf@ 00476028     LIBCMTD:dbgrptw.obj
 0002:00008108       ??_C@_1CO@EAEJAADC@?$AA?$DM?$AAp?$AAr?$AAo?$AAg?$AAr?$AAa?$AAm?$AA?5?$AAn?$AAa?$AAm?$AAe?$AA?5?$AAu?$AAn?$AAk?$AAn?$AAo?$AAw?$AAn?$AA?$DO?$AA?$AA@ 00476108     LIBCMTD:dbgrptw.obj
 0002:00008138       ??_C@_1GI@DEDNNLCI@?$AAw?$AAc?$AAs?$AAc?$AAp?$AAy?$AA_?$AAs?$AA?$CI?$AAs?$AAz?$AAE?$AAx?$AAe?$AAN?$AAa?$AAm?$AAe?$AA?0?$AA?5?$AA2?$AA6?$AA0?$AA?0?$AA?5?$AAL?$AA?$CC?$AA?$DM?$AAp?$AAr?$AAo?$AAg@ 00476138     LIBCMTD:dbgrptw.obj
 0002:000081a0       ??_C@_1CI@PGJIFDEK@?$AA_?$AA_?$AAc?$AAr?$AAt?$AAM?$AAe?$AAs?$AAs?$AAa?$AAg?$AAe?$AAW?$AAi?$AAn?$AAd?$AAo?$AAw?$AAW?$AA?$AA@ 004761a0     LIBCMTD:dbgrptw.obj
 0002:000081c8       ??_C@_1CK@DDKKOLAN@?$AAs?$AAi?$AAz?$AAe?$AAI?$AAn?$AAB?$AAy?$AAt?$AAe?$AAs?$AA?5?$AA?$DO?$AA?$DN?$AA?5?$AAc?$AAo?$AAu?$AAn?$AAt?$AA?$AA@ 004761c8     LIBCMTD:memcpy_s.obj
 0002:000081f4       ??_C@_1BI@DCHLDCPP@?$AAs?$AAr?$AAc?$AA?5?$AA?$CB?$AA?$DN?$AA?5?$AAN?$AAU?$AAL?$AAL?$AA?$AA@ 004761f4     LIBCMTD:memcpy_s.obj
 0002:0000820c       ??_C@_1BC@GKHDJMGB@?$AAm?$AAe?$AAm?$AAc?$AAp?$AAy?$AA_?$AAs?$AA?$AA@ 0047620c     LIBCMTD:memcpy_s.obj
 0002:00008220       ??_C@_1GE@NEOPGGBM@?$AAf?$AA?3?$AA?2?$AAd?$AAd?$AA?2?$AAv?$AAc?$AAt?$AAo?$AAo?$AAl?$AAs?$AA?2?$AAc?$AAr?$AAt?$AA_?$AAb?$AAl?$AAd?$AA?2?$AAs?$AAe?$AAl?$AAf?$AA_?$AAx?$AA8?$AA6?$AA?2?$AAc@ 00476220     LIBCMTD:memcpy_s.obj
 0002:00008284       ??_C@_1BI@GKKCBDMD@?$AAd?$AAs?$AAt?$AA?5?$AA?$CB?$AA?$DN?$AA?5?$AAN?$AAU?$AAL?$AAL?$AA?$AA@ 00476284     LIBCMTD:memcpy_s.obj
 0002:0000829c       ??_C@_1BE@NMKKBGPA@?$AAm?$AAe?$AAm?$AAm?$AAo?$AAv?$AAe?$AA_?$AAs?$AA?$AA@ 0047629c     LIBCMTD:memmove_s.obj
 0002:000082b0       ??_C@_1GG@JKNLCIHH@?$AAf?$AA?3?$AA?2?$AAd?$AAd?$AA?2?$AAv?$AAc?$AAt?$AAo?$AAo?$AAl?$AAs?$AA?2?$AAc?$AAr?$AAt?$AA_?$AAb?$AAl?$AAd?$AA?2?$AAs?$AAe?$AAl?$AAf?$AA_?$AAx?$AA8?$AA6?$AA?2?$AAc@ 004762b0     LIBCMTD:memmove_s.obj
 0002:00008318       ??_C@_1BAA@ODEGEDCK@?$AA?$CI?$AA?5?$AA?$CI?$AA_?$AAS?$AAt?$AAr?$AAe?$AAa?$AAm?$AA?9?$AA?$DO?$AA_?$AAf?$AAl?$AAa?$AAg?$AA?5?$AA?$CG?$AA?5?$AA_?$AAI?$AAO?$AAS?$AAT?$AAR?$AAG?$AA?$CJ?$AA?5?$AA?$HM?$AA?$HM?$AA?5@ 00476318     LIBCMTD:fprintf.obj
 0002:00008418       ??_C@_1BA@DNOHIGNM@?$AAf?$AAp?$AAr?$AAi?$AAn?$AAt?$AAf?$AA?$AA@ 00476418     LIBCMTD:fprintf.obj
 0002:00008428       ??_C@_1GC@NHJDDBOH@?$AAf?$AA?3?$AA?2?$AAd?$AAd?$AA?2?$AAv?$AAc?$AAt?$AAo?$AAo?$AAl?$AAs?$AA?2?$AAc?$AAr?$AAt?$AA_?$AAb?$AAl?$AAd?$AA?2?$AAs?$AAe?$AAl?$AAf?$AA_?$AAx?$AA8?$AA6?$AA?2?$AAc@ 00476428     LIBCMTD:fprintf.obj
 0002:0000848c       ??_C@_1CG@JEHFHLNG@?$AA_?$AAm?$AAb?$AAs?$AAt?$AAo?$AAw?$AAc?$AAs?$AA_?$AAl?$AA_?$AAh?$AAe?$AAl?$AAp?$AAe?$AAr?$AA?$AA@ 0047648c     LIBCMTD:mbstowcs.obj
 0002:000084b8       ??_C@_1GE@LCCDHBMH@?$AAf?$AA?3?$AA?2?$AAd?$AAd?$AA?2?$AAv?$AAc?$AAt?$AAo?$AAo?$AAl?$AAs?$AA?2?$AAc?$AAr?$AAt?$AA_?$AAb?$AAl?$AAd?$AA?2?$AAs?$AAe?$AAl?$AAf?$AA_?$AAx?$AA8?$AA6?$AA?2?$AAc@ 004764b8     LIBCMTD:mbstowcs.obj
 0002:0000851c       ??_C@_1BE@EEKACIGI@?$AAs?$AA?5?$AA?$CB?$AA?$DN?$AA?5?$AAN?$AAU?$AAL?$AAL?$AA?$AA@ 0047651c     LIBCMTD:mbstowcs.obj
 0002:00008530       ??_C@_1CO@JNPEPJAL@?$AAr?$AAe?$AAt?$AAs?$AAi?$AAz?$AAe?$AA?5?$AA?$DM?$AA?$DN?$AA?5?$AAs?$AAi?$AAz?$AAe?$AAI?$AAn?$AAW?$AAo?$AAr?$AAd?$AAs?$AA?$AA@ 00476530     LIBCMTD:mbstowcs.obj
 0002:00008560       ??_C@_1CM@LLECFMFH@?$AAb?$AAu?$AAf?$AAf?$AAe?$AAr?$AAS?$AAi?$AAz?$AAe?$AA?5?$AA?$DM?$AA?$DN?$AA?5?$AAI?$AAN?$AAT?$AA_?$AAM?$AAA?$AAX?$AA?$AA@ 00476560     LIBCMTD:mbstowcs.obj
 0002:0000858c       ??_C@_1BM@PHENIGHD@?$AA_?$AAm?$AAb?$AAs?$AAt?$AAo?$AAw?$AAc?$AAs?$AA_?$AAs?$AA_?$AAl?$AA?$AA@ 0047658c     LIBCMTD:mbstowcs.obj
 0002:000085a8       ??_C@_1JA@JKDFMOPO@?$AA?$CI?$AAp?$AAw?$AAc?$AAs?$AA?5?$AA?$DN?$AA?$DN?$AA?5?$AAN?$AAU?$AAL?$AAL?$AA?5?$AA?$CG?$AA?$CG?$AA?5?$AAs?$AAi?$AAz?$AAe?$AAI?$AAn?$AAW?$AAo?$AAr?$AAd?$AAs?$AA?5?$AA?$DN?$AA?$DN?$AA?5@ 004765a8     LIBCMTD:mbstowcs.obj
 0002:00008638       ??_C@_0P@MIGLKIOC@CorExitProcess?$AA@ 00476638     LIBCMTD:crt0dat.obj
 0002:00008648       ??_C@_1BI@BGOHAHKC@?$AAm?$AAs?$AAc?$AAo?$AAr?$AAe?$AAe?$AA?4?$AAd?$AAl?$AAl?$AA?$AA@ 00476648     LIBCMTD:crt0dat.obj
 0002:00008660       ??_C@_1CC@CDIPMFPD@?$AA_?$AAw?$AAp?$AAg?$AAm?$AAp?$AAt?$AAr?$AA?5?$AA?$CB?$AA?$DN?$AA?5?$AAN?$AAU?$AAL?$AAL?$AA?$AA@ 00476660     LIBCMTD:crt0dat.obj
 0002:00008684       ??_C@_1BK@PNLDCCDP@?$AA_?$AAg?$AAe?$AAt?$AA_?$AAw?$AAp?$AAg?$AAm?$AAp?$AAt?$AAr?$AA?$AA@ 00476684     LIBCMTD:crt0dat.obj
 0002:000086a0       ??_C@_1GC@DGCPEDNJ@?$AAf?$AA?3?$AA?2?$AAd?$AAd?$AA?2?$AAv?$AAc?$AAt?$AAo?$AAo?$AAl?$AAs?$AA?2?$AAc?$AAr?$AAt?$AA_?$AAb?$AAl?$AAd?$AA?2?$AAs?$AAe?$AAl?$AAf?$AA_?$AAx?$AA8?$AA6?$AA?2?$AAc@ 004766a0     LIBCMTD:crt0dat.obj
 0002:00008704       ??_C@_1BO@LKEBEKJP@?$AAp?$AAV?$AAa?$AAl?$AAu?$AAe?$AA?5?$AA?$CB?$AA?$DN?$AA?5?$AAN?$AAU?$AAL?$AAL?$AA?$AA@ 00476704     LIBCMTD:crt0dat.obj
 0002:00008724       ??_C@_1CA@BBNAFCKO@?$AA_?$AAp?$AAg?$AAm?$AAp?$AAt?$AAr?$AA?5?$AA?$CB?$AA?$DN?$AA?5?$AAN?$AAU?$AAL?$AAL?$AA?$AA@ 00476724     LIBCMTD:crt0dat.obj
 0002:00008744       ??_C@_1BI@COAAPHJK@?$AA_?$AAg?$AAe?$AAt?$AA_?$AAp?$AAg?$AAm?$AAp?$AAt?$AAr?$AA?$AA@ 00476744     LIBCMTD:crt0dat.obj
 0002:0000875c       ??_C@_1DE@MLEJGPLF@?$AA?$CI?$AAL?$AA?$CC?$AAI?$AAn?$AAv?$AAa?$AAl?$AAi?$AAd?$AA?5?$AAp?$AAa?$AAr?$AAa?$AAm?$AAe?$AAt?$AAe?$AAr?$AA?$CC?$AA?0?$AA?5?$AA0?$AA?$CJ?$AA?$AA@ 0047675c     LIBCMTD:splitpat.obj
 0002:00008790       ??_C@_1CE@DEGFKGOA@?$AA_?$AAs?$AAp?$AAl?$AAi?$AAt?$AAp?$AAa?$AAt?$AAh?$AA_?$AAh?$AAe?$AAl?$AAp?$AAe?$AAr?$AA?$AA@ 00476790     LIBCMTD:splitpat.obj
 0002:000087b8       ??_C@_1HA@GHKPFCBF@?$AAf?$AA?3?$AA?2?$AAd?$AAd?$AA?2?$AAv?$AAc?$AAt?$AAo?$AAo?$AAl?$AAs?$AA?2?$AAc?$AAr?$AAt?$AA_?$AAb?$AAl?$AAd?$AA?2?$AAs?$AAe?$AAl?$AAf?$AA_?$AAx?$AA8?$AA6?$AA?2?$AAc@ 004767b8     LIBCMTD:splitpat.obj
 0002:00008828       ??_C@_1CI@MLPLHPBP@?$AA?$CI?$AA?$CI?$AA?$CI?$AA_?$AAP?$AAa?$AAt?$AAh?$AA?$CJ?$AA?$CJ?$AA?$CJ?$AA?5?$AA?$CB?$AA?$DN?$AA?5?$AAN?$AAU?$AAL?$AAL?$AA?$AA@ 00476828     LIBCMTD:splitpat.obj
 0002:00008850       ??_C@_1CA@EHPEFHFN@?$AA?$CI?$AA?5?$AAs?$AAt?$AAr?$AA?5?$AA?$CB?$AA?$DN?$AA?5?$AAN?$AAU?$AAL?$AAL?$AA?5?$AA?$CJ?$AA?$AA@ 00476850     LIBCMTD:fgets.obj
 0002:00008870       ??_C@_1BO@CLMMCNLO@?$AA?$CI?$AA?5?$AAc?$AAo?$AAu?$AAn?$AAt?$AA?5?$AA?$DO?$AA?$DN?$AA?5?$AA0?$AA?5?$AA?$CJ?$AA?$AA@ 00476870     LIBCMTD:fgets.obj
 0002:00008890       ??_C@_1M@BEMABAL@?$AAf?$AAg?$AAe?$AAt?$AAs?$AA?$AA@ 00476890     LIBCMTD:fgets.obj
 0002:000088a0       ??_C@_1FO@FKDDHLBI@?$AAf?$AA?3?$AA?2?$AAd?$AAd?$AA?2?$AAv?$AAc?$AAt?$AAo?$AAo?$AAl?$AAs?$AA?2?$AAc?$AAr?$AAt?$AA_?$AAb?$AAl?$AAd?$AA?2?$AAs?$AAe?$AAl?$AAf?$AA_?$AAx?$AA8?$AA6?$AA?2?$AAc@ 004768a0     LIBCMTD:fgets.obj
 0002:00008900       ??_C@_1EK@KICPAPCG@?$AA?$CI?$AA?5?$AAs?$AAt?$AAr?$AAi?$AAn?$AAg?$AA?5?$AA?$CB?$AA?$DN?$AA?5?$AAN?$AAU?$AAL?$AAL?$AA?5?$AA?$CJ?$AA?5?$AA?$HM?$AA?$HM?$AA?5?$AA?$CI?$AA?5?$AAc?$AAo?$AAu?$AAn?$AAt?$AA?5?$AA?$DN?$AA?$DN@ 00476900     LIBCMTD:fgets.obj
 0002:00008950       ??_C@_1FE@CEHLKAHD@?$AAi?$AAb?$AAa?$AAs?$AAe?$AA?5?$AA?$DN?$AA?$DN?$AA?5?$AA0?$AA?5?$AA?$HM?$AA?$HM?$AA?5?$AA?$CI?$AA2?$AA?5?$AA?$DM?$AA?$DN?$AA?5?$AAi?$AAb?$AAa?$AAs?$AAe?$AA?5?$AA?$CG?$AA?$CG?$AA?5?$AAi?$AAb?$AAa@ 00476950     LIBCMTD:strtol.obj
 0002:000089a4       ??_C@_1BA@LOLAMAJG@?$AAs?$AAt?$AAr?$AAt?$AAo?$AAx?$AAl?$AA?$AA@ 004769a4     LIBCMTD:strtol.obj
 0002:000089b8       ??_C@_1GA@IPHKKOEI@?$AAf?$AA?3?$AA?2?$AAd?$AAd?$AA?2?$AAv?$AAc?$AAt?$AAo?$AAo?$AAl?$AAs?$AA?2?$AAc?$AAr?$AAt?$AA_?$AAb?$AAl?$AAd?$AA?2?$AAs?$AAe?$AAl?$AAf?$AA_?$AAx?$AA8?$AA6?$AA?2?$AAc@ 004769b8     LIBCMTD:strtol.obj
 0002:00008a18       ??_C@_1BK@LAOAACLJ@?$AAn?$AAp?$AAt?$AAr?$AA?5?$AA?$CB?$AA?$DN?$AA?5?$AAN?$AAU?$AAL?$AAL?$AA?$AA@ 00476a18     LIBCMTD:strtol.obj
 0002:00008a38       ??_C@_1IO@PMHBOLJK@?$AA?$CI?$AA?$CI?$AAw?$AAh?$AAe?$AAn?$AAc?$AAe?$AA?5?$AA?$DN?$AA?$DN?$AA?5?$AAS?$AAE?$AAE?$AAK?$AA_?$AAS?$AAE?$AAT?$AA?$CJ?$AA?5?$AA?$HM?$AA?$HM?$AA?5?$AA?$CI?$AAw?$AAh?$AAe?$AAn?$AAc?$AAe@ 00476a38     LIBCMTD:fseek.obj
 0002:00008ac8       ??_C@_1M@HCCOIONH@?$AAf?$AAs?$AAe?$AAe?$AAk?$AA?$AA@ 00476ac8     LIBCMTD:fseek.obj
 0002:00008ad8       ??_C@_1FO@ECBPAICH@?$AAf?$AA?3?$AA?2?$AAd?$AAd?$AA?2?$AAv?$AAc?$AAt?$AAo?$AAo?$AAl?$AAs?$AA?2?$AAc?$AAr?$AAt?$AA_?$AAb?$AAl?$AAd?$AA?2?$AAs?$AAe?$AAl?$AAf?$AA_?$AAx?$AA8?$AA6?$AA?2?$AAc@ 00476ad8     LIBCMTD:fseek.obj
 0002:00008b38       ??_C@_0DA@HMCPFNKN@f?3?2dd?2vctools?2crt_bld?2self_x86?2c@ 00476b38     LIBCMTD:onexit.obj
 0002:00008b68       ??_C@_06PJIGMIJB@Client?$AA@ 00476b68     LIBCMTD:dbgheap.obj
 0002:00008b70       ??_C@_06KMEJCCGM@Ignore?$AA@ 00476b70     LIBCMTD:dbgheap.obj
 0002:00008b78       ??_C@_03OGPFLFLO@CRT?$AA@  00476b78     LIBCMTD:dbgheap.obj
 0002:00008b7c       ??_C@_06EFAGIKOH@Normal?$AA@ 00476b7c     LIBCMTD:dbgheap.obj
 0002:00008b84       ??_C@_04HJMOFLDF@Free?$AA@ 00476b84     LIBCMTD:dbgheap.obj
 0002:00008ba0       ??_C@_0DC@JEMAGEKG@Error?3?5memory?5allocation?3?5bad?5me@ 00476ba0     LIBCMTD:dbgheap.obj
 0002:00008bd4       ??_C@_0CF@BICKFLAF@Invalid?5allocation?5size?3?5?$CFIu?5byt@ 00476bd4     LIBCMTD:dbgheap.obj
 0002:00008bfc       ??_C@_02DKCKIIND@?$CFs?$AA@ 00476bfc     LIBCMTD:dbgheap.obj
 0002:00008c00       ??_C@_0CB@CCLOLAHO@Client?5hook?5allocation?5failure?4?6@ 00476c00     LIBCMTD:dbgheap.obj
 0002:00008c24       ??_C@_0DF@BBEGIFEK@Client?5hook?5allocation?5failure?5a@ 00476c24     LIBCMTD:dbgheap.obj
 0002:00008c60       ??_C@_1GC@DNJKKEAA@?$AAf?$AA?3?$AA?2?$AAd?$AAd?$AA?2?$AAv?$AAc?$AAt?$AAo?$AAo?$AAl?$AAs?$AA?2?$AAc?$AAr?$AAt?$AA_?$AAb?$AAl?$AAd?$AA?2?$AAs?$AAe?$AAl?$AAf?$AA_?$AAx?$AA8?$AA6?$AA?2?$AAc@ 00476c60     LIBCMTD:dbgheap.obj
 0002:00008cc4       ??_C@_1CE@LJFEPPMP@?$AA_?$AAC?$AAr?$AAt?$AAC?$AAh?$AAe?$AAc?$AAk?$AAM?$AAe?$AAm?$AAo?$AAr?$AAy?$AA?$CI?$AA?$CJ?$AA?$AA@ 00476cc4     LIBCMTD:dbgheap.obj
 0002:00008ce8       ??_C@_1CC@CKBDKDFF@?$AA_?$AAc?$AAa?$AAl?$AAl?$AAo?$AAc?$AA_?$AAd?$AAb?$AAg?$AA_?$AAi?$AAm?$AAp?$AAl?$AA?$AA@ 00476ce8     LIBCMTD:dbgheap.obj
 0002:00008d0c       ??_C@_1DO@MEOGCGBN@?$AA?$CI?$AA_?$AAH?$AAE?$AAA?$AAP?$AA_?$AAM?$AAA?$AAX?$AAR?$AAE?$AAQ?$AA?5?$AA?1?$AA?5?$AAn?$AAN?$AAu?$AAm?$AA?$CJ?$AA?5?$AA?$DO?$AA?$DN?$AA?5?$AAn?$AAS?$AAi?$AAz?$AAe?$AA?$AA@ 00476d0c     LIBCMTD:dbgheap.obj
 0002:00008d4c       ??_C@_1DE@KOOKLFBB@?$AA_?$AAp?$AAF?$AAi?$AAr?$AAs?$AAt?$AAB?$AAl?$AAo?$AAc?$AAk?$AA?5?$AA?$DN?$AA?$DN?$AA?5?$AAp?$AAO?$AAl?$AAd?$AAB?$AAl?$AAo?$AAc?$AAk?$AA?$AA@ 00476d4c     LIBCMTD:dbgheap.obj
 0002:00008d80       ??_C@_1DC@GEFKNOOL@?$AA_?$AAp?$AAL?$AAa?$AAs?$AAt?$AAB?$AAl?$AAo?$AAc?$AAk?$AA?5?$AA?$DN?$AA?$DN?$AA?5?$AAp?$AAO?$AAl?$AAd?$AAB?$AAl?$AAo?$AAc?$AAk?$AA?$AA@ 00476d80     LIBCMTD:dbgheap.obj
 0002:00008db8       ??_C@_1GE@PCKLOLAO@?$AAf?$AAR?$AAe?$AAa?$AAl?$AAl?$AAo?$AAc?$AA?5?$AA?$HM?$AA?$HM?$AA?5?$AA?$CI?$AA?$CB?$AAf?$AAR?$AAe?$AAa?$AAl?$AAl?$AAo?$AAc?$AA?5?$AA?$CG?$AA?$CG?$AA?5?$AAp?$AAN?$AAe?$AAw?$AAB?$AAl@ 00476db8     LIBCMTD:dbgheap.obj
 0002:00008e1c       ??_C@_0DA@HFBKENN@Error?3?5possible?5heap?5corruption?5@ 00476e1c     LIBCMTD:dbgheap.obj
 0002:00008e50       ??_C@_1IK@DCPKDGNH@?$AAp?$AAO?$AAl?$AAd?$AAB?$AAl?$AAo?$AAc?$AAk?$AA?9?$AA?$DO?$AAn?$AAL?$AAi?$AAn?$AAe?$AA?5?$AA?$DN?$AA?$DN?$AA?5?$AAI?$AAG?$AAN?$AAO?$AAR?$AAE?$AA_?$AAL?$AAI?$AAN?$AAE?$AA?5@ 00476e50     LIBCMTD:dbgheap.obj
 0002:00008ee0       ??_C@_1EE@GFOPCECE@?$AA_?$AAC?$AAr?$AAt?$AAI?$AAs?$AAV?$AAa?$AAl?$AAi?$AAd?$AAH?$AAe?$AAa?$AAp?$AAP?$AAo?$AAi?$AAn?$AAt?$AAe?$AAr?$AA?$CI?$AAp?$AAU?$AAs?$AAe?$AAr?$AAD?$AAa?$AAt?$AAa@ 00476ee0     LIBCMTD:dbgheap.obj
 0002:00008f28       ??_C@_0EM@LGFLMAGJ@The?5Block?5at?50x?$CFp?5was?5allocated?5@ 00476f28     LIBCMTD:dbgheap.obj
 0002:00008f78       ??_C@_0FA@EFEIGJKG@Error?3?5memory?5allocation?3?5bad?5me@ 00476f78     LIBCMTD:dbgheap.obj
 0002:00008fc8       ??_C@_0ED@GPCPBAGP@Invalid?5allocation?5size?3?5?$CFIu?5byt@ 00476fc8     LIBCMTD:dbgheap.obj
 0002:0000900c       ??_C@_0CE@DOFMDOL@Client?5hook?5re?9allocation?5failur@ 0047700c     LIBCMTD:dbgheap.obj
 0002:00009030       ??_C@_0DI@KKJPDPGM@Client?5hook?5re?9allocation?5failur@ 00477030     LIBCMTD:dbgheap.obj
 0002:00009068       ??_C@_1BM@OKFKJCEN@?$AA_?$AAr?$AAe?$AAc?$AAa?$AAl?$AAl?$AAo?$AAc?$AA_?$AAd?$AAb?$AAg?$AA?$AA@ 00477068     LIBCMTD:dbgheap.obj
 0002:00009084       ??_C@_1DO@GOKJCEHJ@?$AA?$CI?$AA_?$AAH?$AAE?$AAA?$AAP?$AA_?$AAM?$AAA?$AAX?$AAR?$AAE?$AAQ?$AA?5?$AA?1?$AA?5?$AAc?$AAo?$AAu?$AAn?$AAt?$AA?$CJ?$AA?5?$AA?$DO?$AA?$DN?$AA?5?$AAs?$AAi?$AAz?$AAe?$AA?$AA@ 00477084     LIBCMTD:dbgheap.obj
 0002:000090c4       ??_C@_1BI@HAPNGHDP@?$AA_?$AAe?$AAx?$AAp?$AAa?$AAn?$AAd?$AA_?$AAd?$AAb?$AAg?$AA?$AA@ 004770c4     LIBCMTD:dbgheap.obj
 0002:000090dc       ??_C@_1CE@CJACEFBA@?$AAp?$AAU?$AAs?$AAe?$AAr?$AAD?$AAa?$AAt?$AAa?$AA?5?$AA?$CB?$AA?$DN?$AA?5?$AAN?$AAU?$AAL?$AAL?$AA?$AA@ 004770dc     LIBCMTD:dbgheap.obj
 0002:00009100       ??_C@_1CM@MMAADDMD@?$AA_?$AAp?$AAF?$AAi?$AAr?$AAs?$AAt?$AAB?$AAl?$AAo?$AAc?$AAk?$AA?5?$AA?$DN?$AA?$DN?$AA?5?$AAp?$AAH?$AAe?$AAa?$AAd?$AA?$AA@ 00477100     LIBCMTD:dbgheap.obj
 0002:0000912c       ??_C@_1CK@DMAGEMBG@?$AA_?$AAp?$AAL?$AAa?$AAs?$AAt?$AAB?$AAl?$AAo?$AAc?$AAk?$AA?5?$AA?$DN?$AA?$DN?$AA?5?$AAp?$AAH?$AAe?$AAa?$AAd?$AA?$AA@ 0047712c     LIBCMTD:dbgheap.obj
 0002:00009158       ??_C@_1DM@ODCJIDCP@?$AAp?$AAH?$AAe?$AAa?$AAd?$AA?9?$AA?$DO?$AAn?$AAB?$AAl?$AAo?$AAc?$AAk?$AAU?$AAs?$AAe?$AA?5?$AA?$DN?$AA?$DN?$AA?5?$AAn?$AAB?$AAl?$AAo?$AAc?$AAk?$AAU?$AAs?$AAe?$AA?$AA@ 00477158     LIBCMTD:dbgheap.obj
 0002:00009198       ??_C@_1HK@HPCBMDFG@?$AAp?$AAH?$AAe?$AAa?$AAd?$AA?9?$AA?$DO?$AAn?$AAL?$AAi?$AAn?$AAe?$AA?5?$AA?$DN?$AA?$DN?$AA?5?$AAI?$AAG?$AAN?$AAO?$AAR?$AAE?$AA_?$AAL?$AAI?$AAN?$AAE?$AA?5?$AA?$CG?$AA?$CG?$AA?5?$AAp@ 00477198     LIBCMTD:dbgheap.obj
 0002:00009218       ??_C@_0IG@LEMBDCJK@HEAP?5CORRUPTION?5DETECTED?3?5after?5@ 00477218     LIBCMTD:dbgheap.obj
 0002:000092a0       ??_C@_0KE@MBMNHHHN@HEAP?5CORRUPTION?5DETECTED?3?5after?5@ 004772a0     LIBCMTD:dbgheap.obj
 0002:00009348       ??_C@_0IK@PJCGLBOB@HEAP?5CORRUPTION?5DETECTED?3?5before@ 00477348     LIBCMTD:dbgheap.obj
 0002:000093d8       ??_C@_0KI@JGFOHMEB@HEAP?5CORRUPTION?5DETECTED?3?5before@ 004773d8     LIBCMTD:dbgheap.obj
 0002:00009480       ??_C@_0BL@KEIPLFAC@Client?5hook?5free?5failure?4?6?$AA@ 00477480     LIBCMTD:dbgheap.obj
 0002:000094a0       ??_C@_0EJ@HEIBCIMJ@The?5Block?5at?50x?$CFp?5was?5allocated?5@ 004774a0     LIBCMTD:dbgheap.obj
 0002:000094ec       ??_C@_1BG@MBKOGDLD@?$AA_?$AAm?$AAs?$AAi?$AAz?$AAe?$AA_?$AAd?$AAb?$AAg?$AA?$AA@ 004774ec     LIBCMTD:dbgheap.obj
 0002:00009504       ??_C@_0CI@JMLBEDHJ@?$CFhs?5located?5at?50x?$CFp?5is?5?$CFIu?5bytes@ 00477504     LIBCMTD:dbgheap.obj
 0002:00009530       ??_C@_0EG@DGJMPDBH@?$CFhs?5located?5at?50x?$CFp?5is?5?$CFIu?5bytes@ 00477530     LIBCMTD:dbgheap.obj
 0002:00009578       ??_C@_0IC@BBJIOOJH@HEAP?5CORRUPTION?5DETECTED?3?5on?5top@ 00477578     LIBCMTD:dbgheap.obj
 0002:00009600       ??_C@_0KA@IHNJJKPL@HEAP?5CORRUPTION?5DETECTED?3?5on?5top@ 00477600     LIBCMTD:dbgheap.obj
 0002:000096a0       ??_C@_07OHKEFPKJ@DAMAGED?$AA@ 004776a0     LIBCMTD:dbgheap.obj
 0002:000096a8       ??_C@_0CL@HNNNMKMJ@_heapchk?5fails?5with?5unknown?5retu@ 004776a8     LIBCMTD:dbgheap.obj
 0002:000096d4       ??_C@_0CC@MFFCHFHO@_heapchk?5fails?5with?5_HEAPBADPTR?4@ 004776d4     LIBCMTD:dbgheap.obj
 0002:000096f8       ??_C@_0CC@MJGLGBDG@_heapchk?5fails?5with?5_HEAPBADEND?4@ 004776f8     LIBCMTD:dbgheap.obj
 0002:0000971c       ??_C@_0CD@CPKEAPBD@_heapchk?5fails?5with?5_HEAPBADNODE@ 0047771c     LIBCMTD:dbgheap.obj
 0002:00009740       ??_C@_0CE@MKKHMBMK@_heapchk?5fails?5with?5_HEAPBADBEGI@ 00477740     LIBCMTD:dbgheap.obj
 0002:00009764       ??_C@_1BO@GJFDNMNF@?$AA_?$AAC?$AAr?$AAt?$AAS?$AAe?$AAt?$AAD?$AAb?$AAg?$AAF?$AAl?$AAa?$AAg?$AA?$AA@ 00477764     LIBCMTD:dbgheap.obj
 0002:00009788       ??_C@_1BHO@NNANJNF@?$AA?$CI?$AAf?$AAN?$AAe?$AAw?$AAB?$AAi?$AAt?$AAs?$AA?$DN?$AA?$DN?$AA_?$AAC?$AAR?$AAT?$AAD?$AAB?$AAG?$AA_?$AAR?$AAE?$AAP?$AAO?$AAR?$AAT?$AA_?$AAF?$AAL?$AAA?$AAG?$AA?$CJ?$AA?5@ 00477788     LIBCMTD:dbgheap.obj
 0002:00009908       ??_C@_1DE@GJCKCKEC@?$AA_?$AAC?$AAr?$AAt?$AAD?$AAo?$AAF?$AAo?$AAr?$AAA?$AAl?$AAl?$AAC?$AAl?$AAi?$AAe?$AAn?$AAt?$AAO?$AAb?$AAj?$AAe?$AAc?$AAt?$AAs?$AA?$AA@ 00477908     LIBCMTD:dbgheap.obj
 0002:0000993c       ??_C@_1BI@CJGCEEDL@?$AAp?$AAf?$AAn?$AA?5?$AA?$CB?$AA?$DN?$AA?5?$AAN?$AAU?$AAL?$AAL?$AA?$AA@ 0047793c     LIBCMTD:dbgheap.obj
 0002:00009954       ??_C@_0CB@EAAIGELO@Bad?5memory?5block?5found?5at?50x?$CFp?4?6@ 00477954     LIBCMTD:dbgheap.obj
 0002:00009978       ??_C@_0DP@LEFMFBOD@Bad?5memory?5block?5found?5at?50x?$CFp?4?6@ 00477978     LIBCMTD:dbgheap.obj
 0002:000099b8       ??_C@_1CE@NJJKELF@?$AA_?$AAC?$AAr?$AAt?$AAM?$AAe?$AAm?$AAC?$AAh?$AAe?$AAc?$AAk?$AAp?$AAo?$AAi?$AAn?$AAt?$AA?$AA@ 004779b8     LIBCMTD:dbgheap.obj
 0002:000099dc       ??_C@_1BM@MIMANDHC@?$AAs?$AAt?$AAa?$AAt?$AAe?$AA?5?$AA?$CB?$AA?$DN?$AA?5?$AAN?$AAU?$AAL?$AAL?$AA?$AA@ 004779dc     LIBCMTD:dbgheap.obj
 0002:000099f8       ??_C@_1CC@DFPEDFBP@?$AAn?$AAe?$AAw?$AAS?$AAt?$AAa?$AAt?$AAe?$AA?5?$AA?$CB?$AA?$DN?$AA?5?$AAN?$AAU?$AAL?$AAL?$AA?$AA@ 004779f8     LIBCMTD:dbgheap.obj
 0002:00009a1c       ??_C@_1CC@DHPFEMMN@?$AAo?$AAl?$AAd?$AAS?$AAt?$AAa?$AAt?$AAe?$AA?5?$AA?$CB?$AA?$DN?$AA?5?$AAN?$AAU?$AAL?$AAL?$AA?$AA@ 00477a1c     LIBCMTD:dbgheap.obj
 0002:00009a40       ??_C@_1CE@PDIENACM@?$AA_?$AAC?$AAr?$AAt?$AAM?$AAe?$AAm?$AAD?$AAi?$AAf?$AAf?$AAe?$AAr?$AAe?$AAn?$AAc?$AAe?$AA?$AA@ 00477a40     LIBCMTD:dbgheap.obj
 0002:00009a64       ??_C@_0BH@GFGKJDCO@Object?5dump?5complete?4?6?$AA@ 00477a64     LIBCMTD:dbgheap.obj
 0002:00009a7c       ??_C@_0DA@MDLBNIBM@crt?5block?5at?50x?$CFp?0?5subtype?5?$CFx?0?5?$CF@ 00477a7c     LIBCMTD:dbgheap.obj
 0002:00009aac       ??_C@_0CH@FAGDDGPN@normal?5block?5at?50x?$CFp?0?5?$CFIu?5bytes?5@ 00477aac     LIBCMTD:dbgheap.obj
 0002:00009ad4       ??_C@_0DD@GHNAAKBB@client?5block?5at?50x?$CFp?0?5subtype?5?$CFx@ 00477ad4     LIBCMTD:dbgheap.obj
 0002:00009b08       ??_C@_06PKLGBFGM@?$HL?$CFld?$HN?5?$AA@ 00477b08     LIBCMTD:dbgheap.obj
 0002:00009b10       ??_C@_0L@JMEFFCCJ@?$CFhs?$CI?$CFd?$CJ?5?3?5?$AA@ 00477b10     LIBCMTD:dbgheap.obj
 0002:00009b1c       ??_C@_0BE@OIEFNFL@?$CDFile?5Error?$CD?$CI?$CFd?$CJ?5?3?5?$AA@ 00477b1c     LIBCMTD:dbgheap.obj
 0002:00009b30       ??_C@_0BE@KCIPKCIA@Dumping?5objects?5?9?$DO?6?$AA@ 00477b30     LIBCMTD:dbgheap.obj
 0002:00009b44       ??_C@_0BA@HJBKCELP@?5Data?3?5?$DM?$CFs?$DO?5?$CFs?6?$AA@ 00477b44     LIBCMTD:dbgheap.obj
 0002:00009b54       ??_C@_1CG@LPFIACGM@?$AA_?$AAp?$AAr?$AAi?$AAn?$AAt?$AAM?$AAe?$AAm?$AAB?$AAl?$AAo?$AAc?$AAk?$AAD?$AAa?$AAt?$AAa?$AA?$AA@ 00477b54     LIBCMTD:dbgheap.obj
 0002:00009b7c       ??_C@_05MKKEDADM@?$CF?42X?5?$AA@ 00477b7c     LIBCMTD:dbgheap.obj
 0002:00009b84       ??_C@_0BI@JBFPOEJA@Detected?5memory?5leaks?$CB?6?$AA@ 00477b84     LIBCMTD:dbgheap.obj
 0002:00009b9c       ??_C@_0BP@DEDHGGGI@Total?5allocations?3?5?$CFId?5bytes?4?6?$AA@ 00477b9c     LIBCMTD:dbgheap.obj
 0002:00009bbc       ??_C@_0CB@BLHDAFNE@Largest?5number?5used?3?5?$CFId?5bytes?4?6@ 00477bbc     LIBCMTD:dbgheap.obj
 0002:00009be0       ??_C@_0BO@DACNIABB@?$CFId?5bytes?5in?5?$CFId?5?$CFhs?5Blocks?4?6?$AA@ 00477be0     LIBCMTD:dbgheap.obj
 0002:00009c00       ??_C@_1CM@MPNIBKGK@?$AA_?$AAC?$AAr?$AAt?$AAM?$AAe?$AAm?$AAD?$AAu?$AAm?$AAp?$AAS?$AAt?$AAa?$AAt?$AAi?$AAs?$AAt?$AAi?$AAc?$AAs?$AA?$AA@ 00477c00     LIBCMTD:dbgheap.obj
 0002:00009c2c       ??_C@_1DK@LFLKFPDA@?$AAo?$AAf?$AAf?$AAs?$AAe?$AAt?$AA?5?$AA?$DN?$AA?$DN?$AA?5?$AA0?$AA?5?$AA?$HM?$AA?$HM?$AA?5?$AAo?$AAf?$AAf?$AAs?$AAe?$AAt?$AA?5?$AA?$DM?$AA?5?$AAs?$AAi?$AAz?$AAe?$AA?$AA@ 00477c2c     LIBCMTD:dbgheap.obj
 0002:00009c68       ??_C@_1DG@DONCJBBJ@?$AA_?$AAa?$AAl?$AAi?$AAg?$AAn?$AAe?$AAd?$AA_?$AAo?$AAf?$AAf?$AAs?$AAe?$AAt?$AA_?$AAm?$AAa?$AAl?$AAl?$AAo?$AAc?$AA_?$AAd?$AAb?$AAg?$AA?$AA@ 00477c68     LIBCMTD:dbgheap.obj
 0002:00009ca0       ??_C@_1CE@NPMGPNNP@?$AAI?$AAS?$AA_?$AA2?$AA_?$AAP?$AAO?$AAW?$AA_?$AAN?$AA?$CI?$AAa?$AAl?$AAi?$AAg?$AAn?$AA?$CJ?$AA?$AA@ 00477ca0     LIBCMTD:dbgheap.obj
 0002:00009cc4       ??_C@_1DI@NINIKFFK@?$AA_?$AAa?$AAl?$AAi?$AAg?$AAn?$AAe?$AAd?$AA_?$AAo?$AAf?$AAf?$AAs?$AAe?$AAt?$AA_?$AAr?$AAe?$AAa?$AAl?$AAl?$AAo?$AAc?$AA_?$AAd?$AAb?$AAg?$AA?$AA@ 00477cc4     LIBCMTD:dbgheap.obj
 0002:00009cfc       ??_C@_0DL@PGHMMKNE@Damage?5before?50x?$CFp?5which?5was?5all@ 00477cfc     LIBCMTD:dbgheap.obj
 0002:00009d38       ??_C@_0EI@NDNJMAJK@The?5block?5at?50x?$CFp?5was?5not?5alloca@ 00477d38     LIBCMTD:dbgheap.obj
 0002:00009d80       ??_C@_1DK@MMLHIFFH@?$AA_?$AAa?$AAl?$AAi?$AAg?$AAn?$AAe?$AAd?$AA_?$AAo?$AAf?$AAf?$AAs?$AAe?$AAt?$AA_?$AAr?$AAe?$AAc?$AAa?$AAl?$AAl?$AAo?$AAc?$AA_?$AAd?$AAb?$AAg?$AA?$AA@ 00477d80     LIBCMTD:dbgheap.obj
 0002:00009dc0       ??_C@_0EF@PGELACII@The?5block?5at?50x?$CFp?5was?5not?5alloca@ 00477dc0     LIBCMTD:dbgheap.obj
 0002:00009e08       ??_C@_1CG@CEGMHIMN@?$AA_?$AAa?$AAl?$AAi?$AAg?$AAn?$AAe?$AAd?$AA_?$AAm?$AAs?$AAi?$AAz?$AAe?$AA_?$AAd?$AAb?$AAg?$AA?$AA@ 00477e08     LIBCMTD:dbgheap.obj
 0002:00009e30       ??_C@_1CC@MOBIKHH@?$AAm?$AAe?$AAm?$AAb?$AAl?$AAo?$AAc?$AAk?$AA?5?$AA?$CB?$AA?$DN?$AA?5?$AAN?$AAU?$AAL?$AAL?$AA?$AA@ 00477e30     LIBCMTD:dbgheap.obj
 0002:00009e54       ??_C@_1M@LIIFKKLB@?$AAf?$AAp?$AAu?$AAt?$AAs?$AA?$AA@ 00477e54     LIBCMTD:fputs.obj
 0002:00009e60       ??_C@_1FO@FFFEAAEI@?$AAf?$AA?3?$AA?2?$AAd?$AAd?$AA?2?$AAv?$AAc?$AAt?$AAo?$AAo?$AAl?$AAs?$AA?2?$AAc?$AAr?$AAt?$AA_?$AAb?$AAl?$AAd?$AA?2?$AAs?$AAe?$AAl?$AAf?$AA_?$AAx?$AA8?$AA6?$AA?2?$AAc@ 00477e60     LIBCMTD:fputs.obj
 0002:00009ec0       ??_C@_1HO@MLMGPAFH@?$AA?$CI?$AA?$CC?$AAi?$AAn?$AAc?$AAo?$AAn?$AAs?$AAi?$AAs?$AAt?$AAe?$AAn?$AAt?$AA?5?$AAI?$AAO?$AAB?$AA?5?$AAf?$AAi?$AAe?$AAl?$AAd?$AAs?$AA?$CC?$AA?0?$AA?5?$AAs?$AAt?$AAr?$AAe@ 00477ec0     LIBCMTD:_flsbuf.obj
 0002:00009f40       ??_C@_1GC@GNCCMPNN@?$AAf?$AA?3?$AA?2?$AAd?$AAd?$AA?2?$AAv?$AAc?$AAt?$AAo?$AAo?$AAl?$AAs?$AA?2?$AAc?$AAr?$AAt?$AA_?$AAb?$AAl?$AAd?$AA?2?$AAs?$AAe?$AAl?$AAf?$AA_?$AAx?$AA8?$AA6?$AA?2?$AAc@ 00477f40     LIBCMTD:_flsbuf.obj
 0002:00009fa4       ??_C@_1BI@MFCLPIBM@?$AAs?$AAt?$AAr?$AA?5?$AA?$CB?$AA?$DN?$AA?5?$AAN?$AAU?$AAL?$AAL?$AA?$AA@ 00477fa4     LIBCMTD:_flsbuf.obj
 0002:00009fbc       ??_C@_1O@CEDCILHN@?$AA?$CI?$AAn?$AAu?$AAl?$AAl?$AA?$CJ?$AA?$AA@ 00477fbc     LIBCMTD:output.obj
 0002:00009fcc       ??_C@_06OJHGLDPL@?$CInull?$CJ?$AA@ 00477fcc     LIBCMTD:output.obj
 0002:00009fd8       ___lookuptable             00477fd8     LIBCMTD:output.obj
 0002:0000a034       ??_C@_0DA@NFBEBPEE@f?3?2dd?2vctools?2crt_bld?2self_x86?2c@ 00478034     LIBCMTD:output.obj
 0002:0000a068       ??_C@_1EK@PNGFDECN@?$AA?$CI?$AA?$CC?$AA?8?$AAn?$AA?8?$AA?5?$AAf?$AAo?$AAr?$AAm?$AAa?$AAt?$AA?5?$AAs?$AAp?$AAe?$AAc?$AAi?$AAf?$AAi?$AAe?$AAr?$AA?5?$AAd?$AAi?$AAs?$AAa?$AAb?$AAl?$AAe?$AAd?$AA?$CC@ 00478068     LIBCMTD:output.obj
 0002:0000a0b4       ??_C@_1CC@IFFHEMNF@?$AA?$CI?$AAc?$AAh?$AA?5?$AA?$CB?$AA?$DN?$AA?5?$AA_?$AAT?$AA?$CI?$AA?8?$AA?2?$AA0?$AA?8?$AA?$CJ?$AA?$CJ?$AA?$AA@ 004780b4     LIBCMTD:output.obj
 0002:0000a0d8       ??_C@_1BE@IONLIDNC@?$AA_?$AAo?$AAu?$AAt?$AAp?$AAu?$AAt?$AA_?$AAl?$AA?$AA@ 004780d8     LIBCMTD:output.obj
 0002:0000a0f0       ??_C@_1GA@HHFOFBLN@?$AAf?$AA?3?$AA?2?$AAd?$AAd?$AA?2?$AAv?$AAc?$AAt?$AAo?$AAo?$AAl?$AAs?$AA?2?$AAc?$AAr?$AAt?$AA_?$AAb?$AAl?$AAd?$AA?2?$AAs?$AAe?$AAl?$AAf?$AA_?$AAx?$AA8?$AA6?$AA?2?$AAc@ 004780f0     LIBCMTD:output.obj
 0002:0000a150       ??_C@_1BG@KCMPBBDK@?$AA_?$AAg?$AAe?$AAt?$AA_?$AAe?$AAr?$AAr?$AAn?$AAo?$AA?$AA@ 00478150     LIBCMTD:dosmap.obj
 0002:0000a168       ??_C@_1GA@MFGIMPNL@?$AAf?$AA?3?$AA?2?$AAd?$AAd?$AA?2?$AAv?$AAc?$AAt?$AAo?$AAo?$AAl?$AAs?$AA?2?$AAc?$AAr?$AAt?$AA_?$AAb?$AAl?$AAd?$AA?2?$AAs?$AAe?$AAl?$AAf?$AA_?$AAx?$AA8?$AA6?$AA?2?$AAc@ 00478168     LIBCMTD:dosmap.obj
 0002:0000a1c8       ??_C@_1BM@INIPHHDD@?$AA_?$AAg?$AAe?$AAt?$AA_?$AAd?$AAo?$AAs?$AAe?$AAr?$AAr?$AAn?$AAo?$AA?$AA@ 004781c8     LIBCMTD:dosmap.obj
 0002:0000a1e4       ??_C@_1BI@IGILPKD@?$AA_?$AAv?$AAs?$AAp?$AAr?$AAi?$AAn?$AAt?$AAf?$AA_?$AAl?$AA?$AA@ 004781e4     LIBCMTD:vsprintf.obj
 0002:0000a1fc       ??_C@_1CE@HMKDJHB@?$AA_?$AAv?$AAs?$AAc?$AAp?$AAr?$AAi?$AAn?$AAt?$AAf?$AA_?$AAh?$AAe?$AAl?$AAp?$AAe?$AAr?$AA?$AA@ 004781fc     LIBCMTD:vsprintf.obj
 0002:0000a220       ??_C@_1CE@PCFPEIFI@?$AA_?$AAv?$AAs?$AAn?$AAp?$AAr?$AAi?$AAn?$AAt?$AAf?$AA_?$AAh?$AAe?$AAl?$AAp?$AAe?$AAr?$AA?$AA@ 00478220     LIBCMTD:vsnprnc.obj
 0002:0000a244       ??_C@_1DA@HPBFKMEB@?$AA?$CI?$AA?$CC?$AAB?$AAu?$AAf?$AAf?$AAe?$AAr?$AA?5?$AAt?$AAo?$AAo?$AA?5?$AAs?$AAm?$AAa?$AAl?$AAl?$AA?$CC?$AA?0?$AA?5?$AA0?$AA?$CJ?$AA?$AA@ 00478244     LIBCMTD:vsnprnc.obj
 0002:0000a278       ??_C@_1EE@OKCKIGFK@?$AAs?$AAt?$AAr?$AAi?$AAn?$AAg?$AA?5?$AA?$CB?$AA?$DN?$AA?5?$AAN?$AAU?$AAL?$AAL?$AA?5?$AA?$CG?$AA?$CG?$AA?5?$AAs?$AAi?$AAz?$AAe?$AAI?$AAn?$AAB?$AAy?$AAt?$AAe?$AAs?$AA?5?$AA?$DO?$AA?5@ 00478278     LIBCMTD:vsnprnc.obj
 0002:0000a2bc       ??_C@_1BM@BLJALHEF@?$AA_?$AAv?$AAs?$AAp?$AAr?$AAi?$AAn?$AAt?$AAf?$AA_?$AAs?$AA_?$AAl?$AA?$AA@ 004782bc     LIBCMTD:vsnprnc.obj
 0002:0000a2d8       ??_C@_1BO@MLMCMBKN@?$AAf?$AAo?$AAr?$AAm?$AAa?$AAt?$AA?5?$AA?$CB?$AA?$DN?$AA?5?$AAN?$AAU?$AAL?$AAL?$AA?$AA@ 004782d8     LIBCMTD:vsnprnc.obj
 0002:0000a2f8       ??_C@_1BO@MMPELNIM@?$AA_?$AAv?$AAs?$AAn?$AAp?$AAr?$AAi?$AAn?$AAt?$AAf?$AA_?$AAs?$AA_?$AAl?$AA?$AA@ 004782f8     LIBCMTD:vsnprnc.obj
 0002:0000a320       ??_C@_0O@NLDKAIKN@EncodePointer?$AA@ 00478320     LIBCMTD:tidtable.obj
 0002:0000a330       ??_C@_1BK@DBDEIDLH@?$AAK?$AAE?$AAR?$AAN?$AAE?$AAL?$AA3?$AA2?$AA?4?$AAD?$AAL?$AAL?$AA?$AA@ 00478330     LIBCMTD:tidtable.obj
 0002:0000a34c       ??_C@_0O@KBPMFGHI@DecodePointer?$AA@ 0047834c     LIBCMTD:tidtable.obj
 0002:0000a35c       ??_C@_0DC@LMJHGCKC@f?3?2dd?2vctools?2crt_bld?2self_x86?2c@ 0047835c     LIBCMTD:tidtable.obj
 0002:0000a390       ??_C@_07PEJMOBNF@FlsFree?$AA@ 00478390     LIBCMTD:tidtable.obj
 0002:0000a398       ??_C@_0M@JCPCPOEF@FlsSetValue?$AA@ 00478398     LIBCMTD:tidtable.obj
 0002:0000a3a4       ??_C@_0M@GDNOONDI@FlsGetValue?$AA@ 004783a4     LIBCMTD:tidtable.obj
 0002:0000a3b0       ??_C@_08KNHFBNJ@FlsAlloc?$AA@ 004783b0     LIBCMTD:tidtable.obj
 0002:0000a3bc       ??_C@_1BC@MJNBEDIJ@?$AA_?$AAi?$AAn?$AAp?$AAu?$AAt?$AA_?$AAl?$AA?$AA@ 004783bc     LIBCMTD:input.obj
 0002:0000a3d0       ??_C@_1FO@LDDBLKJ@?$AAf?$AA?3?$AA?2?$AAd?$AAd?$AA?2?$AAv?$AAc?$AAt?$AAo?$AAo?$AAl?$AAs?$AA?2?$AAc?$AAr?$AAt?$AA_?$AAb?$AAl?$AAd?$AA?2?$AAs?$AAe?$AAl?$AAf?$AA_?$AAx?$AA8?$AA6?$AA?2?$AAc@ 004783d0     LIBCMTD:input.obj
 0002:0000a430       ??_C@_0CP@MMGCGBFO@f?3?2dd?2vctools?2crt_bld?2self_x86?2c@ 00478430     LIBCMTD:input.obj
 0002:0000a460       ??_C@_1DO@MBOKMJPK@?$AAn?$AAF?$AAl?$AAo?$AAa?$AAt?$AAS?$AAt?$AAr?$AAU?$AAs?$AAe?$AAd?$AA?$DM?$AA?$DN?$AA?$CI?$AA?$CK?$AAp?$AAn?$AAF?$AAl?$AAo?$AAa?$AAt?$AAS?$AAt?$AAr?$AAS?$AAz?$AA?$CJ?$AA?$AA@ 00478460     LIBCMTD:input.obj
 0002:0000a4a0       ??_C@_1DG@MPPGJOHD@?$AA?$CI?$AA?$CC?$AAI?$AAn?$AAv?$AAa?$AAl?$AAi?$AAd?$AA?5?$AAI?$AAn?$AAp?$AAu?$AAt?$AA?5?$AAF?$AAo?$AAr?$AAm?$AAa?$AAt?$AA?$CC?$AA?0?$AA0?$AA?$CJ?$AA?$AA@ 004784a0     LIBCMTD:inputs.obj
 0002:0000a4d8       ??_C@_1BG@LBKFJFHM@?$AA_?$AAi?$AAn?$AAp?$AAu?$AAt?$AA_?$AAs?$AA_?$AAl?$AA?$AA@ 004784d8     LIBCMTD:inputs.obj
 0002:0000a4f0       ??_C@_1HG@KNCBMCDD@?$AAf?$AA?3?$AA?2?$AAd?$AAd?$AA?2?$AAv?$AAc?$AAt?$AAo?$AAo?$AAl?$AAs?$AA?2?$AAc?$AAr?$AAt?$AA_?$AAb?$AAl?$AAd?$AA?2?$AAs?$AAe?$AAl?$AAf?$AA_?$AAx?$AA8?$AA6?$AA?2?$AAc@ 004784f0     LIBCMTD:typname.obj
 0002:0000a568       ??_C@_1CI@IDCGDBOP@?$AAp?$AAN?$AAo?$AAd?$AAe?$AA?9?$AA?$DO?$AAn?$AAe?$AAx?$AAt?$AA?5?$AA?$CB?$AA?$DN?$AA?5?$AAN?$AAU?$AAL?$AAL?$AA?$AA@ 00478568     LIBCMTD:typname.obj
 0002:0000a590       ??_C@_1JK@MLBKHELP@?$AAs?$AAt?$AAr?$AAc?$AAp?$AAy?$AA_?$AAs?$AA?5?$AA?$CI?$AA?$CI?$AAc?$AAh?$AAa?$AAr?$AA?5?$AA?$CK?$AA?$CJ?$AA?$CI?$AA?$CI?$AAt?$AAy?$AAp?$AAe?$AA_?$AAi?$AAn?$AAf?$AAo?$AA?5?$AA?$CK?$AA?$CJ@ 00478590     LIBCMTD:typname.obj
 0002:0000a62c       ??_C@_1CM@OOICDMK@?$AAt?$AAy?$AAp?$AAe?$AA_?$AAi?$AAn?$AAf?$AAo?$AA?3?$AA?3?$AA_?$AAN?$AAa?$AAm?$AAe?$AA_?$AAb?$AAa?$AAs?$AAe?$AA?$AA@ 0047862c     LIBCMTD:typname.obj
 0002:0000a658       ??_C@_1GI@EAJKJPED@?$AAs?$AAt?$AAr?$AAc?$AAp?$AAy?$AA_?$AAs?$AA?5?$AA?$CI?$AAp?$AAT?$AAm?$AAp?$AAT?$AAy?$AAp?$AAe?$AAN?$AAa?$AAm?$AAe?$AA?0?$AA?5?$AAl?$AAe?$AAn?$AA?$CL?$AA2?$AA?0?$AA?5?$AA?$CI@ 00478658     LIBCMTD:typname.obj
 0002:0000a6c0       ??_C@_1DO@OJJLFJPE@?$AAt?$AAy?$AAp?$AAe?$AA_?$AAi?$AAn?$AAf?$AAo?$AA?3?$AA?3?$AA_?$AAN?$AAa?$AAm?$AAe?$AA_?$AAb?$AAa?$AAs?$AAe?$AA_?$AAi?$AAn?$AAt?$AAe?$AAr?$AAn?$AAa?$AAl?$AA?$AA@ 004786c0     LIBCMTD:typname.obj
 0002:0000a700       ??_C@_1DM@MADKGDLO@?$AA?$CI?$AAL?$AA?$CC?$AAB?$AAu?$AAf?$AAf?$AAe?$AAr?$AA?5?$AAi?$AAs?$AA?5?$AAt?$AAo?$AAo?$AA?5?$AAs?$AAm?$AAa?$AAl?$AAl?$AA?$CC?$AA?5?$AA?$CG?$AA?$CG?$AA?5?$AA0?$AA?$CJ?$AA?$AA@ 00478700     LIBCMTD:strcpy_s.obj
 0002:0000a73c       ??_C@_1CI@HCPHDDLE@?$AAB?$AAu?$AAf?$AAf?$AAe?$AAr?$AA?5?$AAi?$AAs?$AA?5?$AAt?$AAo?$AAo?$AA?5?$AAs?$AAm?$AAa?$AAl?$AAl?$AA?$AA@ 0047873c     LIBCMTD:strcpy_s.obj
 0002:0000a764       ??_C@_1CG@OFBJMIGJ@?$AA?$CI?$AA?$CI?$AA?$CI?$AA_?$AAS?$AAr?$AAc?$AA?$CJ?$AA?$CJ?$AA?$CJ?$AA?5?$AA?$CB?$AA?$DN?$AA?5?$AAN?$AAU?$AAL?$AAL?$AA?$AA@ 00478764     LIBCMTD:strcpy_s.obj
 0002:0000a78c       ??_C@_1BC@CFJEPFGF@?$AAs?$AAt?$AAr?$AAc?$AAp?$AAy?$AA_?$AAs?$AA?$AA@ 0047878c     LIBCMTD:strcpy_s.obj
 0002:0000a7a0       ??_C@_1GI@BGBNCIMA@?$AAf?$AA?3?$AA?2?$AAd?$AAd?$AA?2?$AAv?$AAc?$AAt?$AAo?$AAo?$AAl?$AAs?$AA?2?$AAc?$AAr?$AAt?$AA_?$AAb?$AAl?$AAd?$AA?2?$AAs?$AAe?$AAl?$AAf?$AA_?$AAx?$AA8?$AA6?$AA?2?$AAc@ 004787a0     LIBCMTD:strcpy_s.obj
 0002:0000a808       ??_C@_1FC@NCPEPIBI@?$AA?$CI?$AA?$CI?$AA_?$AAD?$AAs?$AAt?$AA?$CJ?$AA?$CJ?$AA?5?$AA?$CB?$AA?$DN?$AA?5?$AAN?$AAU?$AAL?$AAL?$AA?5?$AA?$CG?$AA?$CG?$AA?5?$AA?$CI?$AA?$CI?$AA_?$AAS?$AAi?$AAz?$AAe?$AAI?$AAn?$AAB?$AAy?$AAt@ 00478808     LIBCMTD:strcpy_s.obj
 0002:0000a85c       ??_C@_0CP@MKONOLCI@f?3?2dd?2vctools?2crt_bld?2self_x86?2c@ 0047885c     LIBCMTD:mlock.obj
 0002:0000a88c       ??_C@_1BA@BMMDEPNE@?$AAs?$AAt?$AAr?$AAt?$AAo?$AAx?$AAq?$AA?$AA@ 0047888c     LIBCMTD:strtoq.obj
 0002:0000a8a0       ??_C@_1GA@GIMEIKLC@?$AAf?$AA?3?$AA?2?$AAd?$AAd?$AA?2?$AAv?$AAc?$AAt?$AAo?$AAo?$AAl?$AAs?$AA?2?$AAc?$AAr?$AAt?$AA_?$AAb?$AAl?$AAd?$AA?2?$AAs?$AAe?$AAl?$AAf?$AA_?$AAx?$AA8?$AA6?$AA?2?$AAc@ 004788a0     LIBCMTD:strtoq.obj
 0002:0000a900       ??_C@_1GE@MIMBMOF@?$AAf?$AA?3?$AA?2?$AAd?$AAd?$AA?2?$AAv?$AAc?$AAt?$AAo?$AAo?$AAl?$AAs?$AA?2?$AAc?$AAr?$AAt?$AA_?$AAb?$AAl?$AAd?$AA?2?$AAs?$AAe?$AAl?$AAf?$AA_?$AAx?$AA8?$AA6?$AA?2?$AAc@ 00478900     LIBCMTD:_freebuf.obj
 0002:0000a964       ??_C@_1BO@KIJENGPH@?$AAs?$AAt?$AAr?$AAe?$AAa?$AAm?$AA?5?$AA?$CB?$AA?$DN?$AA?5?$AAN?$AAU?$AAL?$AAL?$AA?$AA@ 00478964     LIBCMTD:_freebuf.obj
 0002:0000a984       ??_C@_0DA@NBLAKPEL@f?3?2dd?2vctools?2crt_bld?2self_x86?2c@ 00478984     LIBCMTD:ioinit.obj
 0002:0000a9b4       ??_C@_0DA@NLPACBPK@f?3?2dd?2vctools?2crt_bld?2self_x86?2c@ 004789b4     LIBCMTD:stream.obj
 0002:0000e338       __DEFAULT_CW_in_mem        0047c338     LIBCMTD:_common_.obj
 0002:0000e33a       __pi_by_2_to_61            0047c33a     LIBCMTD:_common_.obj
 0002:0000e378       __real@4000000000000000    0047c378     LIBCMTD:_powhlp_.obj
 0002:0000e380       ??_C@_1GE@KOCFNGPB@?$AA_?$AAc?$AAo?$AAn?$AAt?$AAr?$AAo?$AAl?$AAf?$AAp?$AA_?$AAs?$AA?$CI?$AA?$CI?$AA?$CI?$AAv?$AAo?$AAi?$AAd?$AA?5?$AA?$CK?$AA?$CJ?$AA0?$AA?$CJ?$AA?0?$AA?5?$AA0?$AAx?$AA0?$AA0?$AA0?$AA1@ 0047c380     LIBCMTD:fp8.obj
 0002:0000e3e4       ??_C@_1CK@JMKHCBEI@?$AA_?$AAs?$AAe?$AAt?$AAd?$AAe?$AAf?$AAa?$AAu?$AAl?$AAt?$AAp?$AAr?$AAe?$AAc?$AAi?$AAs?$AAi?$AAo?$AAn?$AA?$AA@ 0047c3e4     LIBCMTD:fp8.obj
 0002:0000e410       ??_C@_1GG@PHGJJHBC@?$AAf?$AA?3?$AA?2?$AAd?$AAd?$AA?2?$AAv?$AAc?$AAt?$AAo?$AAo?$AAl?$AAs?$AA?2?$AAc?$AAr?$AAt?$AA_?$AAb?$AAl?$AAd?$AA?2?$AAs?$AAe?$AAl?$AAf?$AA_?$AAx?$AA8?$AA6?$AA?2?$AAc@ 0047c410     LIBCMTD:fp8.obj
 0002:0000e478       __real@4150017ec0000000    0047c478     LIBCMTD:_testfdiv_.obj
 0002:0000e480       __real@4147ffff80000000    0047c480     LIBCMTD:_testfdiv_.obj
 0002:0000e488       ??_C@_0BK@NHEOCAHP@IsProcessorFeaturePresent?$AA@ 0047c488     LIBCMTD:_testfdiv_.obj
 0002:0000e4a4       ??_C@_08CPNIBGIE@KERNEL32?$AA@ 0047c4a4     LIBCMTD:_testfdiv_.obj
 0002:0000e4b0       ??_C@_1CA@CBMNPEO@?$AAs?$AAi?$AAz?$AAe?$AAI?$AAn?$AAB?$AAy?$AAt?$AAe?$AAs?$AA?5?$AA?$DO?$AA?5?$AA0?$AA?$AA@ 0047c4b0     LIBCMTD:cvt.obj
 0002:0000e4d0       ??_C@_1BC@INKAPMHI@?$AA_?$AAc?$AAf?$AAt?$AAo?$AAe?$AA_?$AAl?$AA?$AA@ 0047c4d0     LIBCMTD:cvt.obj
 0002:0000e4e8       ??_C@_1GO@NCCGBNKI@?$AAf?$AA?3?$AA?2?$AAd?$AAd?$AA?2?$AAv?$AAc?$AAt?$AAo?$AAo?$AAl?$AAs?$AA?2?$AAc?$AAr?$AAt?$AA_?$AAb?$AAl?$AAd?$AA?2?$AAs?$AAe?$AAl?$AAf?$AA_?$AAx?$AA8?$AA6?$AA?2?$AAc@ 0047c4e8     LIBCMTD:cvt.obj
 0002:0000e558       ??_C@_1BI@ICGGMGLK@?$AAb?$AAu?$AAf?$AA?5?$AA?$CB?$AA?$DN?$AA?5?$AAN?$AAU?$AAL?$AAL?$AA?$AA@ 0047c558     LIBCMTD:cvt.obj
 0002:0000e570       ??_C@_05KLBDPFGC@e?$CL000?$AA@ 0047c570     LIBCMTD:cvt.obj
 0002:0000e578       ??_C@_1LE@EOIFGNCJ@?$AAs?$AAt?$AAr?$AAc?$AAp?$AAy?$AA_?$AAs?$AA?$CI?$AAp?$AA?0?$AA?5?$AA?$CI?$AAs?$AAi?$AAz?$AAe?$AAI?$AAn?$AAB?$AAy?$AAt?$AAe?$AAs?$AA?5?$AA?$DN?$AA?$DN?$AA?5?$AA?$CI?$AAs?$AAi?$AAz@ 0047c578     LIBCMTD:cvt.obj
 0002:0000e630       ??_C@_1HE@NACBNDPP@?$AAs?$AAi?$AAz?$AAe?$AAI?$AAn?$AAB?$AAy?$AAt?$AAe?$AAs?$AA?5?$AA?$DO?$AA?5?$AA?$CI?$AAs?$AAi?$AAz?$AAe?$AA_?$AAt?$AA?$CJ?$AA?$CI?$AA3?$AA?5?$AA?$CL?$AA?5?$AA?$CI?$AAn?$AAd?$AAe?$AAc@ 0047c630     LIBCMTD:cvt.obj
 0002:0000e6a4       ??_C@_1BE@OLBNEILL@?$AA_?$AAc?$AAf?$AAt?$AAo?$AAe?$AA2?$AA_?$AAl?$AA?$AA@ 0047c6a4     LIBCMTD:cvt.obj
 0002:0000e6b8       ??_C@_1FC@IKIMAMJB@?$AAs?$AAi?$AAz?$AAe?$AAI?$AAn?$AAB?$AAy?$AAt?$AAe?$AAs?$AA?5?$AA?$DO?$AA?5?$AA?$CI?$AAs?$AAi?$AAz?$AAe?$AA_?$AAt?$AA?$CJ?$AA?$CI?$AA1?$AA?5?$AA?$CL?$AA?5?$AA4?$AA?5?$AA?$CL?$AA?5?$AAn@ 0047c6b8     LIBCMTD:cvt.obj
 0002:0000e70c       ??_C@_1BC@JOKPCIC@?$AA_?$AAc?$AAf?$AAt?$AAo?$AAa?$AA_?$AAl?$AA?$AA@ 0047c70c     LIBCMTD:cvt.obj
 0002:0000e720       ??_C@_1BC@DCPPLJL@?$AA_?$AAc?$AAf?$AAt?$AAo?$AAf?$AA_?$AAl?$AA?$AA@ 0047c720     LIBCMTD:cvt.obj
 0002:0000e734       ??_C@_1BE@CKPDLI@?$AA_?$AAc?$AAf?$AAt?$AAo?$AAf?$AA2?$AA_?$AAl?$AA?$AA@ 0047c734     LIBCMTD:cvt.obj
 0002:0000e748       ??_C@_1BC@MPIFPLAF@?$AA_?$AAc?$AAf?$AAt?$AAo?$AAg?$AA_?$AAl?$AA?$AA@ 0047c748     LIBCMTD:cvt.obj
 0002:0000e7c8       ??_C@_03IIINPABG@tan?$AA@  0047c7c8     LIBCMTD:_libm_error_.obj
 0002:0000e7cc       ??_C@_03LALBNOCG@cos?$AA@  0047c7cc     LIBCMTD:_libm_error_.obj
 0002:0000e7d0       ??_C@_03BLEJJJBH@sin?$AA@  0047c7d0     LIBCMTD:_libm_error_.obj
 0002:0000e7d4       ??_C@_04EHEDPDJG@modf?$AA@ 0047c7d4     LIBCMTD:_libm_error_.obj
 0002:0000e7dc       ??_C@_05PBJFFIGL@floor?$AA@ 0047c7dc     LIBCMTD:_libm_error_.obj
 0002:0000e7e4       ??_C@_04GFPJNGEK@ceil?$AA@ 0047c7e4     LIBCMTD:_libm_error_.obj
 0002:0000e7ec       ??_C@_04MLLJIGOK@atan?$AA@ 0047c7ec     LIBCMTD:_libm_error_.obj
 0002:0000e7f4       ??_C@_05EOHGHCHD@exp10?$AA@ 0047c7f4     LIBCMTD:_libm_error_.obj
 0002:0000e7fc       ??_C@_04PDIFKINK@acos?$AA@ 0047c7fc     LIBCMTD:_libm_error_.obj
 0002:0000e804       ??_C@_04FIHNOPOL@asin?$AA@ 0047c804     LIBCMTD:_libm_error_.obj
 0002:0000e80c       ??_C@_03JGHBODFD@pow?$AA@  0047c80c     LIBCMTD:_libm_error_.obj
 0002:0000e810       ??_C@_03KHJOGHMM@exp?$AA@  0047c810     LIBCMTD:_libm_error_.obj
 0002:0000e814       ??_C@_05HGHHAHAP@log10?$AA@ 0047c814     LIBCMTD:_libm_error_.obj
 0002:0000e81c       ??_C@_03MGHMBJCF@log?$AA@  0047c81c     LIBCMTD:_libm_error_.obj
 0002:0000e820       ??_C@_0L@KDOEJCKC@_nextafter?$AA@ 0047c820     LIBCMTD:_fpexcept_.obj
 0002:0000e82c       ??_C@_05JGDBENOH@_logb?$AA@ 0047c82c     LIBCMTD:_fpexcept_.obj
 0002:0000e834       ??_C@_03ONILCKOB@_yn?$AA@  0047c834     LIBCMTD:_fpexcept_.obj
 0002:0000e838       ??_C@_03NAKIGLHK@_y1?$AA@  0047c838     LIBCMTD:_fpexcept_.obj
 0002:0000e83c       ??_C@_03MJLDFKDL@_y0?$AA@  0047c83c     LIBCMTD:_fpexcept_.obj
 0002:0000e840       ??_C@_05GKKHEGJL@frexp?$AA@ 0047c840     LIBCMTD:_fpexcept_.obj
 0002:0000e848       ??_C@_04KEPJIHGP@fmod?$AA@ 0047c848     LIBCMTD:_fpexcept_.obj
 0002:0000e850       ??_C@_06MEIMCGCF@_hypot?$AA@ 0047c850     LIBCMTD:_fpexcept_.obj
 0002:0000e858       ??_C@_05KBKMEMPO@_cabs?$AA@ 0047c858     LIBCMTD:_fpexcept_.obj
 0002:0000e860       ??_C@_05CEJMAHNP@ldexp?$AA@ 0047c860     LIBCMTD:_fpexcept_.obj
 0002:0000e868       ??_C@_04ODHECPBC@fabs?$AA@ 0047c868     LIBCMTD:_fpexcept_.obj
 0002:0000e870       ??_C@_04EIAKFFMI@sqrt?$AA@ 0047c870     LIBCMTD:_fpexcept_.obj
 0002:0000e878       ??_C@_05KNGEOGJB@atan2?$AA@ 0047c878     LIBCMTD:_fpexcept_.obj
 0002:0000e880       ??_C@_04FJHINJAO@tanh?$AA@ 0047c880     LIBCMTD:_fpexcept_.obj
 0002:0000e888       ??_C@_04HPJJNFIM@cosh?$AA@ 0047c888     LIBCMTD:_fpexcept_.obj
 0002:0000e890       ??_C@_04COOMCNPB@sinh?$AA@ 0047c890     LIBCMTD:_fpexcept_.obj
 0002:0000e898       ??_C@_13NOLLCAOD@?$AA?$AA?$AA?$AA@ 0047c898     LIBCMTD:a_map.obj
 0002:0000e8a0       ??_C@_1GA@INJGGEBC@?$AAf?$AA?3?$AA?2?$AAd?$AAd?$AA?2?$AAv?$AAc?$AAt?$AAo?$AAo?$AAl?$AAs?$AA?2?$AAc?$AAr?$AAt?$AA_?$AAb?$AAl?$AAd?$AA?2?$AAs?$AAe?$AAl?$AAf?$AA_?$AAx?$AA8?$AA6?$AA?2?$AAc@ 0047c8a0     LIBCMTD:a_map.obj
 0002:0000e900       ??_C@_1FE@KNPCCODH@?$AA?$CI?$AA?$CC?$AAC?$AAo?$AAr?$AAr?$AAu?$AAp?$AAt?$AAe?$AAd?$AA?5?$AAp?$AAo?$AAi?$AAn?$AAt?$AAe?$AAr?$AA?5?$AAp?$AAa?$AAs?$AAs?$AAe?$AAd?$AA?5?$AAt?$AAo?$AA?5?$AA_?$AAf@ 0047c900     LIBCMTD:a_map.obj
 0002:0000e958       ??_C@_1GC@CHGJNMHG@?$AAf?$AA?3?$AA?2?$AAd?$AAd?$AA?2?$AAv?$AAc?$AAt?$AAo?$AAo?$AAl?$AAs?$AA?2?$AAc?$AAr?$AAt?$AA_?$AAb?$AAl?$AAd?$AA?2?$AAs?$AAe?$AAl?$AAf?$AA_?$AAx?$AA8?$AA6?$AA?2?$AAc@ 0047c958     LIBCMTD:isctype.obj
 0002:0000e9bc       ??_C@_1DC@BPLPALML@?$AA?$CI?$AAu?$AAn?$AAs?$AAi?$AAg?$AAn?$AAe?$AAd?$AA?$CJ?$AA?$CI?$AAc?$AA?5?$AA?$CL?$AA?5?$AA1?$AA?$CJ?$AA?5?$AA?$DM?$AA?$DN?$AA?5?$AA2?$AA5?$AA6?$AA?$AA@ 0047c9bc     LIBCMTD:isctype.obj
 0002:0000e9f0       ??_C@_0DB@MHMEONEC@f?3?2dd?2vctools?2crt_bld?2self_x86?2c@ 0047c9f0     LIBCMTD:mbctype.obj
 0002:0000ea24       ??_C@_07LCBHPJJN@LC_TIME?$AA@ 0047ca24     LIBCMTD:setlocal.obj
 0002:0000ea2c       ??_C@_0L@DLHIECNL@LC_NUMERIC?$AA@ 0047ca2c     LIBCMTD:setlocal.obj
 0002:0000ea38       ??_C@_0M@MIENIKLA@LC_MONETARY?$AA@ 0047ca38     LIBCMTD:setlocal.obj
 0002:0000ea44       ??_C@_08EADHIDAD@LC_CTYPE?$AA@ 0047ca44     LIBCMTD:setlocal.obj
 0002:0000ea50       ??_C@_0L@KFJHEKIK@LC_COLLATE?$AA@ 0047ca50     LIBCMTD:setlocal.obj
 0002:0000ea5c       ??_C@_06NEFDFEKB@LC_ALL?$AA@ 0047ca5c     LIBCMTD:setlocal.obj
 0002:0000ea68       ___lc_category             0047ca68     LIBCMTD:setlocal.obj
 0002:0000eb30       ??_C@_1GE@OLEIGPBJ@?$AAf?$AA?3?$AA?2?$AAd?$AAd?$AA?2?$AAv?$AAc?$AAt?$AAo?$AAo?$AAl?$AAs?$AA?2?$AAc?$AAr?$AAt?$AA_?$AAb?$AAl?$AAd?$AA?2?$AAs?$AAe?$AAl?$AAf?$AA_?$AAx?$AA8?$AA6?$AA?2?$AAc@ 0047cb30     LIBCMTD:setlocal.obj
 0002:0000eb98       ??_C@_1BKC@GGIENNAK@?$AA?$CI?$AA?$CI?$AAp?$AAt?$AAl?$AAo?$AAc?$AAi?$AA?9?$AA?$DO?$AAl?$AAc?$AA_?$AAc?$AAa?$AAt?$AAe?$AAg?$AAo?$AAr?$AAy?$AA?$FL?$AAc?$AAa?$AAt?$AAe?$AAg?$AAo?$AAr?$AAy?$AA?$FN?$AA?4@ 0047cb98     LIBCMTD:setlocal.obj
 0002:0000ed3c       ??_C@_1CI@FGIONOJM@?$AA_?$AAc?$AAo?$AAn?$AAf?$AAi?$AAg?$AAt?$AAh?$AAr?$AAe?$AAa?$AAd?$AAl?$AAo?$AAc?$AAa?$AAl?$AAe?$AA?$AA@ 0047cd3c     LIBCMTD:setlocal.obj
 0002:0000ed68       ??_C@_1GA@LDEGDKD@?$AA?$CI?$AA?$CC?$AAI?$AAn?$AAv?$AAa?$AAl?$AAi?$AAd?$AA?5?$AAp?$AAa?$AAr?$AAa?$AAm?$AAe?$AAt?$AAe?$AAr?$AA?5?$AAf?$AAo?$AAr?$AA?5?$AA_?$AAc?$AAo?$AAn?$AAf?$AAi?$AAg?$AAt@ 0047cd68     LIBCMTD:setlocal.obj
 0002:0000edc8       ??_C@_0DC@JCPFNMID@f?3?2dd?2vctools?2crt_bld?2self_x86?2c@ 0047cdc8     LIBCMTD:setlocal.obj
 0002:0000edfc       ??_C@_1BE@DBJGBOJC@?$AAs?$AAe?$AAt?$AAl?$AAo?$AAc?$AAa?$AAl?$AAe?$AA?$AA@ 0047cdfc     LIBCMTD:setlocal.obj
 0002:0000ee10       ??_C@_1FG@OHLFEKMC@?$AAL?$AAC?$AA_?$AAM?$AAI?$AAN?$AA?5?$AA?$DM?$AA?$DN?$AA?5?$AA_?$AAc?$AAa?$AAt?$AAe?$AAg?$AAo?$AAr?$AAy?$AA?5?$AA?$CG?$AA?$CG?$AA?5?$AA_?$AAc?$AAa?$AAt?$AAe?$AAg?$AAo?$AAr?$AAy@ 0047ce10     LIBCMTD:setlocal.obj
 0002:0000ee68       ??_C@_1IA@PFIKKKFB@?$AAs?$AAt?$AAr?$AAn?$AAc?$AAp?$AAy?$AA_?$AAs?$AA?$CI?$AAl?$AAc?$AAt?$AAe?$AAm?$AAp?$AA?0?$AA?5?$AA?$CI?$AAs?$AAi?$AAz?$AAe?$AAo?$AAf?$AA?$CI?$AAl?$AAc?$AAt?$AAe?$AAm?$AAp@ 0047ce68     LIBCMTD:setlocal.obj
 0002:0000eee8       ??_C@_1CE@OFNHIOO@?$AA_?$AAs?$AAe?$AAt?$AAl?$AAo?$AAc?$AAa?$AAl?$AAe?$AA_?$AAn?$AAo?$AAl?$AAo?$AAc?$AAk?$AA?$AA@ 0047cee8     LIBCMTD:setlocal.obj
 0002:0000ef0c       ??_C@_01ICJEACDI@?$DL?$AA@ 0047cf0c     LIBCMTD:setlocal.obj
 0002:0000ef10       ??_C@_02BALPLPBG@?$DN?$DL?$AA@ 0047cf10     LIBCMTD:setlocal.obj
 0002:0000ef18       ??_C@_1GO@JALHLJEH@?$AAs?$AAt?$AAr?$AAc?$AAp?$AAy?$AA_?$AAs?$AA?$CI?$AAp?$AAc?$AAh?$AA?5?$AA?$CL?$AA?5?$AAs?$AAi?$AAz?$AAe?$AAo?$AAf?$AA?$CI?$AAi?$AAn?$AAt?$AA?$CJ?$AA?0?$AA?5?$AAc?$AAc?$AAh?$AA?5@ 0047cf18     LIBCMTD:setlocal.obj
 0002:0000ef88       ??_C@_1CG@IEFIICPK@?$AA_?$AAs?$AAe?$AAt?$AAl?$AAo?$AAc?$AAa?$AAl?$AAe?$AA_?$AAs?$AAe?$AAt?$AA_?$AAc?$AAa?$AAt?$AA?$AA@ 0047cf88     LIBCMTD:setlocal.obj
 0002:0000efb0       ??_C@_1DA@GDKKLCLM@?$AAs?$AAt?$AAr?$AAc?$AAa?$AAt?$AA_?$AAs?$AA?$CI?$AAp?$AAc?$AAh?$AA?0?$AA?5?$AAc?$AAc?$AAh?$AA?0?$AA?5?$AA?$CC?$AA?$DL?$AA?$CC?$AA?$CJ?$AA?$AA@ 0047cfb0     LIBCMTD:setlocal.obj
 0002:0000efe0       ??_C@_1CG@NNFIJLDA@?$AA_?$AAs?$AAe?$AAt?$AAl?$AAo?$AAc?$AAa?$AAl?$AAe?$AA_?$AAg?$AAe?$AAt?$AA_?$AAa?$AAl?$AAl?$AA?$AA@ 0047cfe0     LIBCMTD:setlocal.obj
 0002:0000f008       ??_C@_01NEMOKFLO@?$DN?$AA@ 0047d008     LIBCMTD:setlocal.obj
 0002:0000f010       ??_C@_1FA@MHAOOIBO@?$AAs?$AAt?$AAr?$AAc?$AAp?$AAy?$AA_?$AAs?$AA?$CI?$AAo?$AAu?$AAt?$AAp?$AAu?$AAt?$AA?0?$AA?5?$AAs?$AAi?$AAz?$AAe?$AAI?$AAn?$AAC?$AAh?$AAa?$AAr?$AAs?$AA?0?$AA?5?$AAc?$AAa@ 0047d010     LIBCMTD:setlocal.obj
 0002:0000f060       ??_C@_1IA@ONNFOEDA@?$AAs?$AAt?$AAr?$AAn?$AAc?$AAp?$AAy?$AA_?$AAs?$AA?$CI?$AAc?$AAa?$AAc?$AAh?$AAe?$AAi?$AAn?$AA?0?$AA?5?$AAc?$AAa?$AAc?$AAh?$AAe?$AAi?$AAn?$AAS?$AAi?$AAz?$AAe?$AA?0?$AA?5@ 0047d060     LIBCMTD:setlocal.obj
 0002:0000f0e0       ??_C@_00CNPNBAHC@?$AA@     0047d0e0     LIBCMTD:setlocal.obj
 0002:0000f0e4       ??_C@_01GFHCPBMG@C?$AA@    0047d0e4     LIBCMTD:setlocal.obj
 0002:0000f0e8       ??_C@_1EG@MOMHKOD@?$AAs?$AAt?$AAr?$AAc?$AAp?$AAy?$AA_?$AAs?$AA?$CI?$AAo?$AAu?$AAt?$AAp?$AAu?$AAt?$AA?0?$AA?5?$AAs?$AAi?$AAz?$AAe?$AAI?$AAn?$AAC?$AAh?$AAa?$AAr?$AAs?$AA?0?$AA?5?$AA?$CC?$AAC@ 0047d0e8     LIBCMTD:setlocal.obj
 0002:0000f130       ??_C@_1BM@OIIBLEFG@?$AA_?$AAe?$AAx?$AAp?$AAa?$AAn?$AAd?$AAl?$AAo?$AAc?$AAa?$AAl?$AAe?$AA?$AA@ 0047d130     LIBCMTD:setlocal.obj
 0002:0000f150       ??_C@_1BGM@IJDLABMC@?$AAs?$AAt?$AAr?$AAc?$AAa?$AAt?$AA_?$AAs?$AA?$CI?$AAo?$AAu?$AAt?$AAs?$AAt?$AAr?$AA?0?$AA?5?$AAs?$AAi?$AAz?$AAe?$AAI?$AAn?$AAB?$AAy?$AAt?$AAe?$AAs?$AA?0?$AA?5?$AA?$CI?$AA?5@ 0047d150     LIBCMTD:setlocal.obj
 0002:0000f2bc       ??_C@_1BC@PIABMDIP@?$AA_?$AAs?$AAt?$AAr?$AAc?$AAa?$AAt?$AAs?$AA?$AA@ 0047d2bc     LIBCMTD:setlocal.obj
 0002:0000f2d0       ??_C@_1MM@NOPMGFHF@?$AAs?$AAt?$AAr?$AAn?$AAc?$AAp?$AAy?$AA_?$AAs?$AA?$CI?$AAn?$AAa?$AAm?$AAe?$AAs?$AA?9?$AA?$DO?$AAs?$AAz?$AAC?$AAo?$AAd?$AAe?$AAP?$AAa?$AAg?$AAe?$AA?0?$AA?5?$AA?$CI?$AAs?$AAi@ 0047d2d0     LIBCMTD:setlocal.obj
 0002:0000f3a0       ??_C@_1MG@PHNILIAG@?$AAs?$AAt?$AAr?$AAn?$AAc?$AAp?$AAy?$AA_?$AAs?$AA?$CI?$AAn?$AAa?$AAm?$AAe?$AAs?$AA?9?$AA?$DO?$AAs?$AAz?$AAC?$AAo?$AAu?$AAn?$AAt?$AAr?$AAy?$AA?0?$AA?5?$AA?$CI?$AAs?$AAi?$AAz@ 0047d3a0     LIBCMTD:setlocal.obj
 0002:0000f468       ??_C@_1MM@BFEECMAF@?$AAs?$AAt?$AAr?$AAn?$AAc?$AAp?$AAy?$AA_?$AAs?$AA?$CI?$AAn?$AAa?$AAm?$AAe?$AAs?$AA?9?$AA?$DO?$AAs?$AAz?$AAL?$AAa?$AAn?$AAg?$AAu?$AAa?$AAg?$AAe?$AA?0?$AA?5?$AA?$CI?$AAs?$AAi@ 0047d468     LIBCMTD:setlocal.obj
 0002:0000f534       ??_C@_03EGDHDPFD@_?4?0?$AA@ 0047d534     LIBCMTD:setlocal.obj
 0002:0000f538       ??_C@_1NG@FMOPGKGG@?$AAs?$AAt?$AAr?$AAn?$AAc?$AAp?$AAy?$AA_?$AAs?$AA?$CI?$AAn?$AAa?$AAm?$AAe?$AAs?$AA?9?$AA?$DO?$AAs?$AAz?$AAC?$AAo?$AAd?$AAe?$AAP?$AAa?$AAg?$AAe?$AA?0?$AA?5?$AA?$CI?$AAs?$AAi@ 0047d538     LIBCMTD:setlocal.obj
 0002:0000f610       ??_C@_1BK@CBMMLAGJ@?$AA_?$AA_?$AAl?$AAc?$AA_?$AAs?$AAt?$AAr?$AAt?$AAo?$AAl?$AAc?$AA?$AA@ 0047d610     LIBCMTD:setlocal.obj
 0002:0000f62c       ??_C@_01LFCBOECM@?4?$AA@   0047d62c     LIBCMTD:setlocal.obj
 0002:0000f630       ??_C@_01IDAFKMJL@_?$AA@    0047d630     LIBCMTD:setlocal.obj
 0002:0000f638       ??_C@_1HC@IBDBLKCB@?$AAs?$AAt?$AAr?$AAc?$AAp?$AAy?$AA_?$AAs?$AA?$CI?$AAl?$AAo?$AAc?$AAa?$AAl?$AAe?$AA?0?$AA?5?$AAs?$AAi?$AAz?$AAe?$AAI?$AAn?$AAB?$AAy?$AAt?$AAe?$AAs?$AA?0?$AA?5?$AA?$CI?$AAc@ 0047d638     LIBCMTD:setlocal.obj
 0002:0000f6ac       ??_C@_1BK@FGDJDEPG@?$AA_?$AA_?$AAl?$AAc?$AA_?$AAl?$AAc?$AAt?$AAo?$AAs?$AAt?$AAr?$AA?$AA@ 0047d6ac     LIBCMTD:setlocal.obj
 0002:0000f6c8       ??_C@_1JE@ECKHFIFP@?$AA?$CI?$AA?$CC?$AAI?$AAn?$AAv?$AAa?$AAl?$AAi?$AAd?$AA?5?$AAf?$AAi?$AAl?$AAe?$AA?5?$AAd?$AAe?$AAs?$AAc?$AAr?$AAi?$AAp?$AAt?$AAo?$AAr?$AA?4?$AA?5?$AAF?$AAi?$AAl?$AAe?$AA?5@ 0047d6c8     LIBCMTD:close.obj
 0002:0000f75c       ??_C@_1O@EDEJGJBM@?$AA_?$AAc?$AAl?$AAo?$AAs?$AAe?$AA?$AA@ 0047d75c     LIBCMTD:close.obj
 0002:0000f770       ??_C@_1FO@NNGNFGFH@?$AAf?$AA?3?$AA?2?$AAd?$AAd?$AA?2?$AAv?$AAc?$AAt?$AAo?$AAo?$AAl?$AAs?$AA?2?$AAc?$AAr?$AAt?$AA_?$AAb?$AAl?$AAd?$AA?2?$AAs?$AAe?$AAl?$AAf?$AA_?$AAx?$AA8?$AA6?$AA?2?$AAc@ 0047d770     LIBCMTD:close.obj
 0002:0000f7d0       ??_C@_1BA@JGHIEKKM@?$AA_?$AAf?$AAi?$AAl?$AAe?$AAn?$AAo?$AA?$AA@ 0047d7d0     LIBCMTD:fileno.obj
 0002:0000f7e0       ??_C@_1GA@PBJHELNC@?$AAf?$AA?3?$AA?2?$AAd?$AAd?$AA?2?$AAv?$AAc?$AAt?$AAo?$AAo?$AAl?$AAs?$AA?2?$AAc?$AAr?$AAt?$AA_?$AAb?$AAl?$AAd?$AA?2?$AAs?$AAe?$AAl?$AAf?$AA_?$AAx?$AA8?$AA6?$AA?2?$AAc@ 0047d7e0     LIBCMTD:fileno.obj
 0002:0000f840       ??_C@_1BA@IIKEPOGH@?$AA_?$AAf?$AAi?$AAl?$AAb?$AAu?$AAf?$AA?$AA@ 0047d840     LIBCMTD:_filbuf.obj
 0002:0000f850       ??_C@_1GC@CHFNJKFB@?$AAf?$AA?3?$AA?2?$AAd?$AAd?$AA?2?$AAv?$AAc?$AAt?$AAo?$AAo?$AAl?$AAs?$AA?2?$AAc?$AAr?$AAt?$AA_?$AAb?$AAl?$AAd?$AA?2?$AAs?$AAe?$AAl?$AAf?$AA_?$AAx?$AA8?$AA6?$AA?2?$AAc@ 0047d850     LIBCMTD:_filbuf.obj
 0002:0000f8b4       ??_C@_1CC@HBLPFNKH@?$AA?$CI?$AAc?$AAn?$AAt?$AA?5?$AA?$DM?$AA?$DN?$AA?5?$AAI?$AAN?$AAT?$AA_?$AAM?$AAA?$AAX?$AA?$CJ?$AA?$AA@ 0047d8b4     LIBCMTD:read.obj
 0002:0000f8d8       ??_C@_1M@NHJOLLDM@?$AA_?$AAr?$AAe?$AAa?$AAd?$AA?$AA@ 0047d8d8     LIBCMTD:read.obj
 0002:0000f8e8       ??_C@_1FM@NGICBHLO@?$AAf?$AA?3?$AA?2?$AAd?$AAd?$AA?2?$AAv?$AAc?$AAt?$AAo?$AAo?$AAl?$AAs?$AA?2?$AAc?$AAr?$AAt?$AA_?$AAb?$AAl?$AAd?$AA?2?$AAs?$AAe?$AAl?$AAf?$AA_?$AAx?$AA8?$AA6?$AA?2?$AAc@ 0047d8e8     LIBCMTD:read.obj
 0002:0000f944       ??_C@_0CO@CEGKNHEH@f?3?2dd?2vctools?2crt_bld?2self_x86?2c@ 0047d944     LIBCMTD:read.obj
 0002:0000f974       ??_C@_1CC@EEOLPHGO@?$AA?$CI?$AA?$CI?$AAc?$AAn?$AAt?$AA?5?$AA?$CG?$AA?5?$AA1?$AA?$CJ?$AA?5?$AA?$DN?$AA?$DN?$AA?5?$AA0?$AA?$CJ?$AA?$AA@ 0047d974     LIBCMTD:read.obj
 0002:0000f998       ??_C@_1CG@OHLJHGGK@?$AA?$CI?$AAi?$AAn?$AAp?$AAu?$AAt?$AAb?$AAu?$AAf?$AA?5?$AA?$CB?$AA?$DN?$AA?5?$AAN?$AAU?$AAL?$AAL?$AA?$CJ?$AA?$AA@ 0047d998     LIBCMTD:read.obj
 0002:0000f9c0       ??_C@_1BK@JJBHNDKJ@?$AA_?$AAr?$AAe?$AAa?$AAd?$AA_?$AAn?$AAo?$AAl?$AAo?$AAc?$AAk?$AA?$AA@ 0047d9c0     LIBCMTD:read.obj
 0002:0000f9fc       ??_C@_1BE@DONHJJKE@?$AA_?$AAo?$AAp?$AAe?$AAn?$AAf?$AAi?$AAl?$AAe?$AA?$AA@ 0047d9fc     LIBCMTD:_open.obj
 0002:0000fa10       ??_C@_1FO@POGAHKND@?$AAf?$AA?3?$AA?2?$AAd?$AAd?$AA?2?$AAv?$AAc?$AAt?$AAo?$AAo?$AAl?$AAs?$AA?2?$AAc?$AAr?$AAt?$AA_?$AAb?$AAl?$AAd?$AA?2?$AAs?$AAe?$AAl?$AAf?$AA_?$AAx?$AA8?$AA6?$AA?2?$AAc@ 0047da10     LIBCMTD:_open.obj
 0002:0000fa70       ??_C@_1CC@JBMDNKJP@?$AAf?$AAi?$AAl?$AAe?$AAn?$AAa?$AAm?$AAe?$AA?5?$AA?$CB?$AA?$DN?$AA?5?$AAN?$AAU?$AAL?$AAL?$AA?$AA@ 0047da70     LIBCMTD:_open.obj
 0002:0000fa94       __pDestructExceptionObject 0047da94     LIBCMTD:frame.obj
 0002:0000fa98       ??_C@_0O@DPKOEFFH@bad?5exception?$AA@ 0047da98     LIBCMTD:frame.obj
 0002:0000faac       ??_7bad_exception@std@@6B@ 0047daac     LIBCMTD:frame.obj
 0002:0000fab4       ??_C@_0DB@OLNNDFNH@f?3?2dd?2vctools?2crt_bld?2self_x86?2c@ 0047dab4     LIBCMTD:_sftbuf.obj
 0002:0000fae8       ??_C@_1GC@DGAFOCMO@?$AAf?$AA?3?$AA?2?$AAd?$AAd?$AA?2?$AAv?$AAc?$AAt?$AAo?$AAo?$AAl?$AAs?$AA?2?$AAc?$AAr?$AAt?$AA_?$AAb?$AAl?$AAd?$AA?2?$AAs?$AAe?$AAl?$AAf?$AA_?$AAx?$AA8?$AA6?$AA?2?$AAc@ 0047dae8     LIBCMTD:_sftbuf.obj
 0002:0000fb4c       ??_C@_1CO@KCKAACMI@?$AAf?$AAl?$AAa?$AAg?$AA?5?$AA?$DN?$AA?$DN?$AA?5?$AA0?$AA?5?$AA?$HM?$AA?$HM?$AA?5?$AAf?$AAl?$AAa?$AAg?$AA?5?$AA?$DN?$AA?$DN?$AA?5?$AA1?$AA?$AA@ 0047db4c     LIBCMTD:_sftbuf.obj
 0002:0000fb7c       ??_C@_1BO@JGFPDJCP@?$AAv?$AAp?$AAr?$AAi?$AAn?$AAt?$AAf?$AA_?$AAh?$AAe?$AAl?$AAp?$AAe?$AAr?$AA?$AA@ 0047db7c     LIBCMTD:vprintf.obj
 0002:0000fba0       ??_C@_1GC@DHFFJKMC@?$AAf?$AA?3?$AA?2?$AAd?$AAd?$AA?2?$AAv?$AAc?$AAt?$AAo?$AAo?$AAl?$AAs?$AA?2?$AAc?$AAr?$AAt?$AA_?$AAb?$AAl?$AAd?$AA?2?$AAs?$AAe?$AAl?$AAf?$AA_?$AAx?$AA8?$AA6?$AA?2?$AAc@ 0047dba0     LIBCMTD:vprintf.obj
 0002:0000fc08       ??_C@_1NK@LOFHIHFC@?$AAf?$AAM?$AAo?$AAd?$AAe?$AA?5?$AA?$DN?$AA?$DN?$AA?5?$AA_?$AAC?$AAR?$AAT?$AAD?$AAB?$AAG?$AA_?$AAR?$AAE?$AAP?$AAO?$AAR?$AAT?$AA_?$AAM?$AAO?$AAD?$AAE?$AA?5?$AA?$HM?$AA?$HM?$AA?5@ 0047dc08     LIBCMTD:dbgrptt.obj
 0002:0000fce4       ??_C@_1CE@FIHIECNJ@?$AA_?$AAC?$AAr?$AAt?$AAS?$AAe?$AAt?$AAR?$AAe?$AAp?$AAo?$AAr?$AAt?$AAM?$AAo?$AAd?$AAe?$AA?$AA@ 0047dce4     LIBCMTD:dbgrptt.obj
 0002:0000fd08       ??_C@_1GC@FIGJJMEN@?$AAf?$AA?3?$AA?2?$AAd?$AAd?$AA?2?$AAv?$AAc?$AAt?$AAo?$AAo?$AAl?$AAs?$AA?2?$AAc?$AAr?$AAt?$AA_?$AAb?$AAl?$AAd?$AA?2?$AAs?$AAe?$AAl?$AAf?$AA_?$AAx?$AA8?$AA6?$AA?2?$AAc@ 0047dd08     LIBCMTD:dbgrptt.obj
 0002:0000fd70       ??_C@_1FA@IFFFOLDJ@?$AAn?$AAR?$AAp?$AAt?$AAT?$AAy?$AAp?$AAe?$AA?5?$AA?$DO?$AA?$DN?$AA?5?$AA0?$AA?5?$AA?$CG?$AA?$CG?$AA?5?$AAn?$AAR?$AAp?$AAt?$AAT?$AAy?$AAp?$AAe?$AA?5?$AA?$DM?$AA?5?$AA_?$AAC?$AAR?$AAT@ 0047dd70     LIBCMTD:dbgrptt.obj
 0002:0000fdc0       ??_C@_1CE@IKKEDCME@?$AA_?$AAC?$AAr?$AAt?$AAS?$AAe?$AAt?$AAR?$AAe?$AAp?$AAo?$AAr?$AAt?$AAF?$AAi?$AAl?$AAe?$AA?$AA@ 0047ddc0     LIBCMTD:dbgrptt.obj
 0002:0000fde8       ??_C@_1HO@PJOFIKFE@?$AA_?$AAC?$AAr?$AAt?$AAD?$AAb?$AAg?$AAR?$AAe?$AAp?$AAo?$AAr?$AAt?$AA?3?$AA?5?$AAS?$AAt?$AAr?$AAi?$AAn?$AAg?$AA?5?$AAt?$AAo?$AAo?$AA?5?$AAl?$AAo?$AAn?$AAg?$AA?5?$AAo@ 0047dde8     LIBCMTD:dbgrptt.obj
 0002:0000fe68       ??_C@_1MC@IGEECMDB@?$AAw?$AAc?$AAs?$AAc?$AAp?$AAy?$AA_?$AAs?$AA?$CI?$AAs?$AAz?$AAO?$AAu?$AAt?$AAM?$AAe?$AAs?$AAs?$AAa?$AAg?$AAe?$AA2?$AA?0?$AA?5?$AA4?$AA0?$AA9?$AA6?$AA?0?$AA?5?$AAL?$AA?$CC@ 0047de68     LIBCMTD:dbgrptt.obj
 0002:0000ff30       ??_C@_1IM@OOKIFKOH@?$AAe?$AA?5?$AA?$DN?$AA?5?$AAm?$AAb?$AAs?$AAt?$AAo?$AAw?$AAc?$AAs?$AA_?$AAs?$AA?$CI?$AA?$CG?$AAr?$AAe?$AAt?$AA?0?$AA?5?$AAs?$AAz?$AAO?$AAu?$AAt?$AAM?$AAe?$AAs?$AAs?$AAa?$AAg@ 0047df30     LIBCMTD:dbgrptt.obj
 0002:0000ffc0       ??_C@_1FI@IBIOIHEG@?$AAs?$AAt?$AAr?$AAc?$AAp?$AAy?$AA_?$AAs?$AA?$CI?$AAs?$AAz?$AAO?$AAu?$AAt?$AAM?$AAe?$AAs?$AAs?$AAa?$AAg?$AAe?$AA?0?$AA?5?$AA4?$AA0?$AA9?$AA6?$AA?0?$AA?5?$AAs?$AAz?$AAL@ 0047dfc0     LIBCMTD:dbgrptt.obj
 0002:00010018       ??_C@_1JG@CPKCIOEE@?$AAs?$AAt?$AAr?$AAc?$AAp?$AAy?$AA_?$AAs?$AA?$CI?$AAs?$AAz?$AAO?$AAu?$AAt?$AAM?$AAe?$AAs?$AAs?$AAa?$AAg?$AAe?$AA?0?$AA?5?$AA4?$AA0?$AA9?$AA6?$AA?0?$AA?5?$AA?$CC?$AA_?$AAC@ 0047e018     LIBCMTD:dbgrptt.obj
 0002:000100b0       ??_C@_0M@IPILFDFN@?$CFs?$CI?$CFd?$CJ?5?3?5?$CFs?$AA@ 0047e0b0     LIBCMTD:dbgrptt.obj
 0002:000100c0       ??_C@_1EI@LDHJEDO@?$AAs?$AAt?$AAr?$AAc?$AAa?$AAt?$AA_?$AAs?$AA?$CI?$AAs?$AAz?$AAL?$AAi?$AAn?$AAe?$AAM?$AAe?$AAs?$AAs?$AAa?$AAg?$AAe?$AA?0?$AA?5?$AA4?$AA0?$AA9?$AA6?$AA?0?$AA?5?$AA?$CC?$AA?2@ 0047e0c0     LIBCMTD:dbgrptt.obj
 0002:00010108       ??_C@_01LIIJDEN@?$AN?$AA@  0047e108     LIBCMTD:dbgrptt.obj
 0002:00010110       ??_C@_1EI@CACDLAFK@?$AAs?$AAt?$AAr?$AAc?$AAa?$AAt?$AA_?$AAs?$AA?$CI?$AAs?$AAz?$AAL?$AAi?$AAn?$AAe?$AAM?$AAe?$AAs?$AAs?$AAa?$AAg?$AAe?$AA?0?$AA?5?$AA4?$AA0?$AA9?$AA6?$AA?0?$AA?5?$AA?$CC?$AA?2@ 0047e110     LIBCMTD:dbgrptt.obj
 0002:00010158       ??_C@_1FK@NPGBPOFO@?$AAs?$AAt?$AAr?$AAc?$AAa?$AAt?$AA_?$AAs?$AA?$CI?$AAs?$AAz?$AAL?$AAi?$AAn?$AAe?$AAM?$AAe?$AAs?$AAs?$AAa?$AAg?$AAe?$AA?0?$AA?5?$AA4?$AA0?$AA9?$AA6?$AA?0?$AA?5?$AAs?$AAz@ 0047e158     LIBCMTD:dbgrptt.obj
 0002:000101b8       ??_C@_1KK@GIGAEDMO@?$AAs?$AAt?$AAr?$AAc?$AAp?$AAy?$AA_?$AAs?$AA?$CI?$AAs?$AAz?$AAL?$AAi?$AAn?$AAe?$AAM?$AAe?$AAs?$AAs?$AAa?$AAg?$AAe?$AA?0?$AA?5?$AA4?$AA0?$AA9?$AA6?$AA?0?$AA?5?$AAs?$AAz@ 0047e1b8     LIBCMTD:dbgrptt.obj
 0002:00010264       ??_C@_0BC@LAIDCHCH@Assertion?5failed?$CB?$AA@ 0047e264     LIBCMTD:dbgrptt.obj
 0002:00010278       ??_C@_0BD@CAENFOHP@Assertion?5failed?3?5?$AA@ 0047e278     LIBCMTD:dbgrptt.obj
 0002:0001028c       ??_C@_0CL@EACFGMNB@_CrtDbgReport?3?5String?5too?5long?5o@ 0047e28c     LIBCMTD:dbgrptt.obj
 0002:000102b8       ??_C@_1JI@GAALPGBM@?$AAs?$AAt?$AAr?$AAc?$AAp?$AAy?$AA_?$AAs?$AA?$CI?$AAs?$AAz?$AAU?$AAs?$AAe?$AAr?$AAM?$AAe?$AAs?$AAs?$AAa?$AAg?$AAe?$AA?0?$AA?5?$AA4?$AA0?$AA9?$AA6?$AA?0?$AA?5?$AA?$CC?$AA_@ 0047e2b8     LIBCMTD:dbgrptt.obj
 0002:00010350       ??_C@_07BHGABMGB@?0?5Line?5?$AA@ 0047e350     LIBCMTD:dbgrptt.obj
 0002:00010358       ??_C@_0P@DFJNDPOP@?$DMfile?5unknown?$DO?$AA@ 0047e358     LIBCMTD:dbgrptt.obj
 0002:00010368       ??_C@_0CG@BNGLOCEO@Second?5Chance?5Assertion?5Failed?3?5@ 0047e368     LIBCMTD:dbgrptt.obj
 0002:00010390       ??_C@_1FA@JPHJBHEM@?$AA_?$AAi?$AAt?$AAo?$AAa?$AA_?$AAs?$AA?$CI?$AAn?$AAL?$AAi?$AAn?$AAe?$AA?0?$AA?5?$AAs?$AAz?$AAL?$AAi?$AAn?$AAe?$AAM?$AAe?$AAs?$AAs?$AAa?$AAg?$AAe?$AA?0?$AA?5?$AA4?$AA0@ 0047e390     LIBCMTD:dbgrptt.obj
 0002:000103e0       ??_C@_1CA@KHJHLKA@?$AA_?$AAV?$AAC?$AAr?$AAt?$AAD?$AAb?$AAg?$AAR?$AAe?$AAp?$AAo?$AAr?$AAt?$AAA?$AA?$AA@ 0047e3e0     LIBCMTD:dbgrptt.obj
 0002:00010400       ??_C@_1IE@CPGKIAGP@?$AAw?$AAc?$AAs?$AAt?$AAo?$AAm?$AAb?$AAs?$AA_?$AAs?$AA?$CI?$AA?$CG?$AAr?$AAe?$AAt?$AA?0?$AA?5?$AAs?$AAz?$AAa?$AAO?$AAu?$AAt?$AAM?$AAe?$AAs?$AAs?$AAa?$AAg?$AAe?$AA?0?$AA?5@ 0047e400     LIBCMTD:dbgrptt.obj
 0002:00010484       ??_C@_0DP@GNPEPHJD@_CrtDbgReport?3?5String?5too?5long?5o@ 0047e484     LIBCMTD:dbgrptt.obj
 0002:000104c8       ??_C@_1MA@LBAMNNOB@?$AAs?$AAt?$AAr?$AAc?$AAp?$AAy?$AA_?$AAs?$AA?$CI?$AAs?$AAz?$AAO?$AAu?$AAt?$AAM?$AAe?$AAs?$AAs?$AAa?$AAg?$AAe?$AA2?$AA?0?$AA?5?$AA4?$AA0?$AA9?$AA6?$AA?0?$AA?5?$AA?$CC?$AA_@ 0047e4c8     LIBCMTD:dbgrptt.obj
 0002:00010588       ??_C@_1JC@EOAPFDLN@?$AAw?$AAc?$AAs?$AAt?$AAo?$AAm?$AAb?$AAs?$AA_?$AAs?$AA?$CI?$AA?$CI?$AA?$CI?$AAv?$AAo?$AAi?$AAd?$AA?5?$AA?$CK?$AA?$CJ?$AA0?$AA?$CJ?$AA?0?$AA?5?$AAs?$AAz?$AAO?$AAu?$AAt?$AAM?$AAe?$AAs@ 0047e588     LIBCMTD:dbgrptt.obj
 0002:00010620       ??_C@_1FI@DBAIJPJE@?$AAw?$AAc?$AAs?$AAc?$AAp?$AAy?$AA_?$AAs?$AA?$CI?$AAs?$AAz?$AAO?$AAu?$AAt?$AAM?$AAe?$AAs?$AAs?$AAa?$AAg?$AAe?$AA?0?$AA?5?$AA4?$AA0?$AA9?$AA6?$AA?0?$AA?5?$AAs?$AAz?$AAL@ 0047e620     LIBCMTD:dbgrptt.obj
 0002:00010678       ??_C@_1BI@JIDBEPIG@?$AA?$CF?$AAs?$AA?$CI?$AA?$CF?$AAd?$AA?$CJ?$AA?5?$AA?3?$AA?5?$AA?$CF?$AAs?$AA?$AA@ 0047e678     LIBCMTD:dbgrptt.obj
 0002:00010690       ??_C@_1EK@PHCBEDKB@?$AAw?$AAc?$AAs?$AAc?$AAa?$AAt?$AA_?$AAs?$AA?$CI?$AAs?$AAz?$AAL?$AAi?$AAn?$AAe?$AAM?$AAe?$AAs?$AAs?$AAa?$AAg?$AAe?$AA?0?$AA?5?$AA4?$AA0?$AA9?$AA6?$AA?0?$AA?5?$AAL?$AA?$CC@ 0047e690     LIBCMTD:dbgrptt.obj
 0002:000106dc       ??_C@_13CMNBPIDO@?$AA?$AN?$AA?$AA@ 0047e6dc     LIBCMTD:dbgrptt.obj
 0002:000106e0       ??_C@_1EK@NMDFGHMF@?$AAw?$AAc?$AAs?$AAc?$AAa?$AAt?$AA_?$AAs?$AA?$CI?$AAs?$AAz?$AAL?$AAi?$AAn?$AAe?$AAM?$AAe?$AAs?$AAs?$AAa?$AAg?$AAe?$AA?0?$AA?5?$AA4?$AA0?$AA9?$AA6?$AA?0?$AA?5?$AAL?$AA?$CC@ 0047e6e0     LIBCMTD:dbgrptt.obj
 0002:00010730       ??_C@_1FK@HPADHBBD@?$AAw?$AAc?$AAs?$AAc?$AAa?$AAt?$AA_?$AAs?$AA?$CI?$AAs?$AAz?$AAL?$AAi?$AAn?$AAe?$AAM?$AAe?$AAs?$AAs?$AAa?$AAg?$AAe?$AA?0?$AA?5?$AA4?$AA0?$AA9?$AA6?$AA?0?$AA?5?$AAs?$AAz@ 0047e730     LIBCMTD:dbgrptt.obj
 0002:00010790       ??_C@_1KO@DGAHENCH@?$AAw?$AAc?$AAs?$AAc?$AAp?$AAy?$AA_?$AAs?$AA?$CI?$AAs?$AAz?$AAL?$AAi?$AAn?$AAe?$AAM?$AAe?$AAs?$AAs?$AAa?$AAg?$AAe?$AA?0?$AA?5?$AA4?$AA0?$AA9?$AA6?$AA?0?$AA?5?$AAs?$AAz@ 0047e790     LIBCMTD:dbgrptt.obj
 0002:00010840       ??_C@_1CE@OJBNHDMO@?$AAA?$AAs?$AAs?$AAe?$AAr?$AAt?$AAi?$AAo?$AAn?$AA?5?$AAf?$AAa?$AAi?$AAl?$AAe?$AAd?$AA?$CB?$AA?$AA@ 0047e840     LIBCMTD:dbgrptt.obj
 0002:00010864       ??_C@_1CG@FFFGGODN@?$AAA?$AAs?$AAs?$AAe?$AAr?$AAt?$AAi?$AAo?$AAn?$AA?5?$AAf?$AAa?$AAi?$AAl?$AAe?$AAd?$AA?3?$AA?5?$AA?$AA@ 0047e864     LIBCMTD:dbgrptt.obj
 0002:00010890       ??_C@_1JK@KHFABAEO@?$AAw?$AAc?$AAs?$AAc?$AAp?$AAy?$AA_?$AAs?$AA?$CI?$AAs?$AAz?$AAU?$AAs?$AAe?$AAr?$AAM?$AAe?$AAs?$AAs?$AAa?$AAg?$AAe?$AA?0?$AA?5?$AA4?$AA0?$AA9?$AA6?$AA?0?$AA?5?$AAL?$AA?$CC@ 0047e890     LIBCMTD:dbgrptt.obj
 0002:0001092c       ??_C@_13LBAGMAIH@?$AA?6?$AA?$AA@ 0047e92c     LIBCMTD:dbgrptt.obj
 0002:00010930       ??_C@_1BA@ELMMDCFC@?$AA?0?$AA?5?$AAL?$AAi?$AAn?$AAe?$AA?5?$AA?$AA@ 0047e930     LIBCMTD:dbgrptt.obj
 0002:00010940       ??_C@_1BO@OCHMLCAG@?$AA?$DM?$AAf?$AAi?$AAl?$AAe?$AA?5?$AAu?$AAn?$AAk?$AAn?$AAo?$AAw?$AAn?$AA?$DO?$AA?$AA@ 0047e940     LIBCMTD:dbgrptt.obj
 0002:00010960       ??_C@_1EM@MJFLEDMB@?$AAS?$AAe?$AAc?$AAo?$AAn?$AAd?$AA?5?$AAC?$AAh?$AAa?$AAn?$AAc?$AAe?$AA?5?$AAA?$AAs?$AAs?$AAe?$AAr?$AAt?$AAi?$AAo?$AAn?$AA?5?$AAF?$AAa?$AAi?$AAl?$AAe?$AAd?$AA?3?$AA?5@ 0047e960     LIBCMTD:dbgrptt.obj
 0002:000109b0       ??_C@_1FA@CNLLOMHI@?$AA_?$AAi?$AAt?$AAo?$AAw?$AA_?$AAs?$AA?$CI?$AAn?$AAL?$AAi?$AAn?$AAe?$AA?0?$AA?5?$AAs?$AAz?$AAL?$AAi?$AAn?$AAe?$AAM?$AAe?$AAs?$AAs?$AAa?$AAg?$AAe?$AA?0?$AA?5?$AA4?$AA0@ 0047e9b0     LIBCMTD:dbgrptt.obj
 0002:00010a00       ??_C@_1CA@HPALHDOD@?$AA_?$AAV?$AAC?$AAr?$AAt?$AAD?$AAb?$AAg?$AAR?$AAe?$AAp?$AAo?$AAr?$AAt?$AAW?$AA?$AA@ 0047ea00     LIBCMTD:dbgrptt.obj
 0002:00010a20       ??_C@_1O@EJLDHPPL@?$AAs?$AAi?$AAg?$AAn?$AAa?$AAl?$AA?$AA@ 0047ea20     LIBCMTD:winsig.obj
 0002:00010a30       ??_C@_1GA@DBECNFG@?$AAf?$AA?3?$AA?2?$AAd?$AAd?$AA?2?$AAv?$AAc?$AAt?$AAo?$AAo?$AAl?$AAs?$AA?2?$AAc?$AAr?$AAt?$AA_?$AAb?$AAl?$AAd?$AA?2?$AAs?$AAe?$AAl?$AAf?$AA_?$AAx?$AA8?$AA6?$AA?2?$AAc@ 0047ea30     LIBCMTD:winsig.obj
 0002:00010a90       ??_C@_1DO@MLNEDKGB@?$AA?$CI?$AA?$CC?$AAI?$AAn?$AAv?$AAa?$AAl?$AAi?$AAd?$AA?5?$AAs?$AAi?$AAg?$AAn?$AAa?$AAl?$AA?5?$AAo?$AAr?$AA?5?$AAe?$AAr?$AAr?$AAo?$AAr?$AA?$CC?$AA?0?$AA?5?$AA0?$AA?$CJ?$AA?$AA@ 0047ea90     LIBCMTD:winsig.obj
 0002:00010ad0       ??_C@_0DA@ELJOOIJF@f?3?2dd?2vctools?2crt_bld?2self_x86?2c@ 0047ead0     LIBCMTD:winsig.obj
 0002:00010b00       ??_C@_1M@DMJEIKHL@?$AAr?$AAa?$AAi?$AAs?$AAe?$AA?$AA@ 0047eb00     LIBCMTD:winsig.obj
 0002:00010b0c       ??_C@_0BI@DFKBFLJE@GetProcessWindowStation?$AA@ 0047eb0c     LIBCMTD:crtmboxw.obj
 0002:00010b24       ??_C@_0BK@DEKFELLI@GetUserObjectInformationW?$AA@ 0047eb24     LIBCMTD:crtmboxw.obj
 0002:00010b40       ??_C@_0BD@HHGDFDBJ@GetLastActivePopup?$AA@ 0047eb40     LIBCMTD:crtmboxw.obj
 0002:00010b54       ??_C@_0BA@HNOPNCHB@GetActiveWindow?$AA@ 0047eb54     LIBCMTD:crtmboxw.obj
 0002:00010b64       ??_C@_0M@DLDCCGNP@MessageBoxW?$AA@ 0047eb64     LIBCMTD:crtmboxw.obj
 0002:00010b70       ??_C@_1BG@GOEBHBDC@?$AAU?$AAS?$AAE?$AAR?$AA3?$AA2?$AA?4?$AAD?$AAL?$AAL?$AA?$AA@ 0047eb70     LIBCMTD:crtmboxw.obj
 0002:00010b88       ??_C@_1BE@BMIJMLDD@?$AA_?$AAs?$AAw?$AAp?$AAr?$AAi?$AAn?$AAt?$AAf?$AA?$AA@ 0047eb88     LIBCMTD:swprintf.obj
 0002:00010ba0       ??_C@_1GE@DKGHLBLP@?$AAf?$AA?3?$AA?2?$AAd?$AAd?$AA?2?$AAv?$AAc?$AAt?$AAo?$AAo?$AAl?$AAs?$AA?2?$AAc?$AAr?$AAt?$AA_?$AAb?$AAl?$AAd?$AA?2?$AAs?$AAe?$AAl?$AAf?$AA_?$AAx?$AA8?$AA6?$AA?2?$AAc@ 0047eba0     LIBCMTD:swprintf.obj
 0002:00010c04       ??_C@_1BC@KIONAFPO@?$AAw?$AAc?$AAs?$AAc?$AAp?$AAy?$AA_?$AAs?$AA?$AA@ 0047ec04     LIBCMTD:wcscpy_s.obj
 0002:00010c18       ??_C@_1FC@PFMLEHKI@?$AA?$CI?$AA?$CI?$AA_?$AAD?$AAs?$AAt?$AA?$CJ?$AA?$CJ?$AA?5?$AA?$CB?$AA?$DN?$AA?5?$AAN?$AAU?$AAL?$AAL?$AA?5?$AA?$CG?$AA?$CG?$AA?5?$AA?$CI?$AA?$CI?$AA_?$AAS?$AAi?$AAz?$AAe?$AAI?$AAn?$AAW?$AAo?$AAr@ 0047ec18     LIBCMTD:wcscpy_s.obj
 0002:00010c70       ??_C@_1GG@CDHAPCGF@?$AAf?$AA?3?$AA?2?$AAd?$AAd?$AA?2?$AAv?$AAc?$AAt?$AAo?$AAo?$AAl?$AAs?$AA?2?$AAc?$AAr?$AAt?$AA_?$AAb?$AAl?$AAd?$AA?2?$AAs?$AAe?$AAl?$AAf?$AA_?$AAx?$AA8?$AA6?$AA?2?$AAc@ 0047ec70     LIBCMTD:handler.obj
 0002:00010cd8       ??_C@_1BC@JLLICHIC@?$AAp?$AAn?$AAh?$AA?5?$AA?$DN?$AA?$DN?$AA?5?$AA0?$AA?$AA@ 0047ecd8     LIBCMTD:handler.obj
 0002:00010cec       ??_C@_1CA@OEHMHBJF@?$AAv?$AAf?$AAp?$AAr?$AAi?$AAn?$AAt?$AAf?$AA_?$AAh?$AAe?$AAl?$AAp?$AAe?$AAr?$AA?$AA@ 0047ecec     LIBCMTD:vfprintf.obj
 0002:00010d10       ??_C@_1GE@PEEPNGBM@?$AAf?$AA?3?$AA?2?$AAd?$AAd?$AA?2?$AAv?$AAc?$AAt?$AAo?$AAo?$AAl?$AAs?$AA?2?$AAc?$AAr?$AAt?$AA_?$AAb?$AAl?$AAd?$AA?2?$AAs?$AAe?$AAl?$AAf?$AA_?$AAx?$AA8?$AA6?$AA?2?$AAc@ 0047ed10     LIBCMTD:vfprintf.obj
 0002:00010d74       ??_C@_0P@GGKDKEEG@runtime?5error?5?$AA@ 0047ed74     LIBCMTD:crt0msg.obj
 0002:00010d84       ??_C@_02PCIJFNDE@?$AN?6?$AA@ 0047ed84     LIBCMTD:crt0msg.obj
 0002:00010d88       ??_C@_0O@MJNIPGOH@TLOSS?5error?$AN?6?$AA@ 0047ed88     LIBCMTD:crt0msg.obj
 0002:00010d98       ??_C@_0N@BONNPDHF@SING?5error?$AN?6?$AA@ 0047ed98     LIBCMTD:crt0msg.obj
 0002:00010da8       ??_C@_0P@MBDAJNE@DOMAIN?5error?$AN?6?$AA@ 0047eda8     LIBCMTD:crt0msg.obj
 0002:00010db8       ??_C@_0BFB@HKKMCDOL@R6034?$AN?6An?5application?5has?5made?5a@ 0047edb8     LIBCMTD:crt0msg.obj
 0002:00010f10       ??_C@_0PH@EPAFIJ@R6033?$AN?6?9?5Attempt?5to?5use?5MSIL?5cod@ 0047ef10     LIBCMTD:crt0msg.obj
 0002:00011008       ??_C@_0DD@BKEEABMM@R6032?$AN?6?9?5not?5enough?5space?5for?5lo@ 0047f008     LIBCMTD:crt0msg.obj
 0002:00011040       ??_C@_0GD@OFKILIED@R6031?$AN?6?9?5Attempt?5to?5initialize?5t@ 0047f040     LIBCMTD:crt0msg.obj
 0002:000110a4       ??_C@_0BP@LPMHJOKI@R6030?$AN?6?9?5CRT?5not?5initialized?$AN?6?$AA@ 0047f0a4     LIBCMTD:crt0msg.obj
 0002:000110c4       ??_C@_0CF@KJDAIALP@R6028?$AN?6?9?5unable?5to?5initialize?5he@ 0047f0c4     LIBCMTD:crt0msg.obj
 0002:000110ec       ??_C@_0DF@GAKBPDFP@R6027?$AN?6?9?5not?5enough?5space?5for?5lo@ 0047f0ec     LIBCMTD:crt0msg.obj
 0002:00011124       ??_C@_0DF@IBLNNAIG@R6026?$AN?6?9?5not?5enough?5space?5for?5st@ 0047f124     LIBCMTD:crt0msg.obj
 0002:0001115c       ??_C@_0CG@IOHKGFNJ@R6025?$AN?6?9?5pure?5virtual?5function?5c@ 0047f15c     LIBCMTD:crt0msg.obj
 0002:00011184       ??_C@_0DF@JIJJFJDC@R6024?$AN?6?9?5not?5enough?5space?5for?5_o@ 0047f184     LIBCMTD:crt0msg.obj
 0002:000111bc       ??_C@_0CJ@EGEJHFME@R6019?$AN?6?9?5unable?5to?5open?5console?5@ 0047f1bc     LIBCMTD:crt0msg.obj
 0002:000111e8       ??_C@_0CB@GNHNIELH@R6018?$AN?6?9?5unexpected?5heap?5error?$AN?6@ 0047f1e8     LIBCMTD:crt0msg.obj
 0002:0001120c       ??_C@_0CN@FOLDKNG@R6017?$AN?6?9?5unexpected?5multithread?5@ 0047f20c     LIBCMTD:crt0msg.obj
 0002:0001123c       ??_C@_0CM@FAHFJNHO@R6016?$AN?6?9?5not?5enough?5space?5for?5th@ 0047f23c     LIBCMTD:crt0msg.obj
 0002:00011268       ??_C@_0JG@LBKMGKLD@?$AN?6This?5application?5has?5requested@ 0047f268     LIBCMTD:crt0msg.obj
 0002:00011300       ??_C@_0CM@FLCNIPKK@R6009?$AN?6?9?5not?5enough?5space?5for?5en@ 0047f300     LIBCMTD:crt0msg.obj
 0002:0001132c       ??_C@_0CK@KMMJOAPP@R6008?$AN?6?9?5not?5enough?5space?5for?5ar@ 0047f32c     LIBCMTD:crt0msg.obj
 0002:00011358       ??_C@_0CN@LEKKICBM@R6002?$AN?6?9?5floating?5point?5support?5@ 0047f358     LIBCMTD:crt0msg.obj
 0002:00011388       ??_C@_0CF@GOGNBNAK@Microsoft?5Visual?5C?$CL?$CL?5Runtime?5Lib@ 0047f388     LIBCMTD:crt0msg.obj
 0002:000113b0       ??_C@_1KC@JBIKIPNF@?$AAs?$AAt?$AAr?$AAc?$AAa?$AAt?$AA_?$AAs?$AA?$CI?$AAo?$AAu?$AAt?$AAm?$AAs?$AAg?$AA?0?$AA?5?$AA?$CI?$AAs?$AAi?$AAz?$AAe?$AAo?$AAf?$AA?$CI?$AAo?$AAu?$AAt?$AAm?$AAs?$AAg?$AA?$CJ@ 0047f3b0     LIBCMTD:crt0msg.obj
 0002:00011454       ??_C@_02PHMGELLB@?6?6?$AA@ 0047f454     LIBCMTD:crt0msg.obj
 0002:00011458       ??_C@_1HO@POLIDBMF@?$AAs?$AAt?$AAr?$AAc?$AAa?$AAt?$AA_?$AAs?$AA?$CI?$AAo?$AAu?$AAt?$AAm?$AAs?$AAg?$AA?0?$AA?5?$AA?$CI?$AAs?$AAi?$AAz?$AAe?$AAo?$AAf?$AA?$CI?$AAo?$AAu?$AAt?$AAm?$AAs?$AAg?$AA?$CJ@ 0047f458     LIBCMTD:crt0msg.obj
 0002:000114d8       ??_C@_03KHICJKCI@?4?4?4?$AA@ 0047f4d8     LIBCMTD:crt0msg.obj
 0002:000114e0       ??_C@_1HG@CJJGKFHK@?$AAs?$AAt?$AAr?$AAn?$AAc?$AAp?$AAy?$AA_?$AAs?$AA?$CI?$AAp?$AAc?$AAh?$AA?0?$AA?5?$AAp?$AAr?$AAo?$AAg?$AAn?$AAa?$AAm?$AAe?$AA_?$AAs?$AAi?$AAz?$AAe?$AA?5?$AA?9?$AA?5?$AA?$CI@ 0047f4e0     LIBCMTD:crt0msg.obj
 0002:00011558       ??_C@_0BH@DNAGHKFM@?$DMprogram?5name?5unknown?$DO?$AA@ 0047f558     LIBCMTD:crt0msg.obj
 0002:00011570       ??_C@_1HI@FOOPEDMH@?$AAs?$AAt?$AAr?$AAc?$AAp?$AAy?$AA_?$AAs?$AA?$CI?$AAp?$AAr?$AAo?$AAg?$AAn?$AAa?$AAm?$AAe?$AA?0?$AA?5?$AAp?$AAr?$AAo?$AAg?$AAn?$AAa?$AAm?$AAe?$AA_?$AAs?$AAi?$AAz?$AAe@ 0047f570     LIBCMTD:crt0msg.obj
 0002:000115e8       ??_C@_0BK@OFGJDLJJ@Runtime?5Error?$CB?6?6Program?3?5?$AA@ 0047f5e8     LIBCMTD:crt0msg.obj
 0002:00011608       ??_C@_1KM@NKKPELHG@?$AAs?$AAt?$AAr?$AAc?$AAp?$AAy?$AA_?$AAs?$AA?$CI?$AAo?$AAu?$AAt?$AAm?$AAs?$AAg?$AA?0?$AA?5?$AA?$CI?$AAs?$AAi?$AAz?$AAe?$AAo?$AAf?$AA?$CI?$AAo?$AAu?$AAt?$AAm?$AAs?$AAg?$AA?$CJ@ 0047f608     LIBCMTD:crt0msg.obj
 0002:000116b4       ??_C@_1BI@EAHMBMEC@?$AA_?$AAN?$AAM?$AAS?$AAG?$AA_?$AAW?$AAR?$AAI?$AAT?$AAE?$AA?$AA@ 0047f6b4     LIBCMTD:crt0msg.obj
 0002:000116d0       ??_C@_1GC@HKOJBOFF@?$AAf?$AA?3?$AA?2?$AAd?$AAd?$AA?2?$AAv?$AAc?$AAt?$AAo?$AAo?$AAl?$AAs?$AA?2?$AAc?$AAr?$AAt?$AA_?$AAb?$AAl?$AAd?$AA?2?$AAs?$AAe?$AAl?$AAf?$AA_?$AAx?$AA8?$AA6?$AA?2?$AAc@ 0047f6d0     LIBCMTD:crt0msg.obj
 0002:00011738       __XcptActTab               0047f738     LIBCMTD:winxfltr.obj
 0002:000117b0       ??_C@_0BC@JEAENNKH@SystemFunction036?$AA@ 0047f7b0     LIBCMTD:rand_s.obj
 0002:000117c8       ??_C@_1GA@EBEDGGGB@?$AA?$CI?$AA?$CC?$AAr?$AAa?$AAn?$AAd?$AA_?$AAs?$AA?5?$AAi?$AAs?$AA?5?$AAn?$AAo?$AAt?$AA?5?$AAa?$AAv?$AAa?$AAi?$AAl?$AAa?$AAb?$AAl?$AAe?$AA?5?$AAo?$AAn?$AA?5?$AAt?$AAh?$AAi@ 0047f7c8     LIBCMTD:rand_s.obj
 0002:00011828       ??_C@_0N@JJPEKNFO@ADVAPI32?4DLL?$AA@ 0047f828     LIBCMTD:rand_s.obj
 0002:00011838       ??_C@_1O@IJGPPOGF@?$AAr?$AAa?$AAn?$AAd?$AA_?$AAs?$AA?$AA@ 0047f838     LIBCMTD:rand_s.obj
 0002:00011848       ??_C@_1GA@HBGBBKCD@?$AAf?$AA?3?$AA?2?$AAd?$AAd?$AA?2?$AAv?$AAc?$AAt?$AAo?$AAo?$AAl?$AAs?$AA?2?$AAc?$AAr?$AAt?$AA_?$AAb?$AAl?$AAd?$AA?2?$AAs?$AAe?$AAl?$AAf?$AA_?$AAx?$AA8?$AA6?$AA?2?$AAc@ 0047f848     LIBCMTD:rand_s.obj
 0002:000118a8       ??_C@_1CK@GFDNDKK@?$AA_?$AAR?$AAa?$AAn?$AAd?$AAo?$AAm?$AAV?$AAa?$AAl?$AAu?$AAe?$AA?5?$AA?$CB?$AA?$DN?$AA?5?$AAN?$AAU?$AAL?$AAL?$AA?$AA@ 0047f8a8     LIBCMTD:rand_s.obj
 0002:000118d8       ??_C@_1GO@NGIGJNHH@?$AAs?$AAt?$AAr?$AAn?$AAc?$AAp?$AAy?$AA_?$AAs?$AA?$CI?$AA?$CK?$AAs?$AAt?$AAr?$AAa?$AAd?$AAd?$AAr?$AAe?$AAs?$AAs?$AA?0?$AA?5?$AAo?$AAu?$AAt?$AAs?$AAi?$AAz?$AAe?$AA?0?$AA?5@ 0047f8d8     LIBCMTD:inithelp.obj
 0002:00011948       ??_C@_1CA@KHHCPEI@?$AA_?$AA_?$AAg?$AAe?$AAt?$AAl?$AAo?$AAc?$AAa?$AAl?$AAe?$AAi?$AAn?$AAf?$AAo?$AA?$AA@ 0047f948     LIBCMTD:inithelp.obj
 0002:00011968       ??_C@_1GE@PLPIMDHG@?$AAf?$AA?3?$AA?2?$AAd?$AAd?$AA?2?$AAv?$AAc?$AAt?$AAo?$AAo?$AAl?$AAs?$AA?2?$AAc?$AAr?$AAt?$AA_?$AAb?$AAl?$AAd?$AA?2?$AAs?$AAe?$AAl?$AAf?$AA_?$AAx?$AA8?$AA6?$AA?2?$AAc@ 0047f968     LIBCMTD:inithelp.obj
 0002:000119cc       ??_C@_0DC@CFDMMFIG@f?3?2dd?2vctools?2crt_bld?2self_x86?2c@ 0047f9cc     LIBCMTD:inithelp.obj
 0002:00011a00       ??_C@_1O@EDOIKGHF@?$AA_?$AAl?$AAs?$AAe?$AAe?$AAk?$AA?$AA@ 0047fa00     LIBCMTD:lseek.obj
 0002:00011a10       ??_C@_1FO@LGKMLCAL@?$AAf?$AA?3?$AA?2?$AAd?$AAd?$AA?2?$AAv?$AAc?$AAt?$AAo?$AAo?$AAl?$AAs?$AA?2?$AAc?$AAr?$AAt?$AA_?$AAb?$AAl?$AAd?$AA?2?$AAs?$AAe?$AAl?$AAf?$AA_?$AAx?$AA8?$AA6?$AA?2?$AAc@ 0047fa10     LIBCMTD:lseek.obj
 0002:00011a70       ??_C@_1DM@LMLOLGJ@?$AA?$CI?$AA?$CC?$AAI?$AAn?$AAv?$AAa?$AAl?$AAi?$AAd?$AA?5?$AAf?$AAi?$AAl?$AAe?$AA?5?$AAd?$AAe?$AAs?$AAc?$AAr?$AAi?$AAp?$AAt?$AAo?$AAr?$AA?$CC?$AA?0?$AA0?$AA?$CJ?$AA?$AA@ 0047fa70     LIBCMTD:lseek.obj
 0002:00011aac       ??_C@_1M@CKCKPMNP@?$AAf?$AAt?$AAe?$AAl?$AAl?$AA?$AA@ 0047faac     LIBCMTD:ftell.obj
 0002:00011ab8       ??_C@_1FO@NBACIADE@?$AAf?$AA?3?$AA?2?$AAd?$AAd?$AA?2?$AAv?$AAc?$AAt?$AAo?$AAo?$AAl?$AAs?$AA?2?$AAc?$AAr?$AAt?$AA_?$AAb?$AAl?$AAd?$AA?2?$AAs?$AAe?$AAl?$AAf?$AA_?$AAx?$AA8?$AA6?$AA?2?$AAc@ 0047fab8     LIBCMTD:ftell.obj
 0002:00011b18       ??_C@_1BM@EPIDANEK@?$AA_?$AAf?$AAt?$AAe?$AAl?$AAl?$AA_?$AAn?$AAo?$AAl?$AAo?$AAc?$AAk?$AA?$AA@ 0047fb18     LIBCMTD:ftell.obj
 0002:00011b34       ??_C@_1DE@MMOGFGHF@?$AAs?$AAt?$AAr?$AAc?$AAp?$AAy?$AA_?$AAs?$AA?$CI?$AA?$CK?$AAe?$AAn?$AAv?$AA?0?$AA?5?$AAc?$AAc?$AAh?$AAa?$AAr?$AAs?$AA?0?$AA?5?$AAp?$AA?$CJ?$AA?$AA@ 0047fb34     LIBCMTD:stdenvp.obj
 0002:00011b68       ??_C@_1BC@GHMCNHHL@?$AA_?$AAs?$AAe?$AAt?$AAe?$AAn?$AAv?$AAp?$AA?$AA@ 0047fb68     LIBCMTD:stdenvp.obj
 0002:00011b80       ??_C@_1GC@DGBFLDBN@?$AAf?$AA?3?$AA?2?$AAd?$AAd?$AA?2?$AAv?$AAc?$AAt?$AAo?$AAo?$AAl?$AAs?$AA?2?$AAc?$AAr?$AAt?$AA_?$AAb?$AAl?$AAd?$AA?2?$AAs?$AAe?$AAl?$AAf?$AA_?$AAx?$AA8?$AA6?$AA?2?$AAc@ 0047fb80     LIBCMTD:stdenvp.obj
 0002:00011be4       ??_C@_0DB@BMEBJJKP@f?3?2dd?2vctools?2crt_bld?2self_x86?2c@ 0047fbe4     LIBCMTD:stdenvp.obj
 0002:00011c18       ??_C@_0DB@OEPBJOLC@f?3?2dd?2vctools?2crt_bld?2self_x86?2c@ 0047fc18     LIBCMTD:stdargv.obj
 0002:00011c4c       ??_C@_0CP@PPLBCJDN@f?3?2dd?2vctools?2crt_bld?2self_x86?2c@ 0047fc4c     LIBCMTD:a_env.obj
 0002:00011c80       ??_C@_1GE@JDDMFOID@?$AAf?$AA?3?$AA?2?$AAd?$AAd?$AA?2?$AAv?$AAc?$AAt?$AAo?$AAo?$AAl?$AAs?$AA?2?$AAc?$AAr?$AAt?$AA_?$AAb?$AAl?$AAd?$AA?2?$AAs?$AAe?$AAl?$AAf?$AA_?$AAx?$AA8?$AA6?$AA?2?$AAc@ 0047fc80     LIBCMTD:heapinit.obj
 0002:00011ce4       ??_C@_1BC@DENNNKIM@?$AA_?$AAc?$AAr?$AAt?$AAh?$AAe?$AAa?$AAp?$AA?$AA@ 0047fce4     LIBCMTD:heapinit.obj
 0002:00011cf8       ??_C@_0BB@NAGLCMLI@Assertion?5Failed?$AA@ 0047fcf8     LIBCMTD:dbgrpt.obj
 0002:00011d0c       ??_C@_05NAOIJFC@Error?$AA@ 0047fd0c     LIBCMTD:dbgrpt.obj
 0002:00011d14       ??_C@_07KGMMFLDN@Warning?$AA@ 0047fd14     LIBCMTD:dbgrpt.obj
 0002:00011d28       ??_C@_1CG@GNMJDMIO@?$AA_?$AAC?$AAr?$AAt?$AAS?$AAe?$AAt?$AAR?$AAe?$AAp?$AAo?$AAr?$AAt?$AAH?$AAo?$AAo?$AAk?$AA2?$AA?$AA@ 0047fd28     LIBCMTD:dbgrpt.obj
 0002:00011d50       ??_C@_0CD@EBCGLDDL@Microsoft?5Visual?5C?$CL?$CL?5Debug?5Libra@ 0047fd50     LIBCMTD:dbgrpt.obj
 0002:00011d78       ??_C@_0FF@CCONDJCB@Debug?5?$CFs?$CB?6?6Program?3?5?$CFs?$CFs?$CFs?$CFs?$CFs?$CFs@ 0047fd78     LIBCMTD:dbgrpt.obj
 0002:00011dd0       ??_C@_09OFBFHMBK@?6Module?3?5?$AA@ 0047fdd0     LIBCMTD:dbgrpt.obj
 0002:00011ddc       ??_C@_07OPHPPLBG@?6File?3?5?$AA@ 0047fddc     LIBCMTD:dbgrpt.obj
 0002:00011de4       ??_C@_07DBMPPHDI@?6Line?3?5?$AA@ 0047fde4     LIBCMTD:dbgrpt.obj
 0002:00011dec       ??_C@_0N@MEECIJGN@Expression?3?5?$AA@ 0047fdec     LIBCMTD:dbgrpt.obj
 0002:00011e00       ??_C@_0HD@GNBNFCCL@?6?6For?5information?5on?5how?5your?5pr@ 0047fe00     LIBCMTD:dbgrpt.obj
 0002:00011e78       ??_C@_1GG@DLDHOIGE@?$AAs?$AAt?$AAr?$AAc?$AAp?$AAy?$AA_?$AAs?$AA?$CI?$AAs?$AAz?$AAE?$AAx?$AAe?$AAN?$AAa?$AAm?$AAe?$AA?0?$AA?5?$AA2?$AA6?$AA0?$AA?0?$AA?5?$AA?$CC?$AA?$DM?$AAp?$AAr?$AAo?$AAg?$AAr@ 0047fe78     LIBCMTD:dbgrpt.obj
 0002:00011ee0       ??_C@_1CI@IDOKFLAJ@?$AA_?$AA_?$AAc?$AAr?$AAt?$AAM?$AAe?$AAs?$AAs?$AAa?$AAg?$AAe?$AAW?$AAi?$AAn?$AAd?$AAo?$AAw?$AAA?$AA?$AA@ 0047fee0     LIBCMTD:dbgrpt.obj
 0002:00011f08       ??_C@_1BK@JMCGJOCC@?$AA_?$AAe?$AAx?$AAp?$AAa?$AAn?$AAd?$AA_?$AAb?$AAa?$AAs?$AAe?$AA?$AA@ 0047ff08     LIBCMTD:expand.obj
 0002:00011f28       ??_C@_1GA@EBHFLDNH@?$AAf?$AA?3?$AA?2?$AAd?$AAd?$AA?2?$AAv?$AAc?$AAt?$AAo?$AAo?$AAl?$AAs?$AA?2?$AAc?$AAr?$AAt?$AA_?$AAb?$AAl?$AAd?$AA?2?$AAs?$AAe?$AAl?$AAf?$AA_?$AAx?$AA8?$AA6?$AA?2?$AAc@ 0047ff28     LIBCMTD:expand.obj
 0002:00011f88       ??_C@_1BO@KFIJIAEA@?$AAp?$AAB?$AAl?$AAo?$AAc?$AAk?$AA?5?$AA?$CB?$AA?$DN?$AA?5?$AAN?$AAU?$AAL?$AAL?$AA?$AA@ 0047ff88     LIBCMTD:expand.obj
 0002:00011fa8       ??_C@_0BF@PEEJCKGM@HeapQueryInformation?$AA@ 0047ffa8     LIBCMTD:expand.obj
 0002:00011fc0       ??_C@_1BK@MGMFAEKH@?$AAk?$AAe?$AAr?$AAn?$AAe?$AAl?$AA3?$AA2?$AA?4?$AAd?$AAl?$AAl?$AA?$AA@ 0047ffc0     LIBCMTD:expand.obj
 0002:00011fe0       ??_C@_1GA@CMCJKKIB@?$AAf?$AA?3?$AA?2?$AAd?$AAd?$AA?2?$AAv?$AAc?$AAt?$AAo?$AAo?$AAl?$AAs?$AA?2?$AAc?$AAr?$AAt?$AA_?$AAb?$AAl?$AAd?$AA?2?$AAs?$AAe?$AAl?$AAf?$AA_?$AAx?$AA8?$AA6?$AA?2?$AAc@ 0047ffe0     LIBCMTD:sbheap.obj
 0002:00012040       ??_C@_1IC@MOGBEBCE@?$AA?$CI?$AAt?$AAh?$AAr?$AAe?$AAs?$AAh?$AAo?$AAl?$AAd?$AA?5?$AA?$DM?$AA?$DN?$AA?5?$AAM?$AAA?$AAX?$AA_?$AAA?$AAL?$AAL?$AAO?$AAC?$AA_?$AAD?$AAA?$AAT?$AAA?$AA_?$AAS?$AAI?$AAZ@ 00480040     LIBCMTD:sbheap.obj
 0002:000120c4       ??_C@_1CG@BBFCGKBK@?$AA_?$AAs?$AAe?$AAt?$AA_?$AAs?$AAb?$AAh?$AA_?$AAt?$AAh?$AAr?$AAe?$AAs?$AAh?$AAo?$AAl?$AAd?$AA?$AA@ 004800c4     LIBCMTD:sbheap.obj
 0002:000120f0       ??_C@_1EC@DACAONFE@?$AAt?$AAh?$AAr?$AAe?$AAs?$AAh?$AAo?$AAl?$AAd?$AA?5?$AA?$DM?$AA?$DN?$AA?5?$AAM?$AAA?$AAX?$AA_?$AAA?$AAL?$AAL?$AAO?$AAC?$AA_?$AAD?$AAA?$AAT?$AAA?$AA_?$AAS?$AAI?$AAZ?$AAE@ 004800f0     LIBCMTD:sbheap.obj
 0002:00012134       ??_C@_1BM@GFNECEDD@?$AA_?$AAs?$AAe?$AAt?$AA_?$AAa?$AAm?$AAb?$AAl?$AAk?$AAs?$AAi?$AAz?$AA?$AA@ 00480134     LIBCMTD:sbheap.obj
 0002:00012150       ??_C@_1DK@BKLENMLC@?$AA0?$AA?5?$AA?$DM?$AA?5?$AAs?$AAi?$AAz?$AAe?$AA?5?$AA?$CG?$AA?$CG?$AA?5?$AAs?$AAi?$AAz?$AAe?$AA?5?$AA?$DM?$AA?$DN?$AA?5?$AAU?$AAI?$AAN?$AAT?$AA_?$AAM?$AAA?$AAX?$AA?$AA@ 00480150     LIBCMTD:sbheap.obj
 0002:0001218c       ??_C@_1BM@OFBCOJJF@?$AA_?$AAg?$AAe?$AAt?$AA_?$AAa?$AAm?$AAb?$AAl?$AAk?$AAs?$AAi?$AAz?$AA?$AA@ 0048018c     LIBCMTD:sbheap.obj
 0002:000121a8       ??_C@_1BM@IELHFPPM@?$AAp?$AAS?$AAi?$AAz?$AAe?$AA?5?$AA?$CB?$AA?$DN?$AA?5?$AAN?$AAU?$AAL?$AAL?$AA?$AA@ 004801a8     LIBCMTD:sbheap.obj
 0002:000121c4       ??_C@_1O@KLNKIMAP@?$AAf?$AAw?$AAr?$AAi?$AAt?$AAe?$AA?$AA@ 004801c4     LIBCMTD:fwrite.obj
 0002:000121d8       ??_C@_1GA@DOFNKKGD@?$AAf?$AA?3?$AA?2?$AAd?$AAd?$AA?2?$AAv?$AAc?$AAt?$AAo?$AAo?$AAl?$AAs?$AA?2?$AAc?$AAr?$AAt?$AA_?$AAb?$AAl?$AAd?$AA?2?$AAs?$AAe?$AAl?$AAf?$AA_?$AAx?$AA8?$AA6?$AA?2?$AAc@ 004801d8     LIBCMTD:fwrite.obj
 0002:00012238       ??_C@_1DC@FHEPNAPF@?$AAn?$AAu?$AAm?$AA?5?$AA?$DM?$AA?$DN?$AA?5?$AA?$CI?$AAS?$AAI?$AAZ?$AAE?$AA_?$AAM?$AAA?$AAX?$AA?5?$AA?1?$AA?5?$AAs?$AAi?$AAz?$AAe?$AA?$CJ?$AA?$AA@ 00480238     LIBCMTD:fwrite.obj
 0002:0001226c       ??_C@_1BO@JGPKCBCE@?$AA_?$AAf?$AAw?$AAr?$AAi?$AAt?$AAe?$AA_?$AAn?$AAo?$AAl?$AAo?$AAc?$AAk?$AA?$AA@ 0048026c     LIBCMTD:fwrite.obj
 0002:0001228c       ??_C@_1BA@FLNMBBIM@?$AA_?$AAc?$AAo?$AAm?$AAm?$AAi?$AAt?$AA?$AA@ 0048028c     LIBCMTD:commit.obj
 0002:000122a0       ??_C@_1GA@BOPCOCFN@?$AAf?$AA?3?$AA?2?$AAd?$AAd?$AA?2?$AAv?$AAc?$AAt?$AAo?$AAo?$AAl?$AAs?$AA?2?$AAc?$AAr?$AAt?$AA_?$AAb?$AAl?$AAd?$AA?2?$AAs?$AAe?$AAl?$AAf?$AA_?$AAx?$AA8?$AA6?$AA?2?$AAc@ 004802a0     LIBCMTD:commit.obj
 0002:00012300       ??_C@_1O@KOFKDHPL@?$AA_?$AAw?$AAr?$AAi?$AAt?$AAe?$AA?$AA@ 00480300     LIBCMTD:write.obj
 0002:00012310       ??_C@_1FO@EPLDPDDL@?$AAf?$AA?3?$AA?2?$AAd?$AAd?$AA?2?$AAv?$AAc?$AAt?$AAo?$AAo?$AAl?$AAs?$AA?2?$AAc?$AAr?$AAt?$AA_?$AAb?$AAl?$AAd?$AA?2?$AAs?$AAe?$AAl?$AAf?$AA_?$AAx?$AA8?$AA6?$AA?2?$AAc@ 00480310     LIBCMTD:write.obj
 0002:00012370       ??_C@_1DI@CNMHHHLG@?$AAi?$AAs?$AAl?$AAe?$AAa?$AAd?$AAb?$AAy?$AAt?$AAe?$AA?$CI?$AA_?$AAd?$AAb?$AAc?$AAs?$AAB?$AAu?$AAf?$AAf?$AAe?$AAr?$AA?$CI?$AAf?$AAh?$AA?$CJ?$AA?$CJ?$AA?$AA@ 00480370     LIBCMTD:write.obj
 0002:000123a8       ??_C@_1BM@NCANHCIP@?$AA_?$AAw?$AAr?$AAi?$AAt?$AAe?$AA_?$AAn?$AAo?$AAl?$AAo?$AAc?$AAk?$AA?$AA@ 004803a8     LIBCMTD:write.obj
 0002:000123c4       ??_C@_1BM@KFJLMBPG@?$AA?$CI?$AAb?$AAu?$AAf?$AA?5?$AA?$CB?$AA?$DN?$AA?5?$AAN?$AAU?$AAL?$AAL?$AA?$CJ?$AA?$AA@ 004803c4     LIBCMTD:write.obj
 0002:000123e0       ??_C@_1BE@KHFBJMNM@?$AA_?$AAl?$AAs?$AAe?$AAe?$AAk?$AAi?$AA6?$AA4?$AA?$AA@ 004803e0     LIBCMTD:lseeki64.obj
 0002:000123f8       ??_C@_1GE@MINKPNPH@?$AAf?$AA?3?$AA?2?$AAd?$AAd?$AA?2?$AAv?$AAc?$AAt?$AAo?$AAo?$AAl?$AAs?$AA?2?$AAc?$AAr?$AAt?$AA_?$AAb?$AAl?$AAd?$AA?2?$AAs?$AAe?$AAl?$AAf?$AA_?$AAx?$AA8?$AA6?$AA?2?$AAc@ 004803f8     LIBCMTD:lseeki64.obj
 0002:0001245c       ??_C@_0DB@JEHOCBEJ@f?3?2dd?2vctools?2crt_bld?2self_x86?2c@ 0048045c     LIBCMTD:_getbuf.obj
 0002:00012490       ??_C@_1GC@DKMGNNCC@?$AAf?$AA?3?$AA?2?$AAd?$AAd?$AA?2?$AAv?$AAc?$AAt?$AAo?$AAo?$AAl?$AAs?$AA?2?$AAc?$AAr?$AAt?$AA_?$AAb?$AAl?$AAd?$AA?2?$AAs?$AAe?$AAl?$AAf?$AA_?$AAx?$AA8?$AA6?$AA?2?$AAc@ 00480490     LIBCMTD:_getbuf.obj
 0002:000124f4       ??_C@_1BA@LEBDGIHM@?$AA_?$AAi?$AAs?$AAa?$AAt?$AAt?$AAy?$AA?$AA@ 004804f4     LIBCMTD:isatty.obj
 0002:00012508       ??_C@_1GA@LPGDJDEN@?$AAf?$AA?3?$AA?2?$AAd?$AAd?$AA?2?$AAv?$AAc?$AAt?$AAo?$AAo?$AAl?$AAs?$AA?2?$AAc?$AAr?$AAt?$AA_?$AAb?$AAl?$AAd?$AA?2?$AAs?$AAe?$AAl?$AAf?$AA_?$AAx?$AA8?$AA6?$AA?2?$AAc@ 00480508     LIBCMTD:isatty.obj
 0002:00012568       ??_C@_1BI@IEADNOHF@?$AA_?$AAw?$AAc?$AAt?$AAo?$AAm?$AAb?$AA_?$AAs?$AA_?$AAl?$AA?$AA@ 00480568     LIBCMTD:wctomb.obj
 0002:00012580       ??_C@_1GA@LDLHPOO@?$AAf?$AA?3?$AA?2?$AAd?$AAd?$AA?2?$AAv?$AAc?$AAt?$AAo?$AAo?$AAl?$AAs?$AA?2?$AAc?$AAr?$AAt?$AA_?$AAb?$AAl?$AAd?$AA?2?$AAs?$AAe?$AAl?$AAf?$AA_?$AAx?$AA8?$AA6?$AA?2?$AAc@ 00480580     LIBCMTD:wctomb.obj
 0002:000125e0       ??_C@_1CO@HFMIILNF@?$AAs?$AAi?$AAz?$AAe?$AAI?$AAn?$AAB?$AAy?$AAt?$AAe?$AAs?$AA?5?$AA?$DM?$AA?$DN?$AA?5?$AAI?$AAN?$AAT?$AA_?$AAM?$AAA?$AAX?$AA?$AA@ 004805e0     LIBCMTD:wctomb.obj
 0002:00012610       ??_C@_1FK@BCPANIEK@?$AA?$CI?$AA?$CC?$AAM?$AAi?$AAs?$AAs?$AAi?$AAn?$AAg?$AA?5?$AAp?$AAo?$AAs?$AAi?$AAt?$AAi?$AAo?$AAn?$AA?5?$AAi?$AAn?$AA?5?$AAt?$AAh?$AAe?$AA?5?$AAf?$AAo?$AAr?$AAm?$AAa?$AAt@ 00480610     LIBCMTD:outputp.obj
 0002:00012670       ??_C@_1FK@LNCFKALM@?$AA?$CI?$AA?$CI?$AAs?$AAt?$AAa?$AAt?$AAe?$AA?5?$AA?$DN?$AA?$DN?$AA?5?$AAS?$AAT?$AA_?$AAN?$AAO?$AAR?$AAM?$AAA?$AAL?$AA?$CJ?$AA?5?$AA?$HM?$AA?$HM?$AA?5?$AA?$CI?$AAs?$AAt?$AAa?$AAt?$AAe?$AA?5@ 00480670     LIBCMTD:outputp.obj
 0002:000126d0       ??_C@_1JC@OACKELNN@?$AA_?$AAt?$AAv?$AAa?$AAl?$AAi?$AAd?$AAa?$AAt?$AAe?$AA_?$AAp?$AAa?$AAr?$AAa?$AAm?$AA_?$AAr?$AAe?$AAu?$AAs?$AAe?$AA?$CI?$AA?$CG?$AAp?$AAo?$AAs?$AA_?$AAv?$AAa?$AAl?$AAu@ 004806d0     LIBCMTD:outputp.obj
 0002:00012768       ??_C@_1IK@NBGDDCBN@?$AA_?$AAt?$AAv?$AAa?$AAl?$AAi?$AAd?$AAa?$AAt?$AAe?$AA_?$AAp?$AAa?$AAr?$AAa?$AAm?$AA_?$AAr?$AAe?$AAu?$AAs?$AAe?$AA?$CI?$AA?$CG?$AAp?$AAo?$AAs?$AA_?$AAv?$AAa?$AAl?$AAu@ 00480768     LIBCMTD:outputp.obj
 0002:000127f4       ??_C@_1DG@GOHGNKHE@?$AAp?$AAa?$AAs?$AAs?$AA?5?$AA?$DN?$AA?$DN?$AA?5?$AAF?$AAO?$AAR?$AAM?$AAA?$AAT?$AA_?$AAO?$AAU?$AAT?$AAP?$AAU?$AAT?$AA_?$AAP?$AAA?$AAS?$AAS?$AA?$AA@ 004807f4     LIBCMTD:outputp.obj
 0002:00012830       ??_C@_1IM@DNGHAPLB@?$AA_?$AAt?$AAv?$AAa?$AAl?$AAi?$AAd?$AAa?$AAt?$AAe?$AA_?$AAp?$AAa?$AAr?$AAa?$AAm?$AA_?$AAr?$AAe?$AAu?$AAs?$AAe?$AA?$CI?$AA?$CG?$AAp?$AAo?$AAs?$AA_?$AAv?$AAa?$AAl?$AAu@ 00480830     LIBCMTD:outputp.obj
 0002:000128c0       ??_C@_1IG@HJIMKDHC@?$AA_?$AAt?$AAv?$AAa?$AAl?$AAi?$AAd?$AAa?$AAt?$AAe?$AA_?$AAp?$AAa?$AAr?$AAa?$AAm?$AA_?$AAr?$AAe?$AAu?$AAs?$AAe?$AA?$CI?$AA?$CG?$AAp?$AAo?$AAs?$AA_?$AAv?$AAa?$AAl?$AAu@ 004808c0     LIBCMTD:outputp.obj
 0002:00012948       ??_C@_1IG@FDCPLALG@?$AA_?$AAt?$AAv?$AAa?$AAl?$AAi?$AAd?$AAa?$AAt?$AAe?$AA_?$AAp?$AAa?$AAr?$AAa?$AAm?$AA_?$AAr?$AAe?$AAu?$AAs?$AAe?$AA?$CI?$AA?$CG?$AAp?$AAo?$AAs?$AA_?$AAv?$AAa?$AAl?$AAu@ 00480948     LIBCMTD:outputp.obj
 0002:000129d0       ??_C@_1IK@MHEDJAMK@?$AA_?$AAt?$AAv?$AAa?$AAl?$AAi?$AAd?$AAa?$AAt?$AAe?$AA_?$AAp?$AAa?$AAr?$AAa?$AAm?$AA_?$AAr?$AAe?$AAu?$AAs?$AAe?$AA?$CI?$AA?$CG?$AAp?$AAo?$AAs?$AA_?$AAv?$AAa?$AAl?$AAu@ 004809d0     LIBCMTD:outputp.obj
 0002:00012a60       ??_C@_1EM@BNPHBBIA@?$AA?$CI?$AA?$CI?$AAt?$AAy?$AAp?$AAe?$AA_?$AAp?$AAo?$AAs?$AA?$DO?$AA?$DN?$AA0?$AA?$CJ?$AA?5?$AA?$CG?$AA?$CG?$AA?5?$AA?$CI?$AAt?$AAy?$AAp?$AAe?$AA_?$AAp?$AAo?$AAs?$AA?$DM?$AA_?$AAA?$AAR?$AAG@ 00480a60     LIBCMTD:outputp.obj
 0002:00012ab0       ??_C@_1IK@EIEPDKHJ@?$AA_?$AAt?$AAv?$AAa?$AAl?$AAi?$AAd?$AAa?$AAt?$AAe?$AA_?$AAp?$AAa?$AAr?$AAa?$AAm?$AA_?$AAr?$AAe?$AAu?$AAs?$AAe?$AA?$CI?$AA?$CG?$AAp?$AAo?$AAs?$AA_?$AAv?$AAa?$AAl?$AAu@ 00480ab0     LIBCMTD:outputp.obj
 0002:00012b40       ??_C@_1JG@JBJBOCFB@?$AA?$CI?$AA?$CI?$AAp?$AAr?$AAe?$AAc?$AAi?$AAs?$AA_?$AAp?$AAo?$AAs?$AA?5?$AA?$DO?$AA?$DN?$AA?5?$AA0?$AA?$CJ?$AA?5?$AA?$CG?$AA?$CG?$AA?5?$AA?$CI?$AA?$CK?$AAe?$AAn?$AAd?$AA_?$AAp?$AAo?$AAs?$AA?5@ 00480b40     LIBCMTD:outputp.obj
 0002:00012bd8       ??_C@_1II@PIPIMLPF@?$AA_?$AAt?$AAv?$AAa?$AAl?$AAi?$AAd?$AAa?$AAt?$AAe?$AA_?$AAp?$AAa?$AAr?$AAa?$AAm?$AA_?$AAr?$AAe?$AAu?$AAs?$AAe?$AA?$CI?$AA?$CG?$AAp?$AAo?$AAs?$AA_?$AAv?$AAa?$AAl?$AAu@ 00480bd8     LIBCMTD:outputp.obj
 0002:00012c60       ??_C@_1JE@NMBHOLFI@?$AA?$CI?$AA?$CI?$AAw?$AAi?$AAd?$AAt?$AAh?$AA_?$AAp?$AAo?$AAs?$AA?5?$AA?$DO?$AA?$DN?$AA?5?$AA0?$AA?$CJ?$AA?5?$AA?$CG?$AA?$CG?$AA?5?$AA?$CI?$AA?$CK?$AAe?$AAn?$AAd?$AA_?$AAp?$AAo?$AAs?$AA?5?$AA?$DN@ 00480c60     LIBCMTD:outputp.obj
 0002:00012cf8       ??_C@_1EE@DMAIGNBG@?$AA?$CI?$AA?$CC?$AAI?$AAn?$AAc?$AAo?$AAr?$AAr?$AAe?$AAc?$AAt?$AA?5?$AAf?$AAo?$AAr?$AAm?$AAa?$AAt?$AA?5?$AAs?$AAp?$AAe?$AAc?$AAi?$AAf?$AAi?$AAe?$AAr?$AA?$CC?$AA?0?$AA?5?$AA0@ 00480cf8     LIBCMTD:outputp.obj
 0002:00012d40       ??_C@_1JC@PFJNKEIO@?$AA?$CI?$AA?$CI?$AAt?$AAy?$AAp?$AAe?$AA_?$AAp?$AAo?$AAs?$AA?5?$AA?$DO?$AA?$DN?$AA?5?$AA0?$AA?$CJ?$AA?5?$AA?$CG?$AA?$CG?$AA?5?$AA?$CI?$AA?$CK?$AAe?$AAn?$AAd?$AA_?$AAp?$AAo?$AAs?$AA?5?$AA?$DN?$AA?$DN@ 00480d40     LIBCMTD:outputp.obj
 0002:00012dd4       ??_C@_1BI@KANOLAMF@?$AA_?$AAo?$AAu?$AAt?$AAp?$AAu?$AAt?$AA_?$AAp?$AA_?$AAl?$AA?$AA@ 00480dd4     LIBCMTD:outputp.obj
 0002:00012df0       ___lookuptable_s           00480df0     LIBCMTD:outputs.obj
 0002:00012e4c       ??_C@_1BI@COFBLHCG@?$AA_?$AAo?$AAu?$AAt?$AAp?$AAu?$AAt?$AA_?$AAs?$AA_?$AAl?$AA?$AA@ 00480e4c     LIBCMTD:outputs.obj
 0002:00012e68       ??_C@_1GA@GFFDGGFH@?$AAf?$AA?3?$AA?2?$AAd?$AAd?$AA?2?$AAv?$AAc?$AAt?$AAo?$AAo?$AAl?$AAs?$AA?2?$AAc?$AAr?$AAt?$AA_?$AAb?$AAl?$AAd?$AA?2?$AAs?$AAe?$AAl?$AAf?$AA_?$AAx?$AA8?$AA6?$AA?2?$AAc@ 00480e68     LIBCMTD:mbtowc.obj
 0002:00012ec8       ??_C@_1NC@EINCOKCO@?$AA_?$AAl?$AAo?$AAc?$AA_?$AAu?$AAp?$AAd?$AAa?$AAt?$AAe?$AA?4?$AAG?$AAe?$AAt?$AAL?$AAo?$AAc?$AAa?$AAl?$AAe?$AAT?$AA?$CI?$AA?$CJ?$AA?9?$AA?$DO?$AAl?$AAo?$AAc?$AAi?$AAn?$AAf@ 00480ec8     LIBCMTD:mbtowc.obj
 0002:00012f9c       ??_C@_1O@JDPLECOK@?$AAu?$AAn?$AAg?$AAe?$AAt?$AAc?$AA?$AA@ 00480f9c     LIBCMTD:ungetc.obj
 0002:00012fb0       ??_C@_1GA@OAFAANFO@?$AAf?$AA?3?$AA?2?$AAd?$AAd?$AA?2?$AAv?$AAc?$AAt?$AAo?$AAo?$AAl?$AAs?$AA?2?$AAc?$AAr?$AAt?$AA_?$AAb?$AAl?$AAd?$AA?2?$AAs?$AAe?$AAl?$AAf?$AA_?$AAx?$AA8?$AA6?$AA?2?$AAc@ 00480fb0     LIBCMTD:ungetc.obj
 0002:00013010       ??_C@_1BO@OLMLKKEA@?$AA_?$AAu?$AAn?$AAg?$AAe?$AAt?$AAc?$AA_?$AAn?$AAo?$AAl?$AAo?$AAc?$AAk?$AA?$AA@ 00481010     LIBCMTD:ungetc.obj
 0002:00013030       ??_C@_1HC@OEJDDIIH@?$AAf?$AA?3?$AA?2?$AAd?$AAd?$AA?2?$AAv?$AAc?$AAt?$AAo?$AAo?$AAl?$AAs?$AA?2?$AAc?$AAr?$AAt?$AA_?$AAb?$AAl?$AAd?$AA?2?$AAs?$AAe?$AAl?$AAf?$AA_?$AAx?$AA8?$AA6?$AA?2?$AAc@ 00481030     LIBCMTD:ungetc.obj
 0002:000130a4       ??_C@_0BK@CFCOFLF@?5Complete?5Object?5Locator?8?$AA@ 004810a4     LIBCMTD:undname.obj
 0002:000130c0       ??_C@_0BN@MECKDCOJ@?5Class?5Hierarchy?5Descriptor?8?$AA@ 004810c0     LIBCMTD:undname.obj
 0002:000130e0       ??_C@_0BD@LGICGFMM@?5Base?5Class?5Array?8?$AA@ 004810e0     LIBCMTD:undname.obj
 0002:000130f4       ??_C@_0BM@LDKODKLH@?5Base?5Class?5Descriptor?5at?5?$CI?$AA@ 004810f4     LIBCMTD:undname.obj
 0002:00013110       ??_C@_0BC@DAFEJGAK@?5Type?5Descriptor?8?$AA@ 00481110     LIBCMTD:undname.obj
 0002:00013124       ??_C@_0BM@PMGGMLDN@?$GAlocal?5static?5thread?5guard?8?$AA@ 00481124     LIBCMTD:undname.obj
 0002:00013140       ??_C@_0CL@FGIJHLCE@?$GAmanaged?5vector?5copy?5constructor@ 00481140     LIBCMTD:undname.obj
 0002:0001316c       ??_C@_0CJ@GJELGAMM@?$GAvector?5vbase?5copy?5constructor?5i@ 0048116c     LIBCMTD:undname.obj
 0002:00013198       ??_C@_0CD@CGAJBKEJ@?$GAvector?5copy?5constructor?5iterato@ 00481198     LIBCMTD:undname.obj
 0002:000131bc       ??_C@_0CB@PDBIFEP@?$GAdynamic?5atexit?5destructor?5for?5?8@ 004811bc     LIBCMTD:undname.obj
 0002:000131e0       ??_C@_0BL@CLIPGLGB@?$GAdynamic?5initializer?5for?5?8?$AA@ 004811e0     LIBCMTD:undname.obj
 0002:000131fc       ??_C@_0CM@FCBBDIGB@?$GAeh?5vector?5vbase?5copy?5constructo@ 004811fc     LIBCMTD:undname.obj
 0002:00013228       ??_C@_0CG@HLDDJMAG@?$GAeh?5vector?5copy?5constructor?5iter@ 00481228     LIBCMTD:undname.obj
 0002:00013250       ??_C@_0CF@IMGKMJNO@?$GAmanaged?5vector?5destructor?5itera@ 00481250     LIBCMTD:undname.obj
 0002:00013278       ??_C@_0CG@CFDHKGGD@?$GAmanaged?5vector?5constructor?5iter@ 00481278     LIBCMTD:undname.obj
 0002:000132a0       ??_C@_0BN@CKNJLHMB@?$GAplacement?5delete?$FL?$FN?5closure?8?$AA@ 004812a0     LIBCMTD:undname.obj
 0002:000132c0       ??_C@_0BL@CNOONJFP@?$GAplacement?5delete?5closure?8?$AA@ 004812c0     LIBCMTD:undname.obj
 0002:000132dc       ??_C@_0P@HJKNJFNN@?$GAomni?5callsig?8?$AA@ 004812dc     LIBCMTD:undname.obj
 0002:000132ec       ??_C@_09LBNFPBCA@?5delete?$FL?$FN?$AA@ 004812ec     LIBCMTD:undname.obj
 0002:000132f8       ??_C@_06FHBGPFGH@?5new?$FL?$FN?$AA@ 004812f8     LIBCMTD:undname.obj
 0002:00013300       ??_C@_0CE@IIHCMGGL@?$GAlocal?5vftable?5constructor?5closu@ 00481300     LIBCMTD:undname.obj
 0002:00013324       ??_C@_0BA@KKLDJDLB@?$GAlocal?5vftable?8?$AA@ 00481324     LIBCMTD:undname.obj
 0002:00013334       ??_C@_05KHLCHHI@?$GARTTI?$AA@ 00481334     LIBCMTD:undname.obj
 0002:0001333c       ??_C@_03KLGMFNMG@?$GAEH?$AA@ 0048133c     LIBCMTD:undname.obj
 0002:00013340       ??_C@_0BA@KBCDOMBN@?$GAudt?5returning?8?$AA@ 00481340     LIBCMTD:undname.obj
 0002:00013350       ??_C@_0BL@LLKPOHJI@?$GAcopy?5constructor?5closure?8?$AA@ 00481350     LIBCMTD:undname.obj
 0002:0001336c       ??_C@_0CH@OOJPLCPH@?$GAeh?5vector?5vbase?5constructor?5ite@ 0048136c     LIBCMTD:undname.obj
 0002:00013394       ??_C@_0CA@GCEOPDGL@?$GAeh?5vector?5destructor?5iterator?8?$AA@ 00481394     LIBCMTD:undname.obj
 0002:000133b4       ??_C@_0CB@JONCMFFK@?$GAeh?5vector?5constructor?5iterator?8@ 004813b4     LIBCMTD:undname.obj
 0002:000133d8       ??_C@_0BL@NILFHHPC@?$GAvirtual?5displacement?5map?8?$AA@ 004813d8     LIBCMTD:undname.obj
 0002:000133f4       ??_C@_0CE@IKBNEHA@?$GAvector?5vbase?5constructor?5iterat@ 004813f4     LIBCMTD:undname.obj
 0002:00013418       ??_C@_0BN@LFPFMEDL@?$GAvector?5destructor?5iterator?8?$AA@ 00481418     LIBCMTD:undname.obj
 0002:00013438       ??_C@_0BO@PFGOCPJJ@?$GAvector?5constructor?5iterator?8?$AA@ 00481438     LIBCMTD:undname.obj
 0002:00013458       ??_C@_0BN@IMDCHIKM@?$GAscalar?5deleting?5destructor?8?$AA@ 00481458     LIBCMTD:undname.obj
 0002:00013478       ??_C@_0BO@OBMKPJIG@?$GAdefault?5constructor?5closure?8?$AA@ 00481478     LIBCMTD:undname.obj
 0002:00013498       ??_C@_0BN@DEGPLNFK@?$GAvector?5deleting?5destructor?8?$AA@ 00481498     LIBCMTD:undname.obj
 0002:000134b8       ??_C@_0BD@JDLKDPAB@?$GAvbase?5destructor?8?$AA@ 004814b8     LIBCMTD:undname.obj
 0002:000134cc       ??_C@_08OBABFOLI@?$GAstring?8?$AA@ 004814cc     LIBCMTD:undname.obj
 0002:000134d8       ??_C@_0BF@KDPPACIK@?$GAlocal?5static?5guard?8?$AA@ 004814d8     LIBCMTD:undname.obj
 0002:000134f0       ??_C@_08LLFFHHDJ@?$GAtypeof?8?$AA@ 004814f0     LIBCMTD:undname.obj
 0002:000134fc       ??_C@_07FEEIOKP@?$GAvcall?8?$AA@ 004814fc     LIBCMTD:undname.obj
 0002:00013504       ??_C@_09BLBHBJP@?$GAvbtable?8?$AA@ 00481504     LIBCMTD:undname.obj
 0002:00013510       ??_C@_09IFPLHPGF@?$GAvftable?8?$AA@ 00481510     LIBCMTD:undname.obj
 0002:0001351c       ??_C@_02MHEGNOJ@?$FO?$DN?$AA@ 0048151c     LIBCMTD:undname.obj
 0002:00013520       ??_C@_02DHLNPPGH@?$HM?$DN?$AA@ 00481520     LIBCMTD:undname.obj
 0002:00013524       ??_C@_02FGJGFEAB@?$CG?$DN?$AA@ 00481524     LIBCMTD:undname.obj
 0002:00013528       ??_C@_03CDNPDDLA@?$DM?$DM?$DN?$AA@ 00481528     LIBCMTD:undname.obj
 0002:0001352c       ??_C@_03IKFCCPFF@?$DO?$DO?$DN?$AA@ 0048152c     LIBCMTD:undname.obj
 0002:00013530       ??_C@_02FENAOKFI@?$CF?$DN?$AA@ 00481530     LIBCMTD:undname.obj
 0002:00013534       ??_C@_02FJEHGPIO@?1?$DN?$AA@ 00481534     LIBCMTD:undname.obj
 0002:00013538       ??_C@_02FKMDLLOA@?9?$DN?$AA@ 00481538     LIBCMTD:undname.obj
 0002:0001353c       ??_C@_02FOEOMHFC@?$CL?$DN?$AA@ 0048153c     LIBCMTD:undname.obj
 0002:00013540       ??_C@_02FPIMKNGF@?$CK?$DN?$AA@ 00481540     LIBCMTD:undname.obj
 0002:00013544       ??_C@_02NONPIBCD@?$HM?$HM?$AA@ 00481544     LIBCMTD:undname.obj
 0002:00013548       ??_C@_02PPKAJPJL@?$CG?$CG?$AA@ 00481548     LIBCMTD:undname.obj
 0002:0001354c       ??_C@_01DNKMNLPK@?$HM?$AA@ 0048154c     LIBCMTD:undname.obj
 0002:00013550       ??_C@_01JKBOJNNK@?$FO?$AA@ 00481550     LIBCMTD:undname.obj
 0002:00013554       ??_C@_01PJKLJHI@?$HO?$AA@  00481554     LIBCMTD:undname.obj
 0002:00013558       ??_C@_02HCKGKOFO@?$CI?$CJ?$AA@ 00481558     LIBCMTD:undname.obj
 0002:0001355c       ??_C@_01IHBHIGKO@?0?$AA@   0048155c     LIBCMTD:undname.obj
 0002:00013560       ??_C@_02EEKDKGMJ@?$DO?$DN?$AA@ 00481560     LIBCMTD:undname.obj
 0002:00013564       ??_C@_01PPODPGHN@?$DO?$AA@ 00481564     LIBCMTD:undname.obj
 0002:00013568       ??_C@_02EHCHHCKH@?$DM?$DN?$AA@ 00481568     LIBCMTD:undname.obj
 0002:0001356c       ??_C@_01MNNFJEPP@?$DM?$AA@ 0048156c     LIBCMTD:undname.obj
 0002:00013570       ??_C@_01FGNFDNOH@?$CF?$AA@ 00481570     LIBCMTD:undname.obj
 0002:00013574       ??_C@_01KMDKNFGN@?1?$AA@   00481574     LIBCMTD:undname.obj
 0002:00013578       ??_C@_03MNHNFDLC@?9?$DO?$CK?$AA@ 00481578     LIBCMTD:undname.obj
 0002:0001357c       ??_C@_01HNPIGOCE@?$CG?$AA@ 0048157c     LIBCMTD:undname.obj
 0002:00013580       ??_C@_01MIFGBAGJ@?$CL?$AA@ 00481580     LIBCMTD:undname.obj
 0002:00013584       ??_C@_01JOAMLHOP@?9?$AA@   00481584     LIBCMTD:undname.obj
 0002:00013588       ??_C@_02BAABKJLB@?9?9?$AA@ 00481588     LIBCMTD:undname.obj
 0002:0001358c       ??_C@_02ECNGHCIF@?$CL?$CL?$AA@ 0048158c     LIBCMTD:undname.obj
 0002:00013590       ??_C@_01NBENCBCI@?$CK?$AA@ 00481590     LIBCMTD:undname.obj
 0002:00013594       ??_C@_02HBOOOICD@?9?$DO?$AA@ 00481594     LIBCMTD:undname.obj
 0002:00013598       ??_C@_08LHJFAFGD@operator?$AA@ 00481598     LIBCMTD:undname.obj
 0002:000135a4       ??_C@_02GPECMEKF@?$FL?$FN?$AA@ 004815a4     LIBCMTD:undname.obj
 0002:000135a8       ??_C@_02FDNJECIE@?$CB?$DN?$AA@ 004815a8     LIBCMTD:undname.obj
 0002:000135ac       ??_C@_02EGOFBIJA@?$DN?$DN?$AA@ 004815ac     LIBCMTD:undname.obj
 0002:000135b0       ??_C@_01DCLJPIOD@?$CB?$AA@ 004815b0     LIBCMTD:undname.obj
 0002:000135b4       ??_C@_02FODMEDOG@?$DM?$DM?$AA@ 004815b4     LIBCMTD:undname.obj
 0002:000135b8       ??_C@_02GPIOPFAK@?$DO?$DO?$AA@ 004815b8     LIBCMTD:undname.obj
 0002:000135bc       ??_C@_07FPCDHGMM@?5delete?$AA@ 004815bc     LIBCMTD:undname.obj
 0002:000135c4       ??_C@_04NIHEBCM@?5new?$AA@ 004815c4     LIBCMTD:undname.obj
 0002:000135cc       ??_C@_0M@GFIIJFMG@__unaligned?$AA@ 004815cc     LIBCMTD:undname.obj
 0002:000135d8       ??_C@_0L@PILCLIHE@__restrict?$AA@ 004815d8     LIBCMTD:undname.obj
 0002:000135e4       ??_C@_07JOMMBBKO@__ptr64?$AA@ 004815e4     LIBCMTD:undname.obj
 0002:000135ec       ??_C@_09HIJEGCPM@__clrcall?$AA@ 004815ec     LIBCMTD:undname.obj
 0002:000135f8       ??_C@_0L@JMKHOMEK@__fastcall?$AA@ 004815f8     LIBCMTD:undname.obj
 0002:00013604       ??_C@_0L@NPHFGOKO@__thiscall?$AA@ 00481604     LIBCMTD:undname.obj
 0002:00013610       ??_C@_09IFJBGAPI@__stdcall?$AA@ 00481610     LIBCMTD:undname.obj
 0002:0001361c       ??_C@_08GHMPAG@__pascal?$AA@ 0048161c     LIBCMTD:undname.obj
 0002:00013628       ??_C@_07KOLFKCDI@__cdecl?$AA@ 00481628     LIBCMTD:undname.obj
 0002:00013630       ??_C@_08EHJDFFNH@__based?$CI?$AA@ 00481630     LIBCMTD:undname.obj
 0002:000137c0       ??_C@_04HEJADOOB@CV?3?5?$AA@ 004817c0     LIBCMTD:undname.obj
 0002:000137c8       ??_C@_02MOLJINC@?3?3?$AA@  004817c8     LIBCMTD:undname.obj
 0002:000137cc       ??_C@_01GEODFPGF@?8?$AA@   004817cc     LIBCMTD:undname.obj
 0002:000137d0       ??_C@_01NLNLIGKH@?$GA?$AA@ 004817d0     LIBCMTD:undname.obj
 0002:000137d4       ??_C@_0O@KHGCOMHP@generic?9type?9?$AA@ 004817d4     LIBCMTD:undname.obj
 0002:000137e4       ??_C@_0BE@JAEOCHPE@template?9parameter?9?$AA@ 004817e4     LIBCMTD:undname.obj
 0002:000137f8       ??_C@_02OHHJMEON@?8?8?$AA@ 004817f8     LIBCMTD:undname.obj
 0002:000137fc       ??_C@_0BG@JNJLAMPM@?$GAanonymous?5namespace?8?$AA@ 004817fc     LIBCMTD:undname.obj
 0002:00013814       ??_C@_0BN@IBLMMFAP@?$GAnon?9type?9template?9parameter?$AA@ 00481814     LIBCMTD:undname.obj
 0002:00013834       ??_C@_0BE@EODMJLIF@?$GAtemplate?9parameter?$AA@ 00481834     LIBCMTD:undname.obj
 0002:00013848       ??_C@_04GKJNKENE@void?$AA@ 00481848     LIBCMTD:undname.obj
 0002:00013850       ??_C@_04HIBGFPH@NULL?$AA@  00481850     LIBCMTD:undname.obj
 0002:00013858       ??_C@_0M@DHNBOJMP@extern?5?$CCC?$CC?5?$AA@ 00481858     LIBCMTD:undname.obj
 0002:00013864       ??_C@_08KJLFOPNE@?$FLthunk?$FN?3?$AA@ 00481864     LIBCMTD:undname.obj
 0002:00013870       ??_C@_08GPDDCMKI@public?3?5?$AA@ 00481870     LIBCMTD:undname.obj
 0002:0001387c       ??_C@_0M@GAIFPFIP@protected?3?5?$AA@ 0048187c     LIBCMTD:undname.obj
 0002:00013888       ??_C@_09LAPHOOG@private?3?5?$AA@ 00481888     LIBCMTD:undname.obj
 0002:00013894       ??_C@_08NIEOINHE@virtual?5?$AA@ 00481894     LIBCMTD:undname.obj
 0002:000138a0       ??_C@_07PGOEDBHP@static?5?$AA@ 004818a0     LIBCMTD:undname.obj
 0002:000138a8       ??_C@_0DA@HGFJFBBE@?$GAtemplate?5static?5data?5member?5des@ 004818a8     LIBCMTD:undname.obj
 0002:000138d8       ??_C@_0DB@ILEFOCIJ@?$GAtemplate?5static?5data?5member?5con@ 004818d8     LIBCMTD:undname.obj
 0002:0001390c       ??_C@_0CB@KJDOOODE@?$GAlocal?5static?5destructor?5helper?8@ 0048190c     LIBCMTD:undname.obj
 0002:00013930       ??_C@_0L@HNGCOGAE@?$GAadjustor?$HL?$AA@ 00481930     LIBCMTD:undname.obj
 0002:0001393c       ??_C@_0L@GHPFDFH@?$GAvtordisp?$HL?$AA@ 0048193c     LIBCMTD:undname.obj
 0002:00013948       ??_C@_0N@CBHHHENL@?$GAvtordispex?$HL?$AA@ 00481948     LIBCMTD:undname.obj
 0002:00013958       ??_C@_01CLKCMJKC@?5?$AA@   00481958     LIBCMTD:undname.obj
 0002:0001395c       ??_C@_02IGFCGPIL@?$HN?8?$AA@ 0048195c     LIBCMTD:undname.obj
 0002:00013960       ??_C@_03OPGICMGF@?$HN?8?5?$AA@ 00481960     LIBCMTD:undname.obj
 0002:00013964       ??_C@_02KCKGHPCA@?$CJ?5?$AA@ 00481964     LIBCMTD:undname.obj
 0002:00013968       ??_C@_05BEFAKPML@void?5?$AA@ 00481968     LIBCMTD:undname.obj
 0002:00013970       ??_C@_08PABEKFH@volatile?$AA@ 00481970     LIBCMTD:undname.obj
 0002:0001397c       ??_C@_0M@ELJOJFFH@?0?$DMellipsis?$DO?$AA@ 0048197c     LIBCMTD:undname.obj
 0002:00013988       ??_C@_04EENFHACM@?0?4?4?4?$AA@ 00481988     LIBCMTD:undname.obj
 0002:00013990       ??_C@_0L@EGPHHEKN@?$DMellipsis?$DO?$AA@ 00481990     LIBCMTD:undname.obj
 0002:0001399c       ??_C@_07HDJPLPEK@?5throw?$CI?$AA@ 0048199c     LIBCMTD:undname.obj
 0002:000139a4       ??_C@_09EFNPDFFP@?5volatile?$AA@ 004819a4     LIBCMTD:undname.obj
 0002:000139b0       ??_C@_05BNCCCJPP@const?$AA@ 004819b0     LIBCMTD:undname.obj
 0002:000139b8       ??_C@_07EDHNAJHC@signed?5?$AA@ 004819b8     LIBCMTD:undname.obj
 0002:000139c0       ??_C@_09EBBEKKIH@unsigned?5?$AA@ 004819c0     LIBCMTD:undname.obj
 0002:000139cc       ??_C@_07NFANNNEC@UNKNOWN?$AA@ 004819cc     LIBCMTD:undname.obj
 0002:000139d4       ??_C@_06GCICPBLB@__w64?5?$AA@ 004819d4     LIBCMTD:undname.obj
 0002:000139dc       ??_C@_07CLGGIAMF@wchar_t?$AA@ 004819dc     LIBCMTD:undname.obj
 0002:000139e4       ??_C@_08GAHOLHEO@__int128?$AA@ 004819e4     LIBCMTD:undname.obj
 0002:000139f0       ??_C@_07LFCOJCAC@__int64?$AA@ 004819f0     LIBCMTD:undname.obj
 0002:000139f8       ??_C@_07OFLPPHGP@__int32?$AA@ 004819f8     LIBCMTD:undname.obj
 0002:00013a00       ??_C@_07ICFHOGAF@__int16?$AA@ 00481a00     LIBCMTD:undname.obj
 0002:00013a08       ??_C@_06EBGKOKIG@__int8?$AA@ 00481a08     LIBCMTD:undname.obj
 0002:00013a10       ??_C@_04DDKJGDCM@bool?$AA@ 00481a10     LIBCMTD:undname.obj
 0002:00013a18       ??_C@_06BNJCAIGJ@double?$AA@ 00481a18     LIBCMTD:undname.obj
 0002:00013a20       ??_C@_05CJIMAING@long?5?$AA@ 00481a20     LIBCMTD:undname.obj
 0002:00013a28       ??_C@_05KNFBNCOH@float?$AA@ 00481a28     LIBCMTD:undname.obj
 0002:00013a30       ??_C@_04GOKPGOLB@long?$AA@ 00481a30     LIBCMTD:undname.obj
 0002:00013a38       ??_C@_03JBIPMCLC@int?$AA@  00481a38     LIBCMTD:undname.obj
 0002:00013a3c       ??_C@_05BFKKPKCG@short?$AA@ 00481a3c     LIBCMTD:undname.obj
 0002:00013a44       ??_C@_04ENMBGAPA@char?$AA@ 00481a44     LIBCMTD:undname.obj
 0002:00013a4c       ??_C@_05LJGMCFOG@enum?5?$AA@ 00481a4c     LIBCMTD:undname.obj
 0002:00013a54       ??_C@_0N@DLIEFKNA@cointerface?5?$AA@ 00481a54     LIBCMTD:undname.obj
 0002:00013a64       ??_C@_08KOFANOFK@coclass?5?$AA@ 00481a64     LIBCMTD:undname.obj
 0002:00013a70       ??_C@_06LJBABKPM@class?5?$AA@ 00481a70     LIBCMTD:undname.obj
 0002:00013a78       ??_C@_07DIBCDNGL@struct?5?$AA@ 00481a78     LIBCMTD:undname.obj
 0002:00013a80       ??_C@_06MOJHIBMG@union?5?$AA@ 00481a80     LIBCMTD:undname.obj
 0002:00013a88       ??_C@_0P@GCIFDJCJ@?$GAunknown?5ecsu?8?$AA@ 00481a88     LIBCMTD:undname.obj
 0002:00013a98       ??_C@_04LAHKHJMA@int?5?$AA@ 00481a98     LIBCMTD:undname.obj
 0002:00013aa0       ??_C@_06EHJMALKF@short?5?$AA@ 00481aa0     LIBCMTD:undname.obj
 0002:00013aa8       ??_C@_05CIHEBHNO@char?5?$AA@ 00481aa8     LIBCMTD:undname.obj
 0002:00013ab0       ??_C@_06LIJLOJAG@const?5?$AA@ 00481ab0     LIBCMTD:undname.obj
 0002:00013ab8       ??_C@_09GAIEOBLP@volatile?5?$AA@ 00481ab8     LIBCMTD:undname.obj
 0002:00013ac4       ??_C@_0O@GKABPPIF@cli?3?3pin_ptr?$DM?$AA@ 00481ac4     LIBCMTD:undname.obj
 0002:00013ad4       ??_C@_0M@EALIELKG@cli?3?3array?$DM?$AA@ 00481ad4     LIBCMTD:undname.obj
 0002:00013ae0       ??_C@_02GOGNNPBN@?$CJ?$FL?$AA@ 00481ae0     LIBCMTD:undname.obj
 0002:00013ae4       ??_C@_06EEGAIFAK@?$HLflat?$HN?$AA@ 00481ae4     LIBCMTD:undname.obj
 0002:00013aec       ??_C@_02MDINNEEG@s?5?$AA@  00481aec     LIBCMTD:undname.obj
 0002:00013af0       ??_C@_05JIBOFOHK@?$HLfor?5?$AA@ 00481af0     LIBCMTD:undname.obj
 0002:00013af8       ??_7DNameNode@@6B@         00481af8     LIBCMTD:undname.obj
 0002:00013b04       ??_7charNode@@6B@          00481b04     LIBCMTD:undname.obj
 0002:00013b10       ??_7pcharNode@@6B@         00481b10     LIBCMTD:undname.obj
 0002:00013b1c       ??_7pDNameNode@@6B@        00481b1c     LIBCMTD:undname.obj
 0002:00013b28       ??_7DNameStatusNode@@6B@   00481b28     LIBCMTD:undname.obj
 0002:00013b34       ??_C@_04OKOHEJBO@?5?$DP?$DP?5?$AA@ 00481b34     LIBCMTD:undname.obj
 0002:00013b3c       ??_7pairNode@@6B@          00481b3c     LIBCMTD:undname.obj
 0002:00013b48       ??_C@_1BK@CDOALEA@?$AA_?$AAc?$AAo?$AAn?$AAt?$AAr?$AAo?$AAl?$AAf?$AAp?$AA_?$AAs?$AA?$AA@ 00481b48     LIBCMTD:_contrlfp_.obj
 0002:00013b68       ??_C@_1HI@JIOCECAH@?$AAf?$AA?3?$AA?2?$AAd?$AAd?$AA?2?$AAv?$AAc?$AAt?$AAo?$AAo?$AAl?$AAs?$AA?2?$AAc?$AAr?$AAt?$AA_?$AAb?$AAl?$AAd?$AA?2?$AAs?$AAe?$AAl?$AAf?$AA_?$AAx?$AA8?$AA6?$AA?2?$AAc@ 00481b68     LIBCMTD:_contrlfp_.obj
 0002:00013be0       ??_C@_1DG@JNDMIEJL@?$AA?$CI?$AA?$CC?$AAI?$AAn?$AAv?$AAa?$AAl?$AAi?$AAd?$AA?5?$AAi?$AAn?$AAp?$AAu?$AAt?$AA?5?$AAv?$AAa?$AAl?$AAu?$AAe?$AA?$CC?$AA?0?$AA?5?$AA0?$AA?$CJ?$AA?$AA@ 00481be0     LIBCMTD:_contrlfp_.obj
 0002:00013c18       ??_C@_1BK@CLIEHFDF@?$AAp?$AAf?$AAl?$AAt?$AA?5?$AA?$CB?$AA?$DN?$AA?5?$AAN?$AAU?$AAL?$AAL?$AA?$AA@ 00481c18     LIBCMTD:_fptostr.obj
 0002:00013c38       ??_C@_1GM@CEDLGDDI@?$AAs?$AAi?$AAz?$AAe?$AAI?$AAn?$AAB?$AAy?$AAt?$AAe?$AAs?$AA?5?$AA?$DO?$AA?5?$AA?$CI?$AAs?$AAi?$AAz?$AAe?$AA_?$AAt?$AA?$CJ?$AA?$CI?$AA?$CI?$AAd?$AAi?$AAg?$AAi?$AAt?$AAs?$AA?5?$AA?$DO@ 00481c38     LIBCMTD:_fptostr.obj
 0002:00013ca4       ??_C@_1BC@OPALLEB@?$AA_?$AAf?$AAp?$AAt?$AAo?$AAs?$AAt?$AAr?$AA?$AA@ 00481ca4     LIBCMTD:_fptostr.obj
 0002:00013cb8       ??_C@_1GE@BDKOPHIO@?$AAf?$AA?3?$AA?2?$AAd?$AAd?$AA?2?$AAv?$AAc?$AAt?$AAo?$AAo?$AAl?$AAs?$AA?2?$AAc?$AAr?$AAt?$AA_?$AAb?$AAl?$AAd?$AA?2?$AAs?$AAe?$AAl?$AAf?$AA_?$AAx?$AA8?$AA6?$AA?2?$AAc@ 00481cb8     LIBCMTD:_fptostr.obj
 0002:00013d20       ??_C@_1FK@KODCOBKF@?$AAs?$AAt?$AAr?$AAc?$AAp?$AAy?$AA_?$AAs?$AA?$CI?$AAr?$AAe?$AAs?$AAu?$AAl?$AAt?$AAs?$AAt?$AAr?$AA?0?$AA?5?$AAr?$AAe?$AAs?$AAu?$AAl?$AAt?$AAs?$AAi?$AAz?$AAe?$AA?0?$AA?5@ 00481d20     LIBCMTD:_cfout_.obj
 0002:00013d7c       ??_C@_1BC@BPMMEHLK@?$AA_?$AAf?$AAl?$AAt?$AAo?$AAu?$AAt?$AA2?$AA?$AA@ 00481d7c     LIBCMTD:_cfout_.obj
 0002:00013d90       ??_C@_1HC@PKFDNKN@?$AAf?$AA?3?$AA?2?$AAd?$AAd?$AA?2?$AAv?$AAc?$AAt?$AAo?$AAo?$AAl?$AAs?$AA?2?$AAc?$AAr?$AAt?$AA_?$AAb?$AAl?$AAd?$AA?2?$AAs?$AAe?$AAl?$AAf?$AA_?$AAx?$AA8?$AA6?$AA?2?$AAc@ 00481d90     LIBCMTD:_cfout_.obj
 0002:00013e04       ??_C@_1CG@EBJECAJM@?$AA_?$AAs?$AAe?$AAt?$AA_?$AAo?$AAu?$AAt?$AAp?$AAu?$AAt?$AA_?$AAf?$AAo?$AAr?$AAm?$AAa?$AAt?$AA?$AA@ 00481e04     LIBCMTD:outputformat.obj
 0002:00013e30       ??_C@_1GM@NFGGJJCM@?$AAf?$AA?3?$AA?2?$AAd?$AAd?$AA?2?$AAv?$AAc?$AAt?$AAo?$AAo?$AAl?$AAs?$AA?2?$AAc?$AAr?$AAt?$AA_?$AAb?$AAl?$AAd?$AA?2?$AAs?$AAe?$AAl?$AAf?$AA_?$AAx?$AA8?$AA6?$AA?2?$AAc@ 00481e30     LIBCMTD:outputformat.obj
 0002:00013ea0       ??_C@_1EM@EGEEBJLG@?$AA?$CI?$AAo?$AAp?$AAt?$AAi?$AAo?$AAn?$AAs?$AA?5?$AA?$CG?$AA?5?$AA?$HO?$AA_?$AAT?$AAW?$AAO?$AA_?$AAD?$AAI?$AAG?$AAI?$AAT?$AA_?$AAE?$AAX?$AAP?$AAO?$AAN?$AAE?$AAN?$AAT?$AA?$CJ@ 00481ea0     LIBCMTD:outputformat.obj
 0002:00013eec       ??_C@_0DC@IHGBBJOH@f?3?2dd?2vctools?2crt_bld?2self_x86?2c@ 00481eec     LIBCMTD:convrtcp.obj
 0002:00013f20       ___newctype                00481f20     LIBCMTD:ctype.obj
 0002:00014220       __wctype                   00482220     LIBCMTD:ctype.obj
 0002:00014428       ___newclmap                00482428     LIBCMTD:ctype.obj
 0002:000145a8       ___newcumap                004825a8     LIBCMTD:ctype.obj
 0002:00014728       ??_C@_1GE@GJCMHHMH@?$AAf?$AA?3?$AA?2?$AAd?$AAd?$AA?2?$AAv?$AAc?$AAt?$AAo?$AAo?$AAl?$AAs?$AA?2?$AAc?$AAr?$AAt?$AA_?$AAb?$AAl?$AAd?$AA?2?$AAs?$AAe?$AAl?$AAf?$AA_?$AAx?$AA8?$AA6?$AA?2?$AAc@ 00482728     LIBCMTD:inittime.obj
 0002:00014790       ??_C@_1EE@FDHCFDHN@?$AAp?$AAl?$AAo?$AAc?$AAi?$AA?9?$AA?$DO?$AAl?$AAc?$AA_?$AAt?$AAi?$AAm?$AAe?$AA_?$AAc?$AAu?$AAr?$AAr?$AA?9?$AA?$DO?$AAr?$AAe?$AAf?$AAc?$AAo?$AAu?$AAn?$AAt?$AA?5?$AA?$DO?$AA?5@ 00482790     LIBCMTD:inittime.obj
 0002:000147d4       ??_C@_0DC@KICHHNFK@f?3?2dd?2vctools?2crt_bld?2self_x86?2c@ 004827d4     LIBCMTD:inittime.obj
 0002:00014808       ??_C@_1GC@EDJOCBCL@?$AAf?$AA?3?$AA?2?$AAd?$AAd?$AA?2?$AAv?$AAc?$AAt?$AAo?$AAo?$AAl?$AAs?$AA?2?$AAc?$AAr?$AAt?$AA_?$AAb?$AAl?$AAd?$AA?2?$AAs?$AAe?$AAl?$AAf?$AA_?$AAx?$AA8?$AA6?$AA?2?$AAc@ 00482808     LIBCMTD:initnum.obj
 0002:0001486c       ??_C@_1DM@IFKAINNE@?$AAp?$AAl?$AAo?$AAc?$AAi?$AA?9?$AA?$DO?$AAl?$AAc?$AAo?$AAn?$AAv?$AA_?$AAn?$AAu?$AAm?$AA_?$AAr?$AAe?$AAf?$AAc?$AAo?$AAu?$AAn?$AAt?$AA?5?$AA?$DO?$AA?5?$AA0?$AA?$AA@ 0048286c     LIBCMTD:initnum.obj
 0002:000148a8       ??_C@_0DB@KKFMDHFI@f?3?2dd?2vctools?2crt_bld?2self_x86?2c@ 004828a8     LIBCMTD:initnum.obj
 0002:000148e0       ??_C@_1GC@IKADOFBJ@?$AAf?$AA?3?$AA?2?$AAd?$AAd?$AA?2?$AAv?$AAc?$AAt?$AAo?$AAo?$AAl?$AAs?$AA?2?$AAc?$AAr?$AAt?$AA_?$AAb?$AAl?$AAd?$AA?2?$AAs?$AAe?$AAl?$AAf?$AA_?$AAx?$AA8?$AA6?$AA?2?$AAc@ 004828e0     LIBCMTD:initmon.obj
 0002:00014944       ??_C@_1DM@GKAPAMDO@?$AAp?$AAl?$AAo?$AAc?$AAi?$AA?9?$AA?$DO?$AAl?$AAc?$AAo?$AAn?$AAv?$AA_?$AAm?$AAo?$AAn?$AA_?$AAr?$AAe?$AAf?$AAc?$AAo?$AAu?$AAn?$AAt?$AA?5?$AA?$DO?$AA?5?$AA0?$AA?$AA@ 00482944     LIBCMTD:initmon.obj
 0002:00014980       ??_C@_0DB@BECNGFDL@f?3?2dd?2vctools?2crt_bld?2self_x86?2c@ 00482980     LIBCMTD:initmon.obj
 0002:000149b4       ??_C@_1DG@NMBGBDM@?$AAp?$AAl?$AAo?$AAc?$AAi?$AA?9?$AA?$DO?$AAc?$AAt?$AAy?$AAp?$AAe?$AA1?$AA_?$AAr?$AAe?$AAf?$AAc?$AAo?$AAu?$AAn?$AAt?$AA?5?$AA?$DO?$AA?5?$AA0?$AA?$AA@ 004829b4     LIBCMTD:initctyp.obj
 0002:000149f0       ??_C@_1GE@OCPKBDKE@?$AAf?$AA?3?$AA?2?$AAd?$AAd?$AA?2?$AAv?$AAc?$AAt?$AAo?$AAo?$AAl?$AAs?$AA?2?$AAc?$AAr?$AAt?$AA_?$AAb?$AAl?$AAd?$AA?2?$AAs?$AAe?$AAl?$AAf?$AA_?$AAx?$AA8?$AA6?$AA?2?$AAc@ 004829f0     LIBCMTD:initctyp.obj
 0002:00014a54       ??_C@_0DC@EHLBFILA@f?3?2dd?2vctools?2crt_bld?2self_x86?2c@ 00482a54     LIBCMTD:initctyp.obj
 0002:00014a88       ??_C@_08JCCMCCIL@HH?3mm?3ss?$AA@ 00482a88     LIBCMTD:strftime.obj
 0002:00014a94       ??_C@_0BE@CKGJFCPC@dddd?0?5MMMM?5dd?0?5yyyy?$AA@ 00482a94     LIBCMTD:strftime.obj
 0002:00014aa8       ??_C@_08BPBNCDIB@MM?1dd?1yy?$AA@ 00482aa8     LIBCMTD:strftime.obj
 0002:00014ab4       ??_C@_02CJNFDJBF@PM?$AA@   00482ab4     LIBCMTD:strftime.obj
 0002:00014ab8       ??_C@_02DEDBPAFC@AM?$AA@   00482ab8     LIBCMTD:strftime.obj
 0002:00014abc       ??_C@_08EDHMEBNP@December?$AA@ 00482abc     LIBCMTD:strftime.obj
 0002:00014ac8       ??_C@_08HCHEGEOA@November?$AA@ 00482ac8     LIBCMTD:strftime.obj
 0002:00014ad4       ??_C@_07JJNFCEND@October?$AA@ 00482ad4     LIBCMTD:strftime.obj
 0002:00014adc       ??_C@_09BHHEALKD@September?$AA@ 00482adc     LIBCMTD:strftime.obj
 0002:00014ae8       ??_C@_06LBBHFDDG@August?$AA@ 00482ae8     LIBCMTD:strftime.obj
 0002:00014af0       ??_C@_04MIEPOIFP@July?$AA@ 00482af0     LIBCMTD:strftime.obj
 0002:00014af8       ??_C@_04CNLMGBGM@June?$AA@ 00482af8     LIBCMTD:strftime.obj
 0002:00014b00       ??_C@_05DMJDNLEJ@April?$AA@ 00482b00     LIBCMTD:strftime.obj
 0002:00014b08       ??_C@_05HPCKOFNC@March?$AA@ 00482b08     LIBCMTD:strftime.obj
 0002:00014b10       ??_C@_08GNJGEPFN@February?$AA@ 00482b10     LIBCMTD:strftime.obj
 0002:00014b1c       ??_C@_07CGJPFGJA@January?$AA@ 00482b1c     LIBCMTD:strftime.obj
 0002:00014b24       ??_C@_03MKABNOCG@Dec?$AA@  00482b24     LIBCMTD:strftime.obj
 0002:00014b28       ??_C@_03JPJOFNIA@Nov?$AA@  00482b28     LIBCMTD:strftime.obj
 0002:00014b2c       ??_C@_03BMAOKBAD@Oct?$AA@  00482b2c     LIBCMTD:strftime.obj
 0002:00014b30       ??_C@_03GGCAPAJC@Sep?$AA@  00482b30     LIBCMTD:strftime.obj
 0002:00014b34       ??_C@_03IFJFEIGA@Aug?$AA@  00482b34     LIBCMTD:strftime.obj
 0002:00014b38       ??_C@_03LBGABGKK@Jul?$AA@  00482b38     LIBCMTD:strftime.obj
 0002:00014b3c       ??_C@_03IDFGHECI@Jun?$AA@  00482b3c     LIBCMTD:strftime.obj
 0002:00014b40       ??_C@_03CNMDKL@May?$AA@    00482b40     LIBCMTD:strftime.obj
 0002:00014b44       ??_C@_03LEOLGMJP@Apr?$AA@  00482b44     LIBCMTD:strftime.obj
 0002:00014b48       ??_C@_03ODNJBKGA@Mar?$AA@  00482b48     LIBCMTD:strftime.obj
 0002:00014b4c       ??_C@_03HJBDCHOM@Feb?$AA@  00482b4c     LIBCMTD:strftime.obj
 0002:00014b50       ??_C@_03JIHJHPIE@Jan?$AA@  00482b50     LIBCMTD:strftime.obj
 0002:00014b54       ??_C@_08INBOOONO@Saturday?$AA@ 00482b54     LIBCMTD:strftime.obj
 0002:00014b60       ??_C@_06JECMNKMI@Friday?$AA@ 00482b60     LIBCMTD:strftime.obj
 0002:00014b68       ??_C@_08HACCIKIA@Thursday?$AA@ 00482b68     LIBCMTD:strftime.obj
 0002:00014b74       ??_C@_09DLIGFAKA@Wednesday?$AA@ 00482b74     LIBCMTD:strftime.obj
 0002:00014b80       ??_C@_07BAAGCFCM@Tuesday?$AA@ 00482b80     LIBCMTD:strftime.obj
 0002:00014b88       ??_C@_06JLEDEDGH@Monday?$AA@ 00482b88     LIBCMTD:strftime.obj
 0002:00014b90       ??_C@_06OOPIFAJ@Sunday?$AA@ 00482b90     LIBCMTD:strftime.obj
 0002:00014b98       ??_C@_03FEFJNEK@Sat?$AA@   00482b98     LIBCMTD:strftime.obj
 0002:00014b9c       ??_C@_03IDIOELNC@Fri?$AA@  00482b9c     LIBCMTD:strftime.obj
 0002:00014ba0       ??_C@_03IOFIKPDN@Thu?$AA@  00482ba0     LIBCMTD:strftime.obj
 0002:00014ba4       ??_C@_03MHOMLAJA@Wed?$AA@  00482ba4     LIBCMTD:strftime.obj
 0002:00014ba8       ??_C@_03NAGEINEP@Tue?$AA@  00482ba8     LIBCMTD:strftime.obj
 0002:00014bac       ??_C@_03PDAGKDH@Mon?$AA@   00482bac     LIBCMTD:strftime.obj
 0002:00014bb0       ??_C@_03KOEHGMDN@Sun?$AA@  00482bb0     LIBCMTD:strftime.obj
 0002:00014bb8       ??_C@_1FM@LPEPDBJF@?$AAs?$AAt?$AAr?$AAc?$AAp?$AAy?$AA_?$AAs?$AA?$CI?$AAs?$AA?0?$AA?5?$AA?$CI?$AAl?$AAe?$AAn?$AA?5?$AA?$CL?$AA?5?$AA1?$AA?$CJ?$AA?5?$AA?9?$AA?5?$AA?$CI?$AAs?$AA?5?$AA?9?$AA?5?$AAp?$AA?$CJ?$AA?0@ 00482bb8     LIBCMTD:strftime.obj
 0002:00014c18       ??_C@_1GG@NAGHPCAA@?$AAs?$AAt?$AAr?$AAc?$AAp?$AAy?$AA_?$AAs?$AA?$CI?$AAs?$AA?0?$AA?5?$AA?$CI?$AAl?$AAe?$AAn?$AA?5?$AA?$CL?$AA?5?$AA1?$AA?$CJ?$AA?5?$AA?9?$AA?5?$AA?$CI?$AAs?$AA?5?$AA?9?$AA?5?$AAp?$AA?$CJ?$AA?0@ 00482c18     LIBCMTD:strftime.obj
 0002:00014c80       ??_C@_1BG@LGACIFJI@?$AA_?$AAG?$AAe?$AAt?$AAd?$AAa?$AAy?$AAs?$AA_?$AAl?$AA?$AA@ 00482c80     LIBCMTD:strftime.obj
 0002:00014c98       ??_C@_1GE@FCOIONJG@?$AAf?$AA?3?$AA?2?$AAd?$AAd?$AA?2?$AAv?$AAc?$AAt?$AAo?$AAo?$AAl?$AAs?$AA?2?$AAc?$AAr?$AAt?$AA_?$AAb?$AAl?$AAd?$AA?2?$AAs?$AAe?$AAl?$AAf?$AA_?$AAx?$AA8?$AA6?$AA?2?$AAc@ 00482c98     LIBCMTD:strftime.obj
 0002:00014cfc       ??_C@_0DC@MEPJBKMO@f?3?2dd?2vctools?2crt_bld?2self_x86?2c@ 00482cfc     LIBCMTD:strftime.obj
 0002:00014d30       ??_C@_1FO@IFFKPIEL@?$AAs?$AAt?$AAr?$AAc?$AAp?$AAy?$AA_?$AAs?$AA?$CI?$AAs?$AA?0?$AA?5?$AA?$CI?$AAl?$AAe?$AAn?$AA?5?$AA?$CL?$AA?5?$AA1?$AA?$CJ?$AA?5?$AA?9?$AA?5?$AA?$CI?$AAs?$AA?5?$AA?9?$AA?5?$AAp?$AA?$CJ?$AA?0@ 00482d30     LIBCMTD:strftime.obj
 0002:00014d90       ??_C@_1GI@LNJDDNLK@?$AAs?$AAt?$AAr?$AAc?$AAp?$AAy?$AA_?$AAs?$AA?$CI?$AAs?$AA?0?$AA?5?$AA?$CI?$AAl?$AAe?$AAn?$AA?5?$AA?$CL?$AA?5?$AA1?$AA?$CJ?$AA?5?$AA?9?$AA?5?$AA?$CI?$AAs?$AA?5?$AA?9?$AA?5?$AAp?$AA?$CJ?$AA?0@ 00482d90     LIBCMTD:strftime.obj
 0002:00014df8       ??_C@_1BK@IDMELNCB@?$AA_?$AAG?$AAe?$AAt?$AAm?$AAo?$AAn?$AAt?$AAh?$AAs?$AA_?$AAl?$AA?$AA@ 00482df8     LIBCMTD:strftime.obj
 0002:00014e18       ??_C@_1FG@CJBIADLJ@?$AAs?$AAt?$AAr?$AAc?$AAp?$AAy?$AA_?$AAs?$AA?$CI?$AAs?$AA?0?$AA?5?$AAl?$AAe?$AAn?$AA?5?$AA?9?$AA?5?$AA?$CI?$AAs?$AA?5?$AA?9?$AA?5?$AAp?$AA?$CJ?$AA?0?$AA?5?$AAp?$AAt?$AA?9?$AA?$DO?$AAw@ 00482e18     LIBCMTD:strftime.obj
 0002:00014e70       ??_C@_1FI@PPIHCJGH@?$AAs?$AAt?$AAr?$AAc?$AAp?$AAy?$AA_?$AAs?$AA?$CI?$AAs?$AA?0?$AA?5?$AAl?$AAe?$AAn?$AA?5?$AA?9?$AA?5?$AA?$CI?$AAs?$AA?5?$AA?9?$AA?5?$AAp?$AA?$CJ?$AA?0?$AA?5?$AAp?$AAt?$AA?9?$AA?$DO?$AAw@ 00482e70     LIBCMTD:strftime.obj
 0002:00014ec8       ??_C@_1FI@GDNOPCGD@?$AAs?$AAt?$AAr?$AAc?$AAp?$AAy?$AA_?$AAs?$AA?$CI?$AAs?$AA?0?$AA?5?$AAl?$AAe?$AAn?$AA?5?$AA?9?$AA?5?$AA?$CI?$AAs?$AA?5?$AA?9?$AA?5?$AAp?$AA?$CJ?$AA?0?$AA?5?$AAp?$AAt?$AA?9?$AA?$DO?$AAw@ 00482ec8     LIBCMTD:strftime.obj
 0002:00014f20       ??_C@_1FA@MEHIJEIL@?$AAs?$AAt?$AAr?$AAc?$AAp?$AAy?$AA_?$AAs?$AA?$CI?$AAs?$AA?0?$AA?5?$AAl?$AAe?$AAn?$AA?5?$AA?9?$AA?5?$AA?$CI?$AAs?$AA?5?$AA?9?$AA?5?$AAp?$AA?$CJ?$AA?0?$AA?5?$AAp?$AAt?$AA?9?$AA?$DO?$AAa@ 00482f20     LIBCMTD:strftime.obj
 0002:00014f70       ??_C@_1FA@INCJEBF@?$AAs?$AAt?$AAr?$AAc?$AAp?$AAy?$AA_?$AAs?$AA?$CI?$AAs?$AA?0?$AA?5?$AAl?$AAe?$AAn?$AA?5?$AA?9?$AA?5?$AA?$CI?$AAs?$AA?5?$AA?9?$AA?5?$AAp?$AA?$CJ?$AA?0?$AA?5?$AAp?$AAt?$AA?9?$AA?$DO?$AAa@ 00482f70     LIBCMTD:strftime.obj
 0002:00014fc0       ??_C@_1FC@BEAPAEGE@?$AAs?$AAt?$AAr?$AAc?$AAp?$AAy?$AA_?$AAs?$AA?$CI?$AAs?$AA?0?$AA?5?$AAl?$AAe?$AAn?$AA?5?$AA?9?$AA?5?$AA?$CI?$AAs?$AA?5?$AA?9?$AA?5?$AAp?$AA?$CJ?$AA?0?$AA?5?$AAp?$AAt?$AA?9?$AA?$DO?$AAm@ 00482fc0     LIBCMTD:strftime.obj
 0002:00015018       ??_C@_1FM@CHHONFED@?$AAs?$AAt?$AAr?$AAc?$AAp?$AAy?$AA_?$AAs?$AA?$CI?$AAs?$AA?0?$AA?5?$AAl?$AAe?$AAn?$AA?5?$AA?9?$AA?5?$AA?$CI?$AAs?$AA?5?$AA?9?$AA?5?$AAp?$AA?$CJ?$AA?0?$AA?5?$AAp?$AAt?$AA?9?$AA?$DO?$AAm@ 00483018     LIBCMTD:strftime.obj
 0002:00015078       ??_C@_1FA@EBHJJADL@?$AAs?$AAt?$AAr?$AAc?$AAp?$AAy?$AA_?$AAs?$AA?$CI?$AAs?$AA?0?$AA?5?$AAl?$AAe?$AAn?$AA?5?$AA?9?$AA?5?$AA?$CI?$AAs?$AA?5?$AA?9?$AA?5?$AAp?$AA?$CJ?$AA?0?$AA?5?$AAp?$AAt?$AA?9?$AA?$DO?$AAw@ 00483078     LIBCMTD:strftime.obj
 0002:000150c8       ??_C@_1FK@ODMKEFLD@?$AAs?$AAt?$AAr?$AAc?$AAp?$AAy?$AA_?$AAs?$AA?$CI?$AAs?$AA?0?$AA?5?$AAl?$AAe?$AAn?$AA?5?$AA?9?$AA?5?$AA?$CI?$AAs?$AA?5?$AA?9?$AA?5?$AAp?$AA?$CJ?$AA?0?$AA?5?$AAp?$AAt?$AA?9?$AA?$DO?$AAw@ 004830c8     LIBCMTD:strftime.obj
 0002:00015124       ??_C@_1BK@MJNHIAGO@?$AA_?$AAG?$AAe?$AAt?$AAt?$AAn?$AAa?$AAm?$AAe?$AAs?$AA_?$AAl?$AA?$AA@ 00483124     LIBCMTD:strftime.obj
 0002:00015140       ??_C@_1M@HCOOECOK@?$AAF?$AAA?$AAL?$AAS?$AAE?$AA?$AA@ 00483140     LIBCMTD:strftime.obj
 0002:00015150       ??_C@_1HC@JGDOBCNK@?$AA?$CI?$AA?$CC?$AAI?$AAn?$AAv?$AAa?$AAl?$AAi?$AAd?$AA?5?$AAM?$AAB?$AAC?$AAS?$AA?5?$AAc?$AAh?$AAa?$AAr?$AAa?$AAc?$AAt?$AAe?$AAr?$AA?5?$AAs?$AAe?$AAq?$AAu?$AAe?$AAn?$AAc@ 00483150     LIBCMTD:strftime.obj
 0002:000151c4       ??_C@_1CA@COHOENPC@?$AAt?$AAi?$AAm?$AAe?$AAp?$AAt?$AAr?$AA?5?$AA?$CB?$AA?$DN?$AA?5?$AAN?$AAU?$AAL?$AAL?$AA?$AA@ 004831c4     LIBCMTD:strftime.obj
 0002:000151e4       ??_C@_1CG@MHIOFJLE@?$AA?$CI?$AA?5?$AAf?$AAo?$AAr?$AAm?$AAa?$AAt?$AA?5?$AA?$CB?$AA?$DN?$AA?5?$AAN?$AAU?$AAL?$AAL?$AA?5?$AA?$CJ?$AA?$AA@ 004831e4     LIBCMTD:strftime.obj
 0002:0001520c       ??_C@_1CC@IHEJKGMG@?$AA?$CI?$AA?5?$AAm?$AAa?$AAx?$AAs?$AAi?$AAz?$AAe?$AA?5?$AA?$CB?$AA?$DN?$AA?5?$AA0?$AA?5?$AA?$CJ?$AA?$AA@ 0048320c     LIBCMTD:strftime.obj
 0002:00015230       ??_C@_1BI@ONBMGNNA@?$AA_?$AAS?$AAt?$AAr?$AAf?$AAt?$AAi?$AAm?$AAe?$AA_?$AAl?$AA?$AA@ 00483230     LIBCMTD:strftime.obj
 0002:00015248       ??_C@_1CG@MPKJHDAA@?$AA?$CI?$AA?5?$AAs?$AAt?$AAr?$AAi?$AAn?$AAg?$AA?5?$AA?$CB?$AA?$DN?$AA?5?$AAN?$AAU?$AAL?$AAL?$AA?5?$AA?$CJ?$AA?$AA@ 00483248     LIBCMTD:strftime.obj
 0002:00015270       ??_C@_1EG@JNJKHKFI@?$AA?$CI?$AA?5?$AA?$CC?$AAI?$AAn?$AAv?$AAa?$AAl?$AAi?$AAd?$AA?5?$AAf?$AAo?$AAr?$AAm?$AAa?$AAt?$AA?5?$AAd?$AAi?$AAr?$AAe?$AAc?$AAt?$AAi?$AAv?$AAe?$AA?$CC?$AA?5?$AA?0?$AA?5?$AA0@ 00483270     LIBCMTD:strftime.obj
 0002:000152b8       ??_C@_1HM@LBNGKIAD@?$AA?$CI?$AA?5?$AAt?$AAi?$AAm?$AAe?$AAp?$AAt?$AAr?$AA?9?$AA?$DO?$AAt?$AAm?$AA_?$AAy?$AAe?$AAa?$AAr?$AA?5?$AA?$DO?$AA?$DN?$AA?5?$AA?9?$AA1?$AA9?$AA0?$AA0?$AA?5?$AA?$CJ?$AA?5?$AA?$CG?$AA?$CG@ 004832b8     LIBCMTD:strftime.obj
 0002:00015334       ??_C@_1DC@NMCFBMJP@?$AA?$CI?$AA?5?$AAt?$AAi?$AAm?$AAe?$AAp?$AAt?$AAr?$AA?9?$AA?$DO?$AAt?$AAm?$AA_?$AAy?$AAe?$AAa?$AAr?$AA?5?$AA?$DO?$AA?$DN?$AA0?$AA?5?$AA?$CJ?$AA?$AA@ 00483334     LIBCMTD:strftime.obj
 0002:00015368       ??_C@_1HC@HLKHIKOB@?$AA?$CI?$AA?5?$AA?$CI?$AA?5?$AAt?$AAi?$AAm?$AAe?$AAp?$AAt?$AAr?$AA?9?$AA?$DO?$AAt?$AAm?$AA_?$AAs?$AAe?$AAc?$AA?5?$AA?$DO?$AA?$DN?$AA0?$AA?5?$AA?$CJ?$AA?5?$AA?$CG?$AA?$CG?$AA?5?$AA?$CI?$AA?5?$AAt@ 00483368     LIBCMTD:strftime.obj
 0002:000153e0       ??_C@_1HC@IGKDPPHL@?$AA?$CI?$AA?5?$AA?$CI?$AA?5?$AAt?$AAi?$AAm?$AAe?$AAp?$AAt?$AAr?$AA?9?$AA?$DO?$AAt?$AAm?$AA_?$AAm?$AAi?$AAn?$AA?5?$AA?$DO?$AA?$DN?$AA0?$AA?5?$AA?$CJ?$AA?5?$AA?$CG?$AA?$CG?$AA?5?$AA?$CI?$AA?5?$AAt@ 004833e0     LIBCMTD:strftime.obj
 0002:00015458       ??_C@_1HI@HHCJCPE@?$AA?$CI?$AA?5?$AA?$CI?$AA?5?$AAt?$AAi?$AAm?$AAe?$AAp?$AAt?$AAr?$AA?9?$AA?$DO?$AAt?$AAm?$AA_?$AAy?$AAd?$AAa?$AAy?$AA?5?$AA?$DO?$AA?$DN?$AA0?$AA?5?$AA?$CJ?$AA?5?$AA?$CG?$AA?$CG?$AA?5?$AA?$CI?$AA?5@ 00483458     LIBCMTD:strftime.obj
 0002:000154d0       ??_C@_1HG@KCGGFLNI@?$AA?$CI?$AA?5?$AA?$CI?$AA?5?$AAt?$AAi?$AAm?$AAe?$AAp?$AAt?$AAr?$AA?9?$AA?$DO?$AAt?$AAm?$AA_?$AAh?$AAo?$AAu?$AAr?$AA?5?$AA?$DO?$AA?$DN?$AA0?$AA?5?$AA?$CJ?$AA?5?$AA?$CG?$AA?$CG?$AA?5?$AA?$CI?$AA?5@ 004834d0     LIBCMTD:strftime.obj
 0002:00015548       ??_C@_1HG@NFHHOAD@?$AA?$CI?$AA?5?$AA?$CI?$AA?5?$AAt?$AAi?$AAm?$AAe?$AAp?$AAt?$AAr?$AA?9?$AA?$DO?$AAt?$AAm?$AA_?$AAm?$AAd?$AAa?$AAy?$AA?5?$AA?$DO?$AA?$DN?$AA1?$AA?5?$AA?$CJ?$AA?5?$AA?$CG?$AA?$CG?$AA?5?$AA?$CI?$AA?5@ 00483548     LIBCMTD:strftime.obj
 0002:000155c0       ??_C@_1HC@OOAMILFB@?$AA?$CI?$AA?5?$AA?$CI?$AA?5?$AAt?$AAi?$AAm?$AAe?$AAp?$AAt?$AAr?$AA?9?$AA?$DO?$AAt?$AAm?$AA_?$AAm?$AAo?$AAn?$AA?5?$AA?$DO?$AA?$DN?$AA0?$AA?5?$AA?$CJ?$AA?5?$AA?$CG?$AA?$CG?$AA?5?$AA?$CI?$AA?5?$AAt@ 004835c0     LIBCMTD:strftime.obj
 0002:00015634       ??_C@_1BI@HBKPAJH@?$AA_?$AAe?$AAx?$AAp?$AAa?$AAn?$AAd?$AAt?$AAi?$AAm?$AAe?$AA?$AA@ 00483634     LIBCMTD:strftime.obj
 0002:00015650       ??_C@_1HE@BFLEOKFO@?$AA?$CI?$AA?5?$AA?$CI?$AA?5?$AAt?$AAi?$AAm?$AAe?$AAp?$AAt?$AAr?$AA?9?$AA?$DO?$AAt?$AAm?$AA_?$AAw?$AAd?$AAa?$AAy?$AA?5?$AA?$DO?$AA?$DN?$AA0?$AA?5?$AA?$CJ?$AA?5?$AA?$CG?$AA?$CG?$AA?5?$AA?$CI?$AA?5@ 00483650     LIBCMTD:strftime.obj
 0002:000156c8       ??_C@_1HG@PAEENAPO@?$AA?$CI?$AA?$CC?$AAI?$AAn?$AAv?$AAa?$AAl?$AAi?$AAd?$AA?5?$AAM?$AAB?$AAC?$AAS?$AA?5?$AAc?$AAh?$AAa?$AAr?$AAa?$AAc?$AAt?$AAe?$AAr?$AA?5?$AAs?$AAe?$AAq?$AAu?$AAe?$AAn?$AAc@ 004836c8     LIBCMTD:strftime.obj
 0002:00015740       ??_C@_1IE@EIDABBDG@?$AA?$CI?$AA?$CC?$AAI?$AAn?$AAv?$AAa?$AAl?$AAi?$AAd?$AA?5?$AAM?$AAB?$AAC?$AAS?$AA?5?$AAc?$AAh?$AAa?$AAr?$AAa?$AAc?$AAt?$AAe?$AAr?$AA?5?$AAs?$AAe?$AAq?$AAu?$AAe?$AAn?$AAc@ 00483740     LIBCMTD:strftime.obj
 0002:000157c4       ??_C@_03EBAPMIKO@a?1p?$AA@ 004837c4     LIBCMTD:strftime.obj
 0002:000157c8       ??_C@_05JAMEPDIN@am?1pm?$AA@ 004837c8     LIBCMTD:strftime.obj
 0002:000157d0       ??_C@_1BE@NDMJHJJG@?$AAs?$AAt?$AAr?$AAn?$AAc?$AAp?$AAy?$AA_?$AAs?$AA?$AA@ 004837d0     LIBCMTD:strncpy_s.obj
 0002:000157e8       ??_C@_1GK@PAJJBKJF@?$AAf?$AA?3?$AA?2?$AAd?$AAd?$AA?2?$AAv?$AAc?$AAt?$AAo?$AAo?$AAl?$AAs?$AA?2?$AAc?$AAr?$AAt?$AA_?$AAb?$AAl?$AAd?$AA?2?$AAs?$AAe?$AAl?$AAf?$AA_?$AAx?$AA8?$AA6?$AA?2?$AAc@ 004837e8     LIBCMTD:strncpy_s.obj
 0002:00015858       ??_C@_1FA@MJKDNFFB@?$AA?$CI?$AAL?$AA?$CC?$AAS?$AAt?$AAr?$AAi?$AAn?$AAg?$AA?5?$AAi?$AAs?$AA?5?$AAn?$AAo?$AAt?$AA?5?$AAn?$AAu?$AAl?$AAl?$AA?5?$AAt?$AAe?$AAr?$AAm?$AAi?$AAn?$AAa?$AAt?$AAe?$AAd@ 00483858     LIBCMTD:strcat_s.obj
 0002:000158a8       ??_C@_1DM@FHLMIEG@?$AAS?$AAt?$AAr?$AAi?$AAn?$AAg?$AA?5?$AAi?$AAs?$AA?5?$AAn?$AAo?$AAt?$AA?5?$AAn?$AAu?$AAl?$AAl?$AA?5?$AAt?$AAe?$AAr?$AAm?$AAi?$AAn?$AAa?$AAt?$AAe?$AAd?$AA?$AA@ 004838a8     LIBCMTD:strcat_s.obj
 0002:000158e4       ??_C@_1BC@HGPNAKGC@?$AAs?$AAt?$AAr?$AAc?$AAa?$AAt?$AA_?$AAs?$AA?$AA@ 004838e4     LIBCMTD:strcat_s.obj
 0002:000158f8       ??_C@_1GI@NOKGIAGA@?$AAf?$AA?3?$AA?2?$AAd?$AAd?$AA?2?$AAv?$AAc?$AAt?$AAo?$AAo?$AAl?$AAs?$AA?2?$AAc?$AAr?$AAt?$AA_?$AAb?$AAl?$AAd?$AA?2?$AAs?$AAe?$AAl?$AAf?$AA_?$AAx?$AA8?$AA6?$AA?2?$AAc@ 004838f8     LIBCMTD:strcat_s.obj
 0002:00015960       ??_C@_0O@FMJNFNKE@united?9states?$AA@ 00483960     LIBCMTD:getqloc.obj
 0002:00015970       ??_C@_0P@NDHFFKCA@united?9kingdom?$AA@ 00483970     LIBCMTD:getqloc.obj
 0002:00015980       ??_C@_0BC@HHDADLGF@trinidad?5?$CG?5tobago?$AA@ 00483980     LIBCMTD:getqloc.obj
 0002:00015994       ??_C@_0M@IOAEBDAC@south?9korea?$AA@ 00483994     LIBCMTD:getqloc.obj
 0002:000159a0       ??_C@_0N@FIELFKIJ@south?9africa?$AA@ 004839a0     LIBCMTD:getqloc.obj
 0002:000159b0       ??_C@_0M@OPNDHCMC@south?5korea?$AA@ 004839b0     LIBCMTD:getqloc.obj
 0002:000159bc       ??_C@_0N@MDEOEPFI@south?5africa?$AA@ 004839bc     LIBCMTD:getqloc.obj
 0002:000159cc       ??_C@_06FKAPCJLB@slovak?$AA@ 004839cc     LIBCMTD:getqloc.obj
 0002:000159d4       ??_C@_0M@EFJANOAL@puerto?9rico?$AA@ 004839d4     LIBCMTD:getqloc.obj
 0002:000159e0       ??_C@_08PGOJKDAI@pr?9china?$AA@ 004839e0     LIBCMTD:getqloc.obj
 0002:000159ec       ??_C@_08JHDOMCMI@pr?5china?$AA@ 004839ec     LIBCMTD:getqloc.obj
 0002:000159f8       ??_C@_02JHCHFBLL@nz?$AA@   004839f8     LIBCMTD:getqloc.obj
 0002:000159fc       ??_C@_0M@LINHDHKP@new?9zealand?$AA@ 004839fc     LIBCMTD:getqloc.obj
 0002:00015a08       ??_C@_09IIIPPBDB@hong?9kong?$AA@ 00483a08     LIBCMTD:getqloc.obj
 0002:00015a14       ??_C@_07HJLCKBG@holland?$AA@ 00483a14     LIBCMTD:getqloc.obj
 0002:00015a1c       ??_C@_0O@LEHGMHAG@great?5britain?$AA@ 00483a1c     LIBCMTD:getqloc.obj
 0002:00015a2c       ??_C@_07FACOMELA@england?$AA@ 00483a2c     LIBCMTD:getqloc.obj
 0002:00015a34       ??_C@_05JIHCEICB@czech?$AA@ 00483a34     LIBCMTD:getqloc.obj
 0002:00015a3c       ??_C@_05BBJOBLGB@china?$AA@ 00483a3c     LIBCMTD:getqloc.obj
 0002:00015a44       ??_C@_07GPKPHICP@britain?$AA@ 00483a44     LIBCMTD:getqloc.obj
 0002:00015a4c       ??_C@_07MHIPBHMG@america?$AA@ 00483a4c     LIBCMTD:getqloc.obj
 0002:00015a54       ??_C@_03KIALPMKC@usa?$AA@  00483a54     LIBCMTD:getqloc.obj
 0002:00015a58       ??_C@_02FGJGKGGD@us?$AA@   00483a58     LIBCMTD:getqloc.obj
 0002:00015a5c       ??_C@_02NEINDODK@uk?$AA@   00483a5c     LIBCMTD:getqloc.obj
 0002:00015a60       ??_C@_05JMPCFJFJ@swiss?$AA@ 00483a60     LIBCMTD:getqloc.obj
 0002:00015a68       ??_C@_0BA@HLOCPIOD@swedish?9finland?$AA@ 00483a68     LIBCMTD:getqloc.obj
 0002:00015a78       ??_C@_0BC@PKCNIABK@spanish?9venezuela?$AA@ 00483a78     LIBCMTD:getqloc.obj
 0002:00015a8c       ??_C@_0BA@GBHHMIJI@spanish?9uruguay?$AA@ 00483a8c     LIBCMTD:getqloc.obj
 0002:00015a9c       ??_C@_0BE@BHDOHPMC@spanish?9puerto?5rico?$AA@ 00483a9c     LIBCMTD:getqloc.obj
 0002:00015ab0       ??_C@_0N@KMOIDGGN@spanish?9peru?$AA@ 00483ab0     LIBCMTD:getqloc.obj
 0002:00015ac0       ??_C@_0BB@HMHLPGPH@spanish?9paraguay?$AA@ 00483ac0     LIBCMTD:getqloc.obj
 0002:00015ad4       ??_C@_0P@MCPKNGFD@spanish?9panama?$AA@ 00483ad4     LIBCMTD:getqloc.obj
 0002:00015ae4       ??_C@_0BC@IHOHGAIL@spanish?9nicaragua?$AA@ 00483ae4     LIBCMTD:getqloc.obj
 0002:00015af8       ??_C@_0P@KLMJDNFJ@spanish?9modern?$AA@ 00483af8     LIBCMTD:getqloc.obj
 0002:00015b08       ??_C@_0BA@BPAPGBCM@spanish?9mexican?$AA@ 00483b08     LIBCMTD:getqloc.obj
 0002:00015b18       ??_C@_0BB@PDECHHHE@spanish?9honduras?$AA@ 00483b18     LIBCMTD:getqloc.obj
 0002:00015b2c       ??_C@_0BC@KLHKFGDB@spanish?9guatemala?$AA@ 00483b2c     LIBCMTD:getqloc.obj
 0002:00015b40       ??_C@_0BE@MFOOKJAI@spanish?9el?5salvador?$AA@ 00483b40     LIBCMTD:getqloc.obj
 0002:00015b54       ??_C@_0BA@FCOKFPFC@spanish?9ecuador?$AA@ 00483b54     LIBCMTD:getqloc.obj
 0002:00015b64       ??_C@_0BL@PLMGIMOO@spanish?9dominican?5republic?$AA@ 00483b64     LIBCMTD:getqloc.obj
 0002:00015b80       ??_C@_0BD@HLGDNMHB@spanish?9costa?5rica?$AA@ 00483b80     LIBCMTD:getqloc.obj
 0002:00015b94       ??_C@_0BB@PKCBKCPE@spanish?9colombia?$AA@ 00483b94     LIBCMTD:getqloc.obj
 0002:00015ba8       ??_C@_0O@MCBIJGNE@spanish?9chile?$AA@ 00483ba8     LIBCMTD:getqloc.obj
 0002:00015bb8       ??_C@_0BA@BEFEIGJJ@spanish?9bolivia?$AA@ 00483bb8     LIBCMTD:getqloc.obj
 0002:00015bc8       ??_C@_0BC@EMECMPD@spanish?9argentina?$AA@ 00483bc8     LIBCMTD:getqloc.obj
 0002:00015bdc       ??_C@_0BF@EALFLENP@portuguese?9brazilian?$AA@ 00483bdc     LIBCMTD:getqloc.obj
 0002:00015bf4       ??_C@_0BC@HBLEBLNN@norwegian?9nynorsk?$AA@ 00483bf4     LIBCMTD:getqloc.obj
 0002:00015c08       ??_C@_0BB@HMACDDCK@norwegian?9bokmal?$AA@ 00483c08     LIBCMTD:getqloc.obj
 0002:00015c1c       ??_C@_09BAFFPPHE@norwegian?$AA@ 00483c1c     LIBCMTD:getqloc.obj
 0002:00015c28       ??_C@_0O@EAJFJDFG@italian?9swiss?$AA@ 00483c28     LIBCMTD:getqloc.obj
 0002:00015c38       ??_C@_0O@CNOMPGD@irish?9english?$AA@ 00483c38     LIBCMTD:getqloc.obj
 0002:00015c48       ??_C@_0N@EDHBGCKG@german?9swiss?$AA@ 00483c48     LIBCMTD:getqloc.obj
 0002:00015c58       ??_C@_0BC@JACMHNBP@german?9luxembourg?$AA@ 00483c58     LIBCMTD:getqloc.obj
 0002:00015c6c       ??_C@_0BE@HBGMGFEG@german?9lichtenstein?$AA@ 00483c6c     LIBCMTD:getqloc.obj
 0002:00015c80       ??_C@_0BA@HKKBIBKL@german?9austrian?$AA@ 00483c80     LIBCMTD:getqloc.obj
 0002:00015c90       ??_C@_0N@GCAEPEBK@french?9swiss?$AA@ 00483c90     LIBCMTD:getqloc.obj
 0002:00015ca0       ??_C@_0BC@DJFJJCK@french?9luxembourg?$AA@ 00483ca0     LIBCMTD:getqloc.obj
 0002:00015cb4       ??_C@_0BA@NNCEDFIC@french?9canadian?$AA@ 00483cb4     LIBCMTD:getqloc.obj
 0002:00015cc4       ??_C@_0P@CMPOCLM@french?9belgian?$AA@ 00483cc4     LIBCMTD:getqloc.obj
 0002:00015cd4       ??_C@_0M@GHHDJOK@english?9usa?$AA@ 00483cd4     LIBCMTD:getqloc.obj
 0002:00015ce0       ??_C@_0L@PLDJKEIL@english?9us?$AA@ 00483ce0     LIBCMTD:getqloc.obj
 0002:00015cec       ??_C@_0L@HJCCDMNC@english?9uk?$AA@ 00483cec     LIBCMTD:getqloc.obj
 0002:00015cf8       ??_C@_0BK@CKLIAGJB@english?9trinidad?5y?5tobago?$AA@ 00483cf8     LIBCMTD:getqloc.obj
 0002:00015d14       ??_C@_0BF@JMJMGNNF@english?9south?5africa?$AA@ 00483d14     LIBCMTD:getqloc.obj
 0002:00015d2c       ??_C@_0L@DKIIFDFD@english?9nz?$AA@ 00483d2c     LIBCMTD:getqloc.obj
 0002:00015d38       ??_C@_0BA@ONHGJCLH@english?9jamaica?$AA@ 00483d38     LIBCMTD:getqloc.obj
 0002:00015d48       ??_C@_0M@HJBGHOPO@english?9ire?$AA@ 00483d48     LIBCMTD:getqloc.obj
 0002:00015d54       ??_C@_0BC@LFEKMIFB@english?9caribbean?$AA@ 00483d54     LIBCMTD:getqloc.obj
 0002:00015d68       ??_C@_0M@OLDPFKHI@english?9can?$AA@ 00483d68     LIBCMTD:getqloc.obj
 0002:00015d74       ??_C@_0P@OMDEHBMP@english?9belize?$AA@ 00483d74     LIBCMTD:getqloc.obj
 0002:00015d84       ??_C@_0M@KFHFPFED@english?9aus?$AA@ 00483d84     LIBCMTD:getqloc.obj
 0002:00015d90       ??_C@_0BB@MNMBKDFE@english?9american?$AA@ 00483d90     LIBCMTD:getqloc.obj
 0002:00015da4       ??_C@_0O@KIDLNNBA@dutch?9belgian?$AA@ 00483da4     LIBCMTD:getqloc.obj
 0002:00015db4       ??_C@_0BE@JBKABBMH@chinese?9traditional?$AA@ 00483db4     LIBCMTD:getqloc.obj
 0002:00015dc8       ??_C@_0BC@MJJMPKCG@chinese?9singapore?$AA@ 00483dc8     LIBCMTD:getqloc.obj
 0002:00015ddc       ??_C@_0BD@FDKADDCP@chinese?9simplified?$AA@ 00483ddc     LIBCMTD:getqloc.obj
 0002:00015df0       ??_C@_0BB@DBEFDDME@chinese?9hongkong?$AA@ 00483df0     LIBCMTD:getqloc.obj
 0002:00015e04       ??_C@_07DHNMFMCI@chinese?$AA@ 00483e04     LIBCMTD:getqloc.obj
 0002:00015e0c       ??_C@_03FNDDCHI@chi?$AA@   00483e0c     LIBCMTD:getqloc.obj
 0002:00015e10       ??_C@_03BMMIADDJ@chh?$AA@  00483e10     LIBCMTD:getqloc.obj
 0002:00015e14       ??_C@_08OAIPJDGI@canadian?$AA@ 00483e14     LIBCMTD:getqloc.obj
 0002:00015e20       ??_C@_07HBPMNPNJ@belgian?$AA@ 00483e20     LIBCMTD:getqloc.obj
 0002:00015e28       ??_C@_0L@OEKOPBEL@australian?$AA@ 00483e28     LIBCMTD:getqloc.obj
 0002:00015e34       ??_C@_0BB@MEIMBEDG@american?9english?$AA@ 00483e34     LIBCMTD:getqloc.obj
 0002:00015e48       ??_C@_0BB@DFMDPDGB@american?5english?$AA@ 00483e48     LIBCMTD:getqloc.obj
 0002:00015e5c       ??_C@_08IJLOKOLL@american?$AA@ 00483e5c     LIBCMTD:getqloc.obj
 0002:00015e68       ___rg_language             00483e68     LIBCMTD:getqloc.obj
 0002:00016070       ___rg_country              00484070     LIBCMTD:getqloc.obj
 0002:00016128       ___rglangidNotDefault      00484128     LIBCMTD:getqloc.obj
 0002:0001613c       ??_C@_0BC@NFIEMBLL@Norwegian?9Nynorsk?$AA@ 0048413c     LIBCMTD:getqloc.obj
 0002:00016150       ??_C@_1OM@OECHDGCF@?$AAs?$AAt?$AAr?$AAc?$AAp?$AAy?$AA_?$AAs?$AA?$CI?$AAl?$AAp?$AAO?$AAu?$AAt?$AAS?$AAt?$AAr?$AA?9?$AA?$DO?$AAs?$AAz?$AAL?$AAa?$AAn?$AAg?$AAu?$AAa?$AAg?$AAe?$AA?0?$AA?5?$AA?$CI@ 00484150     LIBCMTD:getqloc.obj
 0002:0001623c       ??_C@_1CO@NJACLALJ@?$AA_?$AA_?$AAg?$AAe?$AAt?$AA_?$AAq?$AAu?$AAa?$AAl?$AAi?$AAf?$AAi?$AAe?$AAd?$AA_?$AAl?$AAo?$AAc?$AAa?$AAl?$AAe?$AA?$AA@ 0048423c     LIBCMTD:getqloc.obj
 0002:00016270       ??_C@_1GC@FECJGAE@?$AAf?$AA?3?$AA?2?$AAd?$AAd?$AA?2?$AAv?$AAc?$AAt?$AAo?$AAo?$AAl?$AAs?$AA?2?$AAc?$AAr?$AAt?$AA_?$AAb?$AAl?$AAd?$AA?2?$AAs?$AAe?$AAl?$AAf?$AA_?$AAx?$AA8?$AA6?$AA?2?$AAc@ 00484270     LIBCMTD:getqloc.obj
 0002:000162d4       ??_C@_03NFKLAGEF@OCP?$AA@  004842d4     LIBCMTD:getqloc.obj
 0002:000162d8       ??_C@_01GBGANLPD@0?$AA@    004842d8     LIBCMTD:getqloc.obj
 0002:000162dc       ??_C@_03DFHEHBHG@ACP?$AA@  004842dc     LIBCMTD:getqloc.obj
 0002:000162e0       ??_C@_1M@MFLJCMFJ@?$AA_?$AAo?$AAp?$AAe?$AAn?$AA?$AA@ 004842e0     LIBCMTD:open.obj
 0002:000162f0       ??_C@_1FM@LFKHNNH@?$AAf?$AA?3?$AA?2?$AAd?$AAd?$AA?2?$AAv?$AAc?$AAt?$AAo?$AAo?$AAl?$AAs?$AA?2?$AAc?$AAr?$AAt?$AA_?$AAb?$AAl?$AAd?$AA?2?$AAs?$AAe?$AAl?$AAf?$AA_?$AAx?$AA8?$AA6?$AA?2?$AAc@ 004842f0     LIBCMTD:open.obj
 0002:00016350       ??_C@_1FG@NFINBJCM@?$AA?$CI?$AA?$CI?$AAp?$AAm?$AAo?$AAd?$AAe?$AA?5?$AA?$CG?$AA?5?$AA?$CI?$AA?$HO?$AA?$CI?$AA_?$AAS?$AA_?$AAI?$AAR?$AAE?$AAA?$AAD?$AA?5?$AA?$HM?$AA?5?$AA_?$AAS?$AA_?$AAI?$AAW?$AAR?$AAI?$AAT@ 00484350     LIBCMTD:open.obj
 0002:000163a8       ??_C@_1BM@IOBAMMHO@?$AA_?$AAs?$AAo?$AAp?$AAe?$AAn?$AA_?$AAh?$AAe?$AAl?$AAp?$AAe?$AAr?$AA?$AA@ 004843a8     LIBCMTD:open.obj
 0002:000163c4       ??_C@_1BM@PGEEHLHE@?$AA?$CI?$AAp?$AAf?$AAh?$AA?5?$AA?$CB?$AA?$DN?$AA?5?$AAN?$AAU?$AAL?$AAL?$AA?$CJ?$AA?$AA@ 004843c4     LIBCMTD:open.obj
 0002:000163e0       ??_C@_1IA@IENOJNJF@?$AA0?$AA?5?$AA?$CG?$AA?$CG?$AA?5?$AA?$CC?$AAO?$AAn?$AAl?$AAy?$AA?5?$AAU?$AAT?$AAF?$AA?9?$AA1?$AA6?$AA?5?$AAl?$AAi?$AAt?$AAt?$AAl?$AAe?$AA?5?$AAe?$AAn?$AAd?$AAi?$AAa?$AAn?$AA?5@ 004843e0     LIBCMTD:open.obj
 0002:00016460       ??_C@_1CM@IDLMKMPG@?$AA0?$AA?5?$AA?$CG?$AA?$CG?$AA?5?$AA?$CC?$AAI?$AAn?$AAt?$AAe?$AAr?$AAn?$AAa?$AAl?$AA?5?$AAE?$AAr?$AAr?$AAo?$AAr?$AA?$CC?$AA?$AA@ 00484460     LIBCMTD:open.obj
 0002:00016490       ??_C@_1HM@GJANBLHJ@?$AA?$CI?$AAo?$AAf?$AAl?$AAa?$AAg?$AA?5?$AA?$CG?$AA?5?$AA?$CI?$AA_?$AAO?$AA_?$AAT?$AAE?$AAX?$AAT?$AA?5?$AA?$HM?$AA?5?$AA_?$AAO?$AA_?$AAW?$AAT?$AAE?$AAX?$AAT?$AA?5?$AA?$HM?$AA?5?$AA_@ 00484490     LIBCMTD:open.obj
 0002:0001650c       ??_C@_1DO@PJLMOANO@?$AA?$CI?$AA?5?$AA?$CC?$AAI?$AAn?$AAv?$AAa?$AAl?$AAi?$AAd?$AA?5?$AAs?$AAh?$AAa?$AAr?$AAi?$AAn?$AAg?$AA?5?$AAf?$AAl?$AAa?$AAg?$AA?$CC?$AA?5?$AA?0?$AA?5?$AA0?$AA?5?$AA?$CJ?$AA?$AA@ 0048450c     LIBCMTD:open.obj
 0002:0001654c       ??_C@_1DI@DGKIFCCE@?$AA?$CI?$AA?5?$AA?$CC?$AAI?$AAn?$AAv?$AAa?$AAl?$AAi?$AAd?$AA?5?$AAo?$AAp?$AAe?$AAn?$AA?5?$AAf?$AAl?$AAa?$AAg?$AA?$CC?$AA?5?$AA?0?$AA?5?$AA0?$AA?5?$AA?$CJ?$AA?$AA@ 0048454c     LIBCMTD:open.obj
 0002:00016584       ??_C@_1CG@ICBEBDJJ@?$AA_?$AAg?$AAe?$AAt?$AA_?$AAf?$AAm?$AAo?$AAd?$AAe?$AA?$CI?$AA?$CG?$AAf?$AAm?$AAo?$AAd?$AAe?$AA?$CJ?$AA?$AA@ 00484584     LIBCMTD:open.obj
 0002:000165ac       ??_C@_1BO@JOPFMPGH@?$AA_?$AAt?$AAs?$AAo?$AAp?$AAe?$AAn?$AA_?$AAn?$AAo?$AAl?$AAo?$AAc?$AAk?$AA?$AA@ 004845ac     LIBCMTD:open.obj
 0002:000165cc       ??_C@_1BG@GBJNMPFA@?$AAs?$AA2?$AA?5?$AA?$CB?$AA?$DN?$AA?5?$AAN?$AAU?$AAL?$AAL?$AA?$AA@ 004845cc     LIBCMTD:mbsnbicm.obj
 0002:000165e4       ??_C@_1BK@GEJONGBG@?$AA_?$AAm?$AAb?$AAs?$AAn?$AAb?$AAi?$AAc?$AAm?$AAp?$AA_?$AAl?$AA?$AA@ 004845e4     LIBCMTD:mbsnbicm.obj
 0002:00016600       ??_C@_1GE@JLFFJINF@?$AAf?$AA?3?$AA?2?$AAd?$AAd?$AA?2?$AAv?$AAc?$AAt?$AAo?$AAo?$AAl?$AAs?$AA?2?$AAc?$AAr?$AAt?$AA_?$AAb?$AAl?$AAd?$AA?2?$AAs?$AAe?$AAl?$AAf?$AA_?$AAx?$AA8?$AA6?$AA?2?$AAc@ 00484600     LIBCMTD:mbsnbicm.obj
 0002:00016664       ??_C@_1BG@MODEICJK@?$AAs?$AA1?$AA?5?$AA?$CB?$AA?$DN?$AA?5?$AAN?$AAU?$AAL?$AAL?$AA?$AA@ 00484664     LIBCMTD:mbsnbicm.obj
 0002:0001667c       ??_C@_1BI@LPHOHGHI@?$AA_?$AAm?$AAb?$AAs?$AAn?$AAb?$AAc?$AAm?$AAp?$AA_?$AAl?$AA?$AA@ 0048467c     LIBCMTD:mbsnbcmp.obj
 0002:00016698       ??_C@_1GE@IIBFGEPN@?$AAf?$AA?3?$AA?2?$AAd?$AAd?$AA?2?$AAv?$AAc?$AAt?$AAo?$AAo?$AAl?$AAs?$AA?2?$AAc?$AAr?$AAt?$AA_?$AAb?$AAl?$AAd?$AA?2?$AAs?$AAe?$AAl?$AAf?$AA_?$AAx?$AA8?$AA6?$AA?2?$AAc@ 00484698     LIBCMTD:mbsnbcmp.obj
 0002:000166fc       ??_C@_1CM@HABGDNLJ@?$AAl?$AAe?$AAn?$AAg?$AAt?$AAh?$AA?5?$AA?$DM?$AA?5?$AAs?$AAi?$AAz?$AAe?$AAI?$AAn?$AAT?$AAC?$AAh?$AAa?$AAr?$AAs?$AA?$AA@ 004846fc     LIBCMTD:xtoas.obj
 0002:00016728       ??_C@_1DE@PCJGDBBD@?$AA2?$AA?5?$AA?$DM?$AA?$DN?$AA?5?$AAr?$AAa?$AAd?$AAi?$AAx?$AA?5?$AA?$CG?$AA?$CG?$AA?5?$AAr?$AAa?$AAd?$AAi?$AAx?$AA?5?$AA?$DM?$AA?$DN?$AA?5?$AA3?$AA6?$AA?$AA@ 00484728     LIBCMTD:xtoas.obj
 0002:00016760       ??_C@_1FA@MKGGAGEI@?$AAs?$AAi?$AAz?$AAe?$AAI?$AAn?$AAT?$AAC?$AAh?$AAa?$AAr?$AAs?$AA?5?$AA?$DO?$AA?5?$AA?$CI?$AAs?$AAi?$AAz?$AAe?$AA_?$AAt?$AA?$CJ?$AA?$CI?$AAi?$AAs?$AA_?$AAn?$AAe?$AAg?$AA?5?$AA?$DP@ 00484760     LIBCMTD:xtoas.obj
 0002:000167b0       ??_C@_1CC@JNJFIMGE@?$AAs?$AAi?$AAz?$AAe?$AAI?$AAn?$AAT?$AAC?$AAh?$AAa?$AAr?$AAs?$AA?5?$AA?$DO?$AA?5?$AA0?$AA?$AA@ 004847b0     LIBCMTD:xtoas.obj
 0002:000167d4       ??_C@_1O@GIMBNLEI@?$AAx?$AAt?$AAo?$AAa?$AA_?$AAs?$AA?$AA@ 004847d4     LIBCMTD:xtoas.obj
 0002:000167e8       ??_C@_1FM@MFCBFCGB@?$AAf?$AA?3?$AA?2?$AAd?$AAd?$AA?2?$AAv?$AAc?$AAt?$AAo?$AAo?$AAl?$AAs?$AA?2?$AAc?$AAr?$AAt?$AA_?$AAb?$AAl?$AAd?$AA?2?$AAs?$AAe?$AAl?$AAf?$AA_?$AAx?$AA8?$AA6?$AA?2?$AAc@ 004847e8     LIBCMTD:xtoas.obj
 0002:00016844       ??_C@_1BC@MJJNBNFN@?$AAx?$AA6?$AA4?$AAt?$AAo?$AAa?$AA_?$AAs?$AA?$AA@ 00484844     LIBCMTD:xtoas.obj
 0002:00016858       ??_C@_1CG@LLJCAOHF@?$AA_?$AAw?$AAc?$AAs?$AAt?$AAo?$AAm?$AAb?$AAs?$AA_?$AAl?$AA_?$AAh?$AAe?$AAl?$AAp?$AAe?$AAr?$AA?$AA@ 00484858     LIBCMTD:wcstombs.obj
 0002:00016880       ??_C@_1GE@OAENIBOD@?$AAf?$AA?3?$AA?2?$AAd?$AAd?$AA?2?$AAv?$AAc?$AAt?$AAo?$AAo?$AAl?$AAs?$AA?2?$AAc?$AAr?$AAt?$AA_?$AAb?$AAl?$AAd?$AA?2?$AAs?$AAe?$AAl?$AAf?$AA_?$AAx?$AA8?$AA6?$AA?2?$AAc@ 00484880     LIBCMTD:wcstombs.obj
 0002:000168e4       ??_C@_1BK@OIBENBPM@?$AAp?$AAw?$AAc?$AAs?$AA?5?$AA?$CB?$AA?$DN?$AA?5?$AAN?$AAU?$AAL?$AAL?$AA?$AA@ 004848e4     LIBCMTD:wcstombs.obj
 0002:00016900       ??_C@_1CM@KEOGBFLI@?$AAs?$AAi?$AAz?$AAe?$AAI?$AAn?$AAB?$AAy?$AAt?$AAe?$AAs?$AA?5?$AA?$DO?$AA?5?$AAr?$AAe?$AAt?$AAs?$AAi?$AAz?$AAe?$AA?$AA@ 00484900     LIBCMTD:wcstombs.obj
 0002:0001692c       ??_C@_1BM@BDMCLLDL@?$AA_?$AAw?$AAc?$AAs?$AAt?$AAo?$AAm?$AAb?$AAs?$AA_?$AAs?$AA_?$AAl?$AA?$AA@ 0048492c     LIBCMTD:wcstombs.obj
 0002:00016948       ??_C@_1IM@MFGKHGBP@?$AA?$CI?$AAd?$AAs?$AAt?$AA?5?$AA?$CB?$AA?$DN?$AA?5?$AAN?$AAU?$AAL?$AAL?$AA?5?$AA?$CG?$AA?$CG?$AA?5?$AAs?$AAi?$AAz?$AAe?$AAI?$AAn?$AAB?$AAy?$AAt?$AAe?$AAs?$AA?5?$AA?$DO?$AA?5?$AA0?$AA?$CJ@ 00484948     LIBCMTD:wcstombs.obj
 0002:000169d4       ??_C@_1BC@PLIEPKPJ@?$AAw?$AAc?$AAs?$AAc?$AAa?$AAt?$AA_?$AAs?$AA?$AA@ 004849d4     LIBCMTD:wcscat_s.obj
 0002:000169e8       ??_C@_1CE@IGKFIJFD@?$AA_?$AAv?$AAs?$AAw?$AAp?$AAr?$AAi?$AAn?$AAt?$AAf?$AA_?$AAh?$AAe?$AAl?$AAp?$AAe?$AAr?$AA?$AA@ 004849e8     LIBCMTD:vswprnc.obj
 0002:00016a10       ??_C@_1GE@KINELFI@?$AAf?$AA?3?$AA?2?$AAd?$AAd?$AA?2?$AAv?$AAc?$AAt?$AAo?$AAo?$AAl?$AAs?$AA?2?$AAc?$AAr?$AAt?$AA_?$AAb?$AAl?$AAd?$AA?2?$AAs?$AAe?$AAl?$AAf?$AA_?$AAx?$AA8?$AA6?$AA?2?$AAc@ 00484a10     LIBCMTD:vswprnc.obj
 0002:00016a78       ??_C@_1EE@MPCHJFGP@?$AAs?$AAt?$AAr?$AAi?$AAn?$AAg?$AA?5?$AA?$CB?$AA?$DN?$AA?5?$AAN?$AAU?$AAL?$AAL?$AA?5?$AA?$CG?$AA?$CG?$AA?5?$AAs?$AAi?$AAz?$AAe?$AAI?$AAn?$AAW?$AAo?$AAr?$AAd?$AAs?$AA?5?$AA?$DO?$AA?5@ 00484a78     LIBCMTD:vswprnc.obj
 0002:00016abc       ??_C@_1BO@OALHJLCI@?$AA_?$AAv?$AAs?$AAw?$AAp?$AAr?$AAi?$AAn?$AAt?$AAf?$AA_?$AAs?$AA_?$AAl?$AA?$AA@ 00484abc     LIBCMTD:vswprnc.obj
 0002:00016adc       ??_C@_1CA@BKFKMJFF@?$AA_?$AAv?$AAs?$AAn?$AAw?$AAp?$AAr?$AAi?$AAn?$AAt?$AAf?$AA_?$AAs?$AA_?$AAl?$AA?$AA@ 00484adc     LIBCMTD:vswprnc.obj
 0002:00016afc       ??_C@_1O@NCBFODOE@?$AAx?$AAt?$AAo?$AAw?$AA_?$AAs?$AA?$AA@ 00484afc     LIBCMTD:xtows.obj
 0002:00016b0c       ??_C@_1BC@HDEJCFPB@?$AAx?$AA6?$AA4?$AAt?$AAo?$AAw?$AA_?$AAs?$AA?$AA@ 00484b0c     LIBCMTD:xtows.obj
 0002:00016b20       ??_C@_1BG@BBCDFOMA@?$AA_?$AAw?$AAo?$AAu?$AAt?$AAp?$AAu?$AAt?$AA_?$AAl?$AA?$AA@ 00484b20     LIBCMTD:woutput.obj
 0002:00016b38       ??_C@_1BK@EPLNBKAK@?$AA_?$AAv?$AAs?$AAw?$AAp?$AAr?$AAi?$AAn?$AAt?$AAf?$AA_?$AAl?$AA?$AA@ 00484b38     LIBCMTD:vswprint.obj
 0002:00016b54       ??_C@_1CG@IMMIEPNA@?$AA_?$AAv?$AAs?$AAc?$AAw?$AAp?$AAr?$AAi?$AAn?$AAt?$AAf?$AA_?$AAh?$AAe?$AAl?$AAp?$AAe?$AAr?$AA?$AA@ 00484b54     LIBCMTD:vswprint.obj
 0002:00016b7c       ??_C@_1CA@LFDHAMEM@?$AA_?$AAs?$AAe?$AAt?$AA_?$AAe?$AAr?$AAr?$AAo?$AAr?$AA_?$AAm?$AAo?$AAd?$AAe?$AA?$AA@ 00484b7c     LIBCMTD:errmode.obj
 0002:00016ba0       ??_C@_1GC@FGMGFCNB@?$AAf?$AA?3?$AA?2?$AAd?$AAd?$AA?2?$AAv?$AAc?$AAt?$AAo?$AAo?$AAl?$AAs?$AA?2?$AAc?$AAr?$AAt?$AA_?$AAb?$AAl?$AAd?$AA?2?$AAs?$AAe?$AAl?$AAf?$AA_?$AAx?$AA8?$AA6?$AA?2?$AAc@ 00484ba0     LIBCMTD:errmode.obj
 0002:00016c04       ??_C@_1DE@BCNCAIK@?$AA?$CI?$AA?$CC?$AAI?$AAn?$AAv?$AAa?$AAl?$AAi?$AAd?$AA?5?$AAe?$AAr?$AAr?$AAo?$AAr?$AA_?$AAm?$AAo?$AAd?$AAe?$AA?$CC?$AA?0?$AA?5?$AA0?$AA?$CJ?$AA?$AA@ 00484c04     LIBCMTD:errmode.obj
 0002:00016c38       ??_C@_0BK@CIDNPOGP@GetUserObjectInformationA?$AA@ 00484c38     LIBCMTD:crtmbox.obj
 0002:00016c54       ??_C@_0M@CHKKJDAI@MessageBoxA?$AA@ 00484c54     LIBCMTD:crtmbox.obj
 0002:00016c60       ??_C@_0L@NDEGIDAG@USER32?4DLL?$AA@ 00484c60     LIBCMTD:crtmbox.obj
 0002:00016c6c       ??_C@_1BM@HBMHMBEM@?$AA_?$AAm?$AAb?$AAs?$AAn?$AAb?$AAc?$AAp?$AAy?$AA_?$AAs?$AA_?$AAl?$AA?$AA@ 00484c6c     LIBCMTD:mbsnbcpy_s_l.obj
 0002:00016c88       ??_C@_1GK@MBHICH@?$AAf?$AA?3?$AA?2?$AAd?$AAd?$AA?2?$AAv?$AAc?$AAt?$AAo?$AAo?$AAl?$AAs?$AA?2?$AAc?$AAr?$AAt?$AA_?$AAb?$AAl?$AAd?$AA?2?$AAs?$AAe?$AAl?$AAf?$AA_?$AAx?$AA8?$AA6?$AA?2?$AAc@ 00484c88     LIBCMTD:mbsnbcpy_s_l.obj
 0002:00016cf4       ??_C@_1BA@NGNGNDEP@?$AA_?$AAc?$AAp?$AAu?$AAt?$AAw?$AAs?$AA?$AA@ 00484cf4     LIBCMTD:putwch.obj
 0002:00016d08       ??_C@_1GA@NKLOJFIJ@?$AAf?$AA?3?$AA?2?$AAd?$AAd?$AA?2?$AAv?$AAc?$AAt?$AAo?$AAo?$AAl?$AAs?$AA?2?$AAc?$AAr?$AAt?$AA_?$AAb?$AAl?$AAd?$AA?2?$AAs?$AAe?$AAl?$AAf?$AA_?$AAx?$AA8?$AA6?$AA?2?$AAc@ 00484d08     LIBCMTD:putwch.obj
 0002:00016d68       ??_C@_0BO@GNIAFIKK@Unknown?5Runtime?5Check?5Error?6?$AN?$AA@ 00484d68     LIBCMTD:_error_.obj
 0002:00016d88       ??_C@_0CM@NGINOKPC@Stack?5memory?5around?5_alloca?5was?5@ 00484d88     LIBCMTD:_error_.obj
 0002:00016db4       ??_C@_0DG@HKJMLLLP@A?5local?5variable?5was?5used?5before@ 00484db4     LIBCMTD:_error_.obj
 0002:00016dec       ??_C@_0BN@FFOINMNJ@Stack?5memory?5was?5corrupted?6?$AN?$AA@ 00484dec     LIBCMTD:_error_.obj
 0002:00016e10       ??_C@_0BBN@GPMLNJCF@A?5cast?5to?5a?5smaller?5data?5type?5ha@ 00484e10     LIBCMTD:_error_.obj
 0002:00016f30       ??_C@_0NN@NGPKDKPD@The?5value?5of?5ESP?5was?5not?5properl@ 00484f30     LIBCMTD:_error_.obj
 0002:000170ac       ??_C@_0CA@IODNCDPG@Run?9Time?5Check?5Failure?5?$CD?$CFd?5?9?5?$CFs?$AA@ 004850ac     LIBCMTD:_error_.obj
 0002:000170cc       ??_C@_0BE@GNBOBNCK@Unknown?5Module?5Name?$AA@ 004850cc     LIBCMTD:_error_.obj
 0002:000170e0       ??_C@_0BB@PFFGGCJP@Unknown?5Filename?$AA@ 004850e0     LIBCMTD:_error_.obj
 0002:000170f8       ??_C@_1EA@NFKNIFJP@?$AAR?$AAu?$AAn?$AA?9?$AAT?$AAi?$AAm?$AAe?$AA?5?$AAC?$AAh?$AAe?$AAc?$AAk?$AA?5?$AAF?$AAa?$AAi?$AAl?$AAu?$AAr?$AAe?$AA?5?$AA?$CD?$AA?$CF?$AAd?$AA?5?$AA?9?$AA?5?$AA?$CF?$AAs?$AA?$AA@ 004850f8     LIBCMTD:_error_.obj
 0002:00017138       ??_C@_1GM@OLMCBDMB@?$AAR?$AAu?$AAn?$AAt?$AAi?$AAm?$AAe?$AA?5?$AAC?$AAh?$AAe?$AAc?$AAk?$AA?5?$AAE?$AAr?$AAr?$AAo?$AAr?$AA?4?$AA?6?$AA?$AN?$AA?5?$AAU?$AAn?$AAa?$AAb?$AAl?$AAe?$AA?5?$AAt?$AAo@ 00485138     LIBCMTD:_error_.obj
 0002:000171a4       ??_C@_0CG@IAFNJNEE@Stack?5corrupted?5near?5unknown?5var@ 004851a4     LIBCMTD:_error_.obj
 0002:000171d0       ??_C@_0EJ@LJKNEOLN@Stack?5area?5around?5_alloca?5memory@ 004851d0     LIBCMTD:_error_.obj
 0002:0001721c       ??_C@_08KJEDNCKC@?$CFs?$CFs?$CFs?$CFs?$AA@ 0048521c     LIBCMTD:_error_.obj
 0002:00017228       ??_C@_02LLMPMKNF@?$DO?5?$AA@ 00485228     LIBCMTD:_error_.obj
 0002:0001722c       ??_C@_0BC@KIBAILCI@?$CFs?$CFs?$CFp?$CFs?$CFld?$CFs?$CFd?$CFs?$AA@ 0048522c     LIBCMTD:_error_.obj
 0002:00017240       ??_C@_0EI@CLEPFNGI@Stack?5area?5around?5_alloca?5memory@ 00485240     LIBCMTD:_error_.obj
 0002:00017288       ??_C@_0N@MHFFIMFG@?6Address?3?50x?$AA@ 00485288     LIBCMTD:_error_.obj
 0002:00017298       ??_C@_07DFDJCKFN@?6Size?3?5?$AA@ 00485298     LIBCMTD:_error_.obj
 0002:000172a0       ??_C@_0CK@DKGBICFE@?6Allocation?5number?5within?5this?5f@ 004852a0     LIBCMTD:_error_.obj
 0002:000172cc       ??_C@_08OMAHNMHJ@?6Data?3?5?$DM?$AA@ 004852cc     LIBCMTD:_error_.obj
 0002:000172d8       ??_C@_09FOPFMPEJ@wsprintfA?$AA@ 004852d8     LIBCMTD:_error_.obj
 0002:000172e4       ??_C@_0L@GMPLCCII@user32?4dll?$AA@ 004852e4     LIBCMTD:_error_.obj
 0002:000172f0       ??_C@_0DE@OHJBPMBP@A?5variable?5is?5being?5used?5without@ 004852f0     LIBCMTD:_error_.obj
 0002:00017324       ?commonFlags@?1??_control87@@9@9 00485324     LIBCMTD:_ieee87_.obj
 0002:00017328       ??_C@_1GO@OKJGOMCB@?$AA_?$AAc?$AAo?$AAn?$AAt?$AAr?$AAo?$AAl?$AAf?$AAp?$AA_?$AAs?$AA?$CI?$AA?$CI?$AA?$CI?$AAv?$AAo?$AAi?$AAd?$AA?5?$AA?$CK?$AA?$CJ?$AA0?$AA?$CJ?$AA?0?$AA?5?$AAn?$AAe?$AAw?$AAc?$AAt?$AAr@ 00485328     LIBCMTD:_ieee87_.obj
 0002:00017398       ??_C@_1BO@OFDNCLL@?$AA_?$AAs?$AAe?$AAt?$AA_?$AAc?$AAo?$AAn?$AAt?$AAr?$AAo?$AAl?$AAf?$AAp?$AA?$AA@ 00485398     LIBCMTD:_ieee87_.obj
 0002:000173b8       ??_C@_1HO@BFDKGHOI@?$AAf?$AA?3?$AA?2?$AAd?$AAd?$AA?2?$AAv?$AAc?$AAt?$AAo?$AAo?$AAl?$AAs?$AA?2?$AAc?$AAr?$AAt?$AA_?$AAb?$AAl?$AAd?$AA?2?$AAs?$AAe?$AAl?$AAf?$AA_?$AAx?$AA8?$AA6?$AA?2?$AAc@ 004853b8     LIBCMTD:_ieee87_.obj
 0002:00017438       ??_C@_1BO@IHLJHOPI@?$AA_?$AA_?$AAs?$AAt?$AAr?$AAg?$AAt?$AAo?$AAl?$AAd?$AA1?$AA2?$AA_?$AAl?$AA?$AA@ 00485438     LIBCMTD:_strgtold_.obj
 0002:00017458       ??_C@_1IG@IGKPPFIM@?$AAf?$AA?3?$AA?2?$AAd?$AAd?$AA?2?$AAv?$AAc?$AAt?$AAo?$AAo?$AAl?$AAs?$AA?2?$AAc?$AAr?$AAt?$AA_?$AAb?$AAl?$AAd?$AA?2?$AAs?$AAe?$AAl?$AAf?$AA_?$AAx?$AA8?$AA6?$AA?2?$AAc@ 00485458     LIBCMTD:_strgtold_.obj
 0002:000174e0       ??_C@_1CA@MBDBOHIB@?$AA_?$AAL?$AAo?$AAc?$AAa?$AAl?$AAe?$AA?5?$AA?$CB?$AA?$DN?$AA?5?$AAN?$AAU?$AAL?$AAL?$AA?$AA@ 004854e0     LIBCMTD:_strgtold_.obj
 0002:00017500       ??_C@_06IMKFLFPG@1?$CDQNAN?$AA@ 00485500     LIBCMTD:_x10fout_.obj
 0002:00017508       ??_C@_1EG@MCFPJJEM@?$AAs?$AAt?$AAr?$AAc?$AAp?$AAy?$AA_?$AAs?$AA?$CI?$AAf?$AAo?$AAs?$AA?9?$AA?$DO?$AAm?$AAa?$AAn?$AA?0?$AA?5?$AA2?$AA1?$AA?$CL?$AA1?$AA?0?$AA?5?$AA?$CC?$AA1?$AA?$CD?$AAQ?$AAN?$AAA?$AAN@ 00485508     LIBCMTD:_x10fout_.obj
 0002:00017550       ??_C@_05DNEBIAHO@1?$CDINF?$AA@ 00485550     LIBCMTD:_x10fout_.obj
 0002:00017558       ??_C@_1EE@ICBBBPAI@?$AAs?$AAt?$AAr?$AAc?$AAp?$AAy?$AA_?$AAs?$AA?$CI?$AAf?$AAo?$AAs?$AA?9?$AA?$DO?$AAm?$AAa?$AAn?$AA?0?$AA?5?$AA2?$AA1?$AA?$CL?$AA1?$AA?0?$AA?5?$AA?$CC?$AA1?$AA?$CD?$AAI?$AAN?$AAF?$AA?$CC@ 00485558     LIBCMTD:_x10fout_.obj
 0002:0001759c       ??_C@_05PHHOCPM@1?$CDIND?$AA@ 0048559c     LIBCMTD:_x10fout_.obj
 0002:000175a8       ??_C@_1EE@MADEBIHF@?$AAs?$AAt?$AAr?$AAc?$AAp?$AAy?$AA_?$AAs?$AA?$CI?$AAf?$AAo?$AAs?$AA?9?$AA?$DO?$AAm?$AAa?$AAn?$AA?0?$AA?5?$AA2?$AA1?$AA?$CL?$AA1?$AA?0?$AA?5?$AA?$CC?$AA1?$AA?$CD?$AAI?$AAN?$AAD?$AA?$CC@ 004855a8     LIBCMTD:_x10fout_.obj
 0002:000175ec       ??_C@_06PGGFOGJG@1?$CDSNAN?$AA@ 004855ec     LIBCMTD:_x10fout_.obj
 0002:000175f8       ??_C@_1EG@CDDBFNOB@?$AAs?$AAt?$AAr?$AAc?$AAp?$AAy?$AA_?$AAs?$AA?$CI?$AAf?$AAo?$AAs?$AA?9?$AA?$DO?$AAm?$AAa?$AAn?$AA?0?$AA?5?$AA2?$AA1?$AA?$CL?$AA1?$AA?0?$AA?5?$AA?$CC?$AA1?$AA?$CD?$AAS?$AAN?$AAA?$AAN@ 004855f8     LIBCMTD:_x10fout_.obj
 0002:00017640       ??_C@_1BI@ELMAAFLN@?$AA$?$AAI?$AA1?$AA0?$AA_?$AAO?$AAU?$AAT?$AAP?$AAU?$AAT?$AA?$AA@ 00485640     LIBCMTD:_x10fout_.obj
 0002:00017658       ??_C@_1HG@HFJMHCFK@?$AAf?$AA?3?$AA?2?$AAd?$AAd?$AA?2?$AAv?$AAc?$AAt?$AAo?$AAo?$AAl?$AAs?$AA?2?$AAc?$AAr?$AAt?$AA_?$AAb?$AAl?$AAd?$AA?2?$AAs?$AAe?$AAl?$AAf?$AA_?$AAx?$AA8?$AA6?$AA?2?$AAc@ 00485658     LIBCMTD:_x10fout_.obj
 0002:000176d0       ___dnames                  004856d0     LIBCMTD:timeset.obj
 0002:000176e8       ___mnames                  004856e8     LIBCMTD:timeset.obj
 0002:00017710       ??_C@_1BM@FIMHBHEB@?$AA_?$AAg?$AAe?$AAt?$AA_?$AAd?$AAa?$AAy?$AAl?$AAi?$AAg?$AAh?$AAt?$AA?$AA@ 00485710     LIBCMTD:timeset.obj
 0002:00017730       ??_C@_1GC@NEGFAKA@?$AAf?$AA?3?$AA?2?$AAd?$AAd?$AA?2?$AAv?$AAc?$AAt?$AAo?$AAo?$AAl?$AAs?$AA?2?$AAc?$AAr?$AAt?$AA_?$AAb?$AAl?$AAd?$AA?2?$AAs?$AAe?$AAl?$AAf?$AA_?$AAx?$AA8?$AA6?$AA?2?$AAc@ 00485730     LIBCMTD:timeset.obj
 0002:00017794       ??_C@_1CI@MKJEHFPG@?$AA?$CI?$AA_?$AAD?$AAa?$AAy?$AAl?$AAi?$AAg?$AAh?$AAt?$AA?5?$AA?$CB?$AA?$DN?$AA?5?$AAN?$AAU?$AAL?$AAL?$AA?$CJ?$AA?$AA@ 00485794     LIBCMTD:timeset.obj
 0002:000177bc       ??_C@_1BK@EMODDHEE@?$AA_?$AAg?$AAe?$AAt?$AA_?$AAd?$AAs?$AAt?$AAb?$AAi?$AAa?$AAs?$AA?$AA@ 004857bc     LIBCMTD:timeset.obj
 0002:000177d8       ??_C@_1EC@PKDJPAAB@?$AA?$CI?$AA_?$AAD?$AAa?$AAy?$AAl?$AAi?$AAg?$AAh?$AAt?$AA_?$AAs?$AAa?$AAv?$AAi?$AAn?$AAg?$AAs?$AA_?$AAb?$AAi?$AAa?$AAs?$AA?5?$AA?$CB?$AA?$DN?$AA?5?$AAN?$AAU?$AAL?$AAL?$AA?$CJ@ 004857d8     LIBCMTD:timeset.obj
 0002:0001781c       ??_C@_1BM@MGEAKPEJ@?$AA_?$AAg?$AAe?$AAt?$AA_?$AAt?$AAi?$AAm?$AAe?$AAz?$AAo?$AAn?$AAe?$AA?$AA@ 0048581c     LIBCMTD:timeset.obj
 0002:00017838       ??_C@_1CI@PODJJGAL@?$AA?$CI?$AA_?$AAT?$AAi?$AAm?$AAe?$AAz?$AAo?$AAn?$AAe?$AA?5?$AA?$CB?$AA?$DN?$AA?5?$AAN?$AAU?$AAL?$AAL?$AA?$CJ?$AA?$AA@ 00485838     LIBCMTD:timeset.obj
 0002:00017860       ??_C@_1DG@HLGKANIP@?$AA_?$AAI?$AAn?$AAd?$AAe?$AAx?$AA?5?$AA?$DN?$AA?$DN?$AA?5?$AA0?$AA?5?$AA?$HM?$AA?$HM?$AA?5?$AA_?$AAI?$AAn?$AAd?$AAe?$AAx?$AA?5?$AA?$DN?$AA?$DN?$AA?5?$AA1?$AA?$AA@ 00485860     LIBCMTD:timeset.obj
 0002:00017898       ??_C@_1CK@GBKHKEI@?$AA_?$AAR?$AAe?$AAt?$AAu?$AAr?$AAn?$AAV?$AAa?$AAl?$AAu?$AAe?$AA?5?$AA?$CB?$AA?$DN?$AA?5?$AAN?$AAU?$AAL?$AAL?$AA?$AA@ 00485898     LIBCMTD:timeset.obj
 0002:000178c4       ??_C@_1BI@BHCKCCFA@?$AA_?$AAg?$AAe?$AAt?$AA_?$AAt?$AAz?$AAn?$AAa?$AAm?$AAe?$AA?$AA@ 004858c4     LIBCMTD:timeset.obj
 0002:000178e0       ??_C@_1KA@POFLNEC@?$AA?$CI?$AA_?$AAB?$AAu?$AAf?$AAf?$AAe?$AAr?$AA?5?$AA?$CB?$AA?$DN?$AA?5?$AAN?$AAU?$AAL?$AAL?$AA?5?$AA?$CG?$AA?$CG?$AA?5?$AA_?$AAS?$AAi?$AAz?$AAe?$AAI?$AAn?$AAB?$AAy?$AAt?$AAe?$AAs@ 004858e0     LIBCMTD:timeset.obj
 0002:00017980       ??_C@_1EA@GEPBEDLJ@?$AAs?$AAt?$AAr?$AAn?$AAc?$AAp?$AAy?$AA_?$AAs?$AA?$CI?$AAt?$AAz?$AAn?$AAa?$AAm?$AAe?$AA?$FL?$AA1?$AA?$FN?$AA?0?$AA?5?$AA6?$AA4?$AA?0?$AA?5?$AAT?$AAZ?$AA?0?$AA?5?$AA3?$AA?$CJ?$AA?$AA@ 00485980     LIBCMTD:tzset.obj
 0002:000179c0       ??_C@_1EA@FIJBKALB@?$AAs?$AAt?$AAr?$AAn?$AAc?$AAp?$AAy?$AA_?$AAs?$AA?$CI?$AAt?$AAz?$AAn?$AAa?$AAm?$AAe?$AA?$FL?$AA0?$AA?$FN?$AA?0?$AA?5?$AA6?$AA4?$AA?0?$AA?5?$AAT?$AAZ?$AA?0?$AA?5?$AA3?$AA?$CJ?$AA?$AA@ 004859c0     LIBCMTD:tzset.obj
 0002:00017a00       ??_C@_1EK@MCAIMDPB@?$AAs?$AAt?$AAr?$AAc?$AAp?$AAy?$AA_?$AAs?$AA?$CI?$AAl?$AAa?$AAs?$AAt?$AAT?$AAZ?$AA?0?$AA?5?$AAs?$AAt?$AAr?$AAl?$AAe?$AAn?$AA?$CI?$AAT?$AAZ?$AA?$CJ?$AA?5?$AA?$CL?$AA?5?$AA1?$AA?0@ 00485a00     LIBCMTD:tzset.obj
 0002:00017a4c       ??_C@_0CP@FODJBIFF@f?3?2dd?2vctools?2crt_bld?2self_x86?2c@ 00485a4c     LIBCMTD:tzset.obj
 0002:00017a7c       ??_C@_02CLFPBFFP@TZ?$AA@   00485a7c     LIBCMTD:tzset.obj
 0002:00017a80       ??_C@_1CO@IMMOMMCB@?$AA_?$AAg?$AAe?$AAt?$AA_?$AAd?$AAs?$AAt?$AAb?$AAi?$AAa?$AAs?$AA?$CI?$AA?$CG?$AAd?$AAs?$AAt?$AAb?$AAi?$AAa?$AAs?$AA?$CJ?$AA?$AA@ 00485a80     LIBCMTD:tzset.obj
 0002:00017ab0       ??_C@_1DC@MEHEMOPB@?$AA_?$AAg?$AAe?$AAt?$AA_?$AAd?$AAa?$AAy?$AAl?$AAi?$AAg?$AAh?$AAt?$AA?$CI?$AA?$CG?$AAd?$AAa?$AAy?$AAl?$AAi?$AAg?$AAh?$AAt?$AA?$CJ?$AA?$AA@ 00485ab0     LIBCMTD:tzset.obj
 0002:00017ae4       ??_C@_1DC@CMKCHHFC@?$AA_?$AAg?$AAe?$AAt?$AA_?$AAt?$AAi?$AAm?$AAe?$AAz?$AAo?$AAn?$AAe?$AA?$CI?$AA?$CG?$AAt?$AAi?$AAm?$AAe?$AAz?$AAo?$AAn?$AAe?$AA?$CJ?$AA?$AA@ 00485ae4     LIBCMTD:tzset.obj
 0002:00017b18       ??_C@_1BM@IIODHMJC@?$AA_?$AAt?$AAz?$AAs?$AAe?$AAt?$AA_?$AAn?$AAo?$AAl?$AAo?$AAc?$AAk?$AA?$AA@ 00485b18     LIBCMTD:tzset.obj
 0002:00017b38       ??_C@_1FO@MLHAIHAB@?$AAf?$AA?3?$AA?2?$AAd?$AAd?$AA?2?$AAv?$AAc?$AAt?$AAo?$AAo?$AAl?$AAs?$AA?2?$AAc?$AAr?$AAt?$AA_?$AAb?$AAl?$AAd?$AA?2?$AAs?$AAe?$AAl?$AAf?$AA_?$AAx?$AA8?$AA6?$AA?2?$AAc@ 00485b38     LIBCMTD:tzset.obj
 0002:00017b98       ??_C@_1CA@GOLIIEDM@?$AA_?$AAi?$AAs?$AAi?$AAn?$AAd?$AAs?$AAt?$AA_?$AAn?$AAo?$AAl?$AAo?$AAc?$AAk?$AA?$AA@ 00485b98     LIBCMTD:tzset.obj
 0002:00017bb8       ??_C@_1BA@GOCKIDGO@?$AAc?$AAv?$AAt?$AAd?$AAa?$AAt?$AAe?$AA?$AA@ 00485bb8     LIBCMTD:tzset.obj
 0002:00017bc8       ??_C@_1BG@GLLONOEH@?$AA_?$AAs?$AAt?$AAr?$AAi?$AAc?$AAm?$AAp?$AA_?$AAl?$AA?$AA@ 00485bc8     LIBCMTD:stricmp.obj
 0002:00017be0       ??_C@_1GC@OILHAOLL@?$AAf?$AA?3?$AA?2?$AAd?$AAd?$AA?2?$AAv?$AAc?$AAt?$AAo?$AAo?$AAl?$AAs?$AA?2?$AAc?$AAr?$AAt?$AA_?$AAb?$AAl?$AAd?$AA?2?$AAs?$AAe?$AAl?$AAf?$AA_?$AAx?$AA8?$AA6?$AA?2?$AAc@ 00485be0     LIBCMTD:stricmp.obj
 0002:00017c44       ??_C@_1BC@JLGKKIIG@?$AA_?$AAs?$AAt?$AAr?$AAi?$AAc?$AAm?$AAp?$AA?$AA@ 00485c44     LIBCMTD:stricmp.obj
 0002:00017c58       ??_C@_1CC@JLPHKJPH@?$AAc?$AAo?$AAu?$AAn?$AAt?$AA?5?$AA?$DM?$AA?$DN?$AA?5?$AAI?$AAN?$AAT?$AA_?$AAM?$AAA?$AAX?$AA?$AA@ 00485c58     LIBCMTD:strnicmp.obj
 0002:00017c7c       ??_C@_1BI@BJLEPLEF@?$AA_?$AAs?$AAt?$AAr?$AAn?$AAi?$AAc?$AAm?$AAp?$AA_?$AAl?$AA?$AA@ 00485c7c     LIBCMTD:strnicmp.obj
 0002:00017c98       ??_C@_1GE@CONPOJMA@?$AAf?$AA?3?$AA?2?$AAd?$AAd?$AA?2?$AAv?$AAc?$AAt?$AAo?$AAo?$AAl?$AAs?$AA?2?$AAc?$AAr?$AAt?$AA_?$AAb?$AAl?$AAd?$AA?2?$AAs?$AAe?$AAl?$AAf?$AA_?$AAx?$AA8?$AA6?$AA?2?$AAc@ 00485c98     LIBCMTD:strnicmp.obj
 0002:00017cfc       ??_C@_1BE@BHJDFFNA@?$AA_?$AAs?$AAt?$AAr?$AAn?$AAi?$AAc?$AAm?$AAp?$AA?$AA@ 00485cfc     LIBCMTD:strnicmp.obj
 0002:00017d10       ??_C@_1BI@GALBKMKE@?$AA?$CI?$AAs?$AAi?$AAz?$AAe?$AA?5?$AA?$DO?$AA?$DN?$AA?5?$AA0?$AA?$CJ?$AA?$AA@ 00485d10     LIBCMTD:chsize.obj
 0002:00017d28       ??_C@_1BE@MAFDNGED@?$AA_?$AAc?$AAh?$AAs?$AAi?$AAz?$AAe?$AA_?$AAs?$AA?$AA@ 00485d28     LIBCMTD:chsize.obj
 0002:00017d40       ??_C@_1GA@DBKMEDOF@?$AAf?$AA?3?$AA?2?$AAd?$AAd?$AA?2?$AAv?$AAc?$AAt?$AAo?$AAo?$AAl?$AAs?$AA?2?$AAc?$AAr?$AAt?$AA_?$AAb?$AAl?$AAd?$AA?2?$AAs?$AAe?$AAl?$AAf?$AA_?$AAx?$AA8?$AA6?$AA?2?$AAc@ 00485d40     LIBCMTD:chsize.obj
 0002:00017da0       ??_C@_1BC@JBGGJDCM@?$AA_?$AAs?$AAe?$AAt?$AAm?$AAo?$AAd?$AAe?$AA?$AA@ 00485da0     LIBCMTD:setmode.obj
 0002:00017db8       ??_C@_1GC@KODPFLLJ@?$AAf?$AA?3?$AA?2?$AAd?$AAd?$AA?2?$AAv?$AAc?$AAt?$AAo?$AAo?$AAl?$AAs?$AA?2?$AAc?$AAr?$AAt?$AA_?$AAb?$AAl?$AAd?$AA?2?$AAs?$AAe?$AAl?$AAf?$AA_?$AAx?$AA8?$AA6?$AA?2?$AAc@ 00485db8     LIBCMTD:setmode.obj
 0002:00017e20       ??_C@_1OA@HGPJIFPM@?$AA?$CI?$AA?$CI?$AAm?$AAo?$AAd?$AAe?$AA?5?$AA?$DN?$AA?$DN?$AA?5?$AA_?$AAO?$AA_?$AAT?$AAE?$AAX?$AAT?$AA?$CJ?$AA?5?$AA?$HM?$AA?$HM?$AA?5?$AA?$CI?$AAm?$AAo?$AAd?$AAe?$AA?5?$AA?$DN?$AA?$DN?$AA?5?$AA_@ 00485e20     LIBCMTD:setmode.obj
 0002:00017f00       ??_C@_1BG@IEEHLOCL@?$AA_?$AAs?$AAe?$AAt?$AA_?$AAf?$AAm?$AAo?$AAd?$AAe?$AA?$AA@ 00485f00     LIBCMTD:setmode.obj
 0002:00017f18       ??_C@_1IC@NDCJMLB@?$AA?$CI?$AA?$CI?$AAm?$AAo?$AAd?$AAe?$AA?5?$AA?$DN?$AA?$DN?$AA?5?$AA_?$AAO?$AA_?$AAT?$AAE?$AAX?$AAT?$AA?$CJ?$AA?5?$AA?$HM?$AA?$HM?$AA?5?$AA?$CI?$AAm?$AAo?$AAd?$AAe?$AA?5?$AA?$DN?$AA?$DN?$AA?5?$AA_@ 00485f18     LIBCMTD:setmode.obj
 0002:00017f9c       ??_C@_1BG@CKGMPOFH@?$AA_?$AAg?$AAe?$AAt?$AA_?$AAf?$AAm?$AAo?$AAd?$AAe?$AA?$AA@ 00485f9c     LIBCMTD:setmode.obj
 0002:00017fb4       ??_C@_1CA@GPIGPPFN@?$AA?$CI?$AAp?$AAM?$AAo?$AAd?$AAe?$AA?5?$AA?$CB?$AA?$DN?$AA?5?$AAN?$AAU?$AAL?$AAL?$AA?$CJ?$AA?$AA@ 00485fb4     LIBCMTD:setmode.obj
 0002:00017fd4       ??_C@_1BK@ONMFGLDB@?$AA_?$AAw?$AAo?$AAu?$AAt?$AAp?$AAu?$AAt?$AA_?$AAs?$AA_?$AAl?$AA?$AA@ 00485fd4     LIBCMTD:woutputs.obj
 0002:00017ff0       ??_C@_1BK@GDEKGMNC@?$AA_?$AAw?$AAo?$AAu?$AAt?$AAp?$AAu?$AAt?$AA_?$AAp?$AA_?$AAl?$AA?$AA@ 00485ff0     LIBCMTD:woutputp.obj
 0002:0001800c       ??_C@_1O@HJNPHHHB@?$AAf?$AAp?$AAu?$AAt?$AAw?$AAc?$AA?$AA@ 0048600c     LIBCMTD:fputwc.obj
 0002:00018020       ??_C@_1GA@BJIGKGEA@?$AAf?$AA?3?$AA?2?$AAd?$AAd?$AA?2?$AAv?$AAc?$AAt?$AAo?$AAo?$AAl?$AAs?$AA?2?$AAc?$AAr?$AAt?$AA_?$AAb?$AAl?$AAd?$AA?2?$AAs?$AAe?$AAl?$AAf?$AA_?$AAx?$AA8?$AA6?$AA?2?$AAc@ 00486020     LIBCMTD:fputwc.obj
 0002:00018080       ??_C@_06GDENEHCP@CONIN$?$AA@ 00486080     LIBCMTD:initcon.obj
 0002:00018088       ??_C@_07GPDNMNG@CONOUT$?$AA@ 00486088     LIBCMTD:initcon.obj
 0002:00018090       ??_C@_0M@EKFFODEC@MSPDB80?4DLL?$AA@ 00486090     LIBCMTD:_pdblkup_.obj
 0002:0001809c       ??_C@_01KDCPPGHE@r?$AA@    0048609c     LIBCMTD:_pdblkup_.obj
 0002:000180a0       ??_C@_0BB@KCIACLNC@PDBOpenValidate5?$AA@ 004860a0     LIBCMTD:_pdblkup_.obj
 0002:000180b4       ??_C@_0BF@BMIHBHCA@EnvironmentDirectory?$AA@ 004860b4     LIBCMTD:_pdblkup_.obj
 0002:000180cc       ??_C@_0CN@JNNIHDGH@SOFTWARE?2Microsoft?2VisualStudio?2@ 004860cc     LIBCMTD:_pdblkup_.obj
 0002:000180fc       ??_C@_0M@HLOHPNFA@RegCloseKey?$AA@ 004860fc     LIBCMTD:_pdblkup_.obj
 0002:00018108       ??_C@_0BB@HHEIPGME@RegQueryValueExA?$AA@ 00486108     LIBCMTD:_pdblkup_.obj
 0002:0001811c       ??_C@_0O@DCOGKJGG@RegOpenKeyExA?$AA@ 0048611c     LIBCMTD:_pdblkup_.obj
 0002:0001812c       ??_C@_0BP@OGBCLIBO@Stack?5around?5_alloca?5corrupted?$AA@ 0048612c     LIBCMTD:_userapi_.obj
 0002:0001814c       ??_C@_0CK@CNLNOEPB@Local?5variable?5used?5before?5initi@ 0048614c     LIBCMTD:_userapi_.obj
 0002:00018178       ??_C@_0BI@CIGMDCBH@Stack?5memory?5corruption?$AA@ 00486178     LIBCMTD:_userapi_.obj
 0002:00018190       ??_C@_0CK@FEGOIOPB@Cast?5to?5smaller?5type?5causing?5los@ 00486190     LIBCMTD:_userapi_.obj
 0002:000181bc       ??_C@_0BJ@HEGAHDFO@Stack?5pointer?5corruption?$AA@ 004861bc     LIBCMTD:_userapi_.obj
 0002:000181f0       ??_C@_1FA@HILOOCMA@?$AA?$CI?$AA_?$AAt?$AAc?$AAs?$AAn?$AAl?$AAe?$AAn?$AA?$CI?$AAo?$AAp?$AAt?$AAi?$AAo?$AAn?$AA?0?$AA?5?$AA_?$AAM?$AAA?$AAX?$AA_?$AAE?$AAN?$AAV?$AA?$CJ?$AA?5?$AA?$DM?$AA?5?$AA_?$AAM@ 004861f0     LIBCMTD:getenv.obj
 0002:00018240       ??_C@_1O@GMKGKCJO@?$AAg?$AAe?$AAt?$AAe?$AAn?$AAv?$AA?$AA@ 00486240     LIBCMTD:getenv.obj
 0002:00018250       ??_C@_1GA@IPPICGKB@?$AAf?$AA?3?$AA?2?$AAd?$AAd?$AA?2?$AAv?$AAc?$AAt?$AAo?$AAo?$AAl?$AAs?$AA?2?$AAc?$AAr?$AAt?$AA_?$AAb?$AAl?$AAd?$AA?2?$AAs?$AAe?$AAl?$AAf?$AA_?$AAx?$AA8?$AA6?$AA?2?$AAc@ 00486250     LIBCMTD:getenv.obj
 0002:000182b0       ??_C@_1CC@FKAOHHLO@?$AA?$CI?$AAo?$AAp?$AAt?$AAi?$AAo?$AAn?$AA?5?$AA?$CB?$AA?$DN?$AA?5?$AAN?$AAU?$AAL?$AAL?$AA?$CJ?$AA?$AA@ 004862b0     LIBCMTD:getenv.obj
 0002:000182d8       ??_C@_1GI@JBIFPFJH@?$AA_?$AAt?$AAc?$AAs?$AAn?$AAl?$AAe?$AAn?$AA?$CI?$AA?$CK?$AAs?$AAe?$AAa?$AAr?$AAc?$AAh?$AA?5?$AA?$CL?$AA?5?$AAl?$AAe?$AAn?$AAg?$AAt?$AAh?$AA?5?$AA?$CL?$AA?5?$AA1?$AA?0?$AA?5?$AA_@ 004862d8     LIBCMTD:getenv.obj
 0002:00018340       ??_C@_1EI@HHOBPCFK@?$AAs?$AAt?$AAr?$AAc?$AAp?$AAy?$AA_?$AAs?$AA?$CI?$AAb?$AAu?$AAf?$AAf?$AAe?$AAr?$AA?0?$AA?5?$AAs?$AAi?$AAz?$AAe?$AAI?$AAn?$AAT?$AAC?$AAh?$AAa?$AAr?$AAs?$AA?0?$AA?5?$AAs@ 00486340     LIBCMTD:getenv.obj
 0002:00018388       ??_C@_1JM@NLPGJJPH@?$AA?$CI?$AAb?$AAu?$AAf?$AAf?$AAe?$AAr?$AA?5?$AA?$CB?$AA?$DN?$AA?5?$AAN?$AAU?$AAL?$AAL?$AA?5?$AA?$CG?$AA?$CG?$AA?5?$AAs?$AAi?$AAz?$AAe?$AAI?$AAn?$AAT?$AAC?$AAh?$AAa?$AAr?$AAs?$AA?5@ 00486388     LIBCMTD:getenv.obj
 0002:00018424       ??_C@_1CC@BAJKDIIF@?$AA_?$AAg?$AAe?$AAt?$AAe?$AAn?$AAv?$AA_?$AAs?$AA_?$AAh?$AAe?$AAl?$AAp?$AAe?$AAr?$AA?$AA@ 00486424     LIBCMTD:getenv.obj
 0002:00018448       ??_C@_1CK@PIKDAOCL@?$AAp?$AAR?$AAe?$AAt?$AAu?$AAr?$AAn?$AAV?$AAa?$AAl?$AAu?$AAe?$AA?5?$AA?$CB?$AA?$DN?$AA?5?$AAN?$AAU?$AAL?$AAL?$AA?$AA@ 00486448     LIBCMTD:getenv.obj
 0002:00018474       ??_C@_1DM@GNKNEGJO@?$AAs?$AAt?$AAr?$AAc?$AAp?$AAy?$AA_?$AAs?$AA?$CI?$AA?$CK?$AAp?$AAB?$AAu?$AAf?$AAf?$AAe?$AAr?$AA?0?$AA?5?$AAs?$AAi?$AAz?$AAe?$AA?0?$AA?5?$AAs?$AAt?$AAr?$AA?$CJ?$AA?$AA@ 00486474     LIBCMTD:getenv.obj
 0002:000184b0       ??_C@_1CA@GDBKELOE@?$AAv?$AAa?$AAr?$AAn?$AAa?$AAm?$AAe?$AA?5?$AA?$CB?$AA?$DN?$AA?5?$AAN?$AAU?$AAL?$AAL?$AA?$AA@ 004864b0     LIBCMTD:getenv.obj
 0002:000184d0       ??_C@_1CC@KPLOPIEM@?$AA_?$AAd?$AAu?$AAp?$AAe?$AAn?$AAv?$AA_?$AAs?$AA_?$AAh?$AAe?$AAl?$AAp?$AAe?$AAr?$AA?$AA@ 004864d0     LIBCMTD:getenv.obj
 0002:000184f4       ??_C@_1CA@FHNFMDOJ@?$AAp?$AAB?$AAu?$AAf?$AAf?$AAe?$AAr?$AA?5?$AA?$CB?$AA?$DN?$AA?5?$AAN?$AAU?$AAL?$AAL?$AA?$AA@ 004864f4     LIBCMTD:getenv.obj
 0002:00018514       ??_C@_1BA@PCFLFGNC@?$AAw?$AAc?$AAs?$AAt?$AAo?$AAx?$AAl?$AA?$AA@ 00486514     LIBCMTD:wcstol.obj
 0002:00018528       ??_C@_1GA@CADFOND@?$AAf?$AA?3?$AA?2?$AAd?$AAd?$AA?2?$AAv?$AAc?$AAt?$AAo?$AAo?$AAl?$AAs?$AA?2?$AAc?$AAr?$AAt?$AA_?$AAb?$AAl?$AAd?$AA?2?$AAs?$AAe?$AAl?$AAf?$AA_?$AAx?$AA8?$AA6?$AA?2?$AAc@ 00486528     LIBCMTD:wcstol.obj
 0002:00018588       ??_C@_1BK@CMPKHPEC@?$AAn?$AA?5?$AA?$DM?$AA?$DN?$AA?5?$AAI?$AAN?$AAT?$AA_?$AAM?$AAA?$AAX?$AA?$AA@ 00486588     LIBCMTD:mbsnbico.obj
 0002:000185a4       ??_C@_1BM@FKNNDAHH@?$AA_?$AAm?$AAb?$AAs?$AAn?$AAb?$AAi?$AAc?$AAo?$AAl?$AAl?$AA_?$AAl?$AA?$AA@ 004865a4     LIBCMTD:mbsnbico.obj
 0002:000185c0       ??_C@_1GE@NJHAJPKI@?$AAf?$AA?3?$AA?2?$AAd?$AAd?$AA?2?$AAv?$AAc?$AAt?$AAo?$AAo?$AAl?$AAs?$AA?2?$AAc?$AAr?$AAt?$AA_?$AAb?$AAl?$AAd?$AA?2?$AAs?$AAe?$AAl?$AAf?$AA_?$AAx?$AA8?$AA6?$AA?2?$AAc@ 004865c0     LIBCMTD:mbsnbico.obj
 0002:00018624       ??_C@_0DC@CAFDLBC@f?3?2dd?2vctools?2crt_bld?2self_x86?2c@ 00486624     LIBCMTD:wtombenv.obj
 0002:00018658       ??_C@_1FO@IFEMNBMO@?$AAf?$AA?3?$AA?2?$AAd?$AAd?$AA?2?$AAv?$AAc?$AAt?$AAo?$AAo?$AAl?$AAs?$AA?2?$AAc?$AAr?$AAt?$AA_?$AAb?$AAl?$AAd?$AA?2?$AAs?$AAe?$AAl?$AAf?$AA_?$AAx?$AA8?$AA6?$AA?2?$AAc@ 00486658     LIBCMTD:a_cmp.obj
 0002:000186b8       ??_C@_1HK@ELDMAMK@?$AAc?$AAc?$AAh?$AAC?$AAo?$AAu?$AAn?$AAt?$AA1?$AA?$DN?$AA?$DN?$AA0?$AA?5?$AA?$CG?$AA?$CG?$AA?5?$AAc?$AAc?$AAh?$AAC?$AAo?$AAu?$AAn?$AAt?$AA2?$AA?$DN?$AA?$DN?$AA1?$AA?5?$AA?$HM?$AA?$HM?$AA?5@ 004866b8     LIBCMTD:a_cmp.obj
 0002:00018734       ??_C@_1CC@CNADELFK@?$AA_?$AAs?$AAt?$AAr?$AAi?$AAn?$AAg?$AA2?$AA?5?$AA?$CB?$AA?$DN?$AA?5?$AAN?$AAU?$AAL?$AAL?$AA?$AA@ 00486734     LIBCMTD:strnicol.obj
 0002:00018758       ??_C@_1BK@IOJEBPLP@?$AA_?$AAs?$AAt?$AAr?$AAn?$AAi?$AAc?$AAo?$AAl?$AAl?$AA_?$AAl?$AA?$AA@ 00486758     LIBCMTD:strnicol.obj
 0002:00018778       ??_C@_1GE@BDOBNJJ@?$AAf?$AA?3?$AA?2?$AAd?$AAd?$AA?2?$AAv?$AAc?$AAt?$AAo?$AAo?$AAl?$AAs?$AA?2?$AAc?$AAr?$AAt?$AA_?$AAb?$AAl?$AAd?$AA?2?$AAs?$AAe?$AAl?$AAf?$AA_?$AAx?$AA8?$AA6?$AA?2?$AAc@ 00486778     LIBCMTD:strnicol.obj
 0002:000187dc       ??_C@_1CC@ICKKAGJA@?$AA_?$AAs?$AAt?$AAr?$AAi?$AAn?$AAg?$AA1?$AA?5?$AA?$CB?$AA?$DN?$AA?5?$AAN?$AAU?$AAL?$AAL?$AA?$AA@ 004867dc     LIBCMTD:strnicol.obj
 0002:00018800       ??_C@_1FG@OKIAKKPK@?$AAs?$AAt?$AAr?$AAc?$AAp?$AAy?$AA_?$AAs?$AA?$CI?$AAn?$AAa?$AAm?$AAe?$AA?0?$AA?5?$AAs?$AAt?$AAr?$AAl?$AAe?$AAn?$AA?$CI?$AAo?$AAp?$AAt?$AAi?$AAo?$AAn?$AA?$CJ?$AA?5?$AA?$CL?$AA?5@ 00486800     LIBCMTD:setenv.obj
 0002:00018858       ??_C@_1EI@GHDNAPMG@?$AA?$CI?$AA?$CC?$AAC?$AAR?$AAT?$AA?5?$AAL?$AAo?$AAg?$AAi?$AAc?$AA?5?$AAe?$AAr?$AAr?$AAo?$AAr?$AA?5?$AAd?$AAu?$AAr?$AAi?$AAn?$AAg?$AA?5?$AAs?$AAe?$AAt?$AAe?$AAn?$AAv?$AA?$CC@ 00486858     LIBCMTD:setenv.obj
 0002:000188a0       ??_C@_0DA@NHJGCDK@f?3?2dd?2vctools?2crt_bld?2self_x86?2c@ 004868a0     LIBCMTD:setenv.obj
 0002:000188d0       ??_C@_1FC@EEJIEIDF@?$AA_?$AAt?$AAc?$AAs?$AAn?$AAl?$AAe?$AAn?$AA?$CI?$AAe?$AAq?$AAu?$AAa?$AAl?$AA?5?$AA?$CL?$AA?5?$AA1?$AA?0?$AA?5?$AA_?$AAM?$AAA?$AAX?$AA_?$AAE?$AAN?$AAV?$AA?$CJ?$AA?5?$AA?$DM?$AA?5@ 004868d0     LIBCMTD:setenv.obj
 0002:00018924       ??_C@_1DE@EEHFNNGH@?$AAe?$AAq?$AAu?$AAa?$AAl?$AA?5?$AA?9?$AA?5?$AAo?$AAp?$AAt?$AAi?$AAo?$AAn?$AA?5?$AA?$DM?$AA?5?$AA_?$AAM?$AAA?$AAX?$AA_?$AAE?$AAN?$AAV?$AA?$AA@ 00486924     LIBCMTD:setenv.obj
 0002:00018958       ??_C@_1BI@CDAFOAAL@?$AA_?$AA_?$AAc?$AAr?$AAt?$AAs?$AAe?$AAt?$AAe?$AAn?$AAv?$AA?$AA@ 00486958     LIBCMTD:setenv.obj
 0002:00018970       ??_C@_1GA@KKPDKNLP@?$AAf?$AA?3?$AA?2?$AAd?$AAd?$AA?2?$AAv?$AAc?$AAt?$AAo?$AAo?$AAl?$AAs?$AA?2?$AAc?$AAr?$AAt?$AA_?$AAb?$AAl?$AAd?$AA?2?$AAs?$AAe?$AAl?$AAf?$AA_?$AAx?$AA8?$AA6?$AA?2?$AAc@ 00486970     LIBCMTD:setenv.obj
 0002:000189d0       ??_C@_1CA@LMBEKBDN@?$AAp?$AAo?$AAp?$AAt?$AAi?$AAo?$AAn?$AA?5?$AA?$CB?$AA?$DN?$AA?5?$AAN?$AAU?$AAL?$AAL?$AA?$AA@ 004869d0     LIBCMTD:setenv.obj
 0002:000189f0       ??_C@_1FK@DNFLNPD@?$AAs?$AAt?$AAr?$AAc?$AAp?$AAy?$AA_?$AAs?$AA?$CI?$AA?$CK?$AAn?$AAe?$AAw?$AAe?$AAn?$AAv?$AAp?$AAt?$AAr?$AA?0?$AA?5?$AAe?$AAn?$AAv?$AAp?$AAt?$AAr?$AAS?$AAi?$AAz?$AAe?$AA?0@ 004869f0     LIBCMTD:setenv.obj
 0002:00018a4c       ??_C@_1BK@ECKIJLPM@?$AAc?$AAo?$AAp?$AAy?$AA_?$AAe?$AAn?$AAv?$AAi?$AAr?$AAo?$AAn?$AA?$AA@ 00486a4c     LIBCMTD:setenv.obj
 0002:00018a68       ??_C@_1BE@JKKFLIKJ@?$AA_?$AAm?$AAb?$AAs?$AAc?$AAh?$AAr?$AA_?$AAl?$AA?$AA@ 00486a68     LIBCMTD:mbschr.obj
 0002:00018a80       ??_C@_1GA@GDCAGKMG@?$AAf?$AA?3?$AA?2?$AAd?$AAd?$AA?2?$AAv?$AAc?$AAt?$AAo?$AAo?$AAl?$AAs?$AA?2?$AAc?$AAr?$AAt?$AA_?$AAb?$AAl?$AAd?$AA?2?$AAs?$AAe?$AAl?$AAf?$AA_?$AAx?$AA8?$AA6?$AA?2?$AAc@ 00486a80     LIBCMTD:mbschr.obj
 0002:00018ae0       ??_C@_1BO@JIBAMMGI@?$AAs?$AAt?$AAr?$AAi?$AAn?$AAg?$AA?5?$AA?$CB?$AA?$DN?$AA?5?$AAN?$AAU?$AAL?$AAL?$AA?$AA@ 00486ae0     LIBCMTD:mbschr.obj
 0002:00018e40       ??_C@_1DO@MOGEFOMO@?$AAs?$AAt?$AAr?$AAc?$AAp?$AAy?$AA_?$AAs?$AA?$CI?$AAm?$AAe?$AAm?$AAo?$AAr?$AAy?$AA?0?$AA?5?$AAs?$AAi?$AAz?$AAe?$AA?0?$AA?5?$AAs?$AAt?$AAr?$AAi?$AAn?$AAg?$AA?$CJ?$AA?$AA@ 00486e40     LIBCMTD:strdup.obj
 0002:00018e80       ??_C@_1BI@CBNECNIC@?$AA_?$AAs?$AAt?$AAr?$AAd?$AAu?$AAp?$AA_?$AAd?$AAb?$AAg?$AA?$AA@ 00486e80     LIBCMTD:strdup.obj
 0002:00018e98       ??_C@_1GA@JIPKHGPB@?$AAf?$AA?3?$AA?2?$AAd?$AAd?$AA?2?$AAv?$AAc?$AAt?$AAo?$AAo?$AAl?$AAs?$AA?2?$AAc?$AAr?$AAt?$AA_?$AAb?$AAl?$AAd?$AA?2?$AAs?$AAe?$AAl?$AAf?$AA_?$AAx?$AA8?$AA6?$AA?2?$AAc@ 00486e98     LIBCMTD:strdup.obj
 0002:00018ef8       ??_C@_1FO@BLEHMCNM@?$AAf?$AA?3?$AA?2?$AAd?$AAd?$AA?2?$AAv?$AAc?$AAt?$AAo?$AAo?$AAl?$AAs?$AA?2?$AAc?$AAr?$AAt?$AA_?$AAb?$AAl?$AAd?$AA?2?$AAs?$AAe?$AAl?$AAf?$AA_?$AAx?$AA8?$AA6?$AA?2?$AAc@ 00486ef8     LIBCMTD:putch.obj
 0002:00018f58       ??_C@_1DG@NCPKEAM@?$AAi?$AAs?$AAl?$AAe?$AAa?$AAd?$AAb?$AAy?$AAt?$AAe?$AA?$CI?$AAc?$AAh?$AA_?$AAb?$AAu?$AAf?$AA?$FL?$AA0?$AA?$FN?$AA?$CJ?$AA?5?$AA?$CB?$AA?$DN?$AA?5?$AA0?$AA?$AA@ 00486f58     LIBCMTD:putch.obj
 0002:00018f90       __load_config_used         00486f90     LIBCMTD:loadcfg.obj
 0002:00019044       ??_R4bad_alloc@std@@6B@    00487044     advscan.obj
 0002:00019058       ??_R3bad_alloc@std@@8      00487058     advscan.obj
 0002:00019068       ??_R2bad_alloc@std@@8      00487068     advscan.obj
 0002:00019074       ??_R1A@?0A@EA@bad_alloc@std@@8 00487074     advscan.obj
 0002:00019090       ??_R1A@?0A@EA@exception@std@@8 00487090     advscan.obj
 0002:000190ac       ??_R3exception@std@@8      004870ac     advscan.obj
 0002:000190bc       ??_R2exception@std@@8      004870bc     advscan.obj
 0002:000190c4       ??_R4length_error@std@@6B@ 004870c4     libcpmtd:string.obj
 0002:000190d8       ??_R3length_error@std@@8   004870d8     libcpmtd:string.obj
 0002:000190e8       ??_R2length_error@std@@8   004870e8     libcpmtd:string.obj
 0002:000190f8       ??_R1A@?0A@EA@length_error@std@@8 004870f8     libcpmtd:string.obj
 0002:00019114       ??_R1A@?0A@EA@logic_error@std@@8 00487114     libcpmtd:string.obj
 0002:00019130       ??_R3logic_error@std@@8    00487130     libcpmtd:string.obj
 0002:00019140       ??_R2logic_error@std@@8    00487140     libcpmtd:string.obj
 0002:0001914c       ??_R4logic_error@std@@6B@  0048714c     libcpmtd:string.obj
 0002:00019160       ??_R4out_of_range@std@@6B@ 00487160     libcpmtd:string.obj
 0002:00019174       ??_R3out_of_range@std@@8   00487174     libcpmtd:string.obj
 0002:00019184       ??_R2out_of_range@std@@8   00487184     libcpmtd:string.obj
 0002:00019194       ??_R1A@?0A@EA@out_of_range@std@@8 00487194     libcpmtd:string.obj
 0002:000191b0       ??_R4invalid_argument@std@@6B@ 004871b0     libcpmtd:string.obj
 0002:000191c4       ??_R3invalid_argument@std@@8 004871c4     libcpmtd:string.obj
 0002:000191d4       ??_R2invalid_argument@std@@8 004871d4     libcpmtd:string.obj
 0002:000191e4       ??_R1A@?0A@EA@invalid_argument@std@@8 004871e4     libcpmtd:string.obj
 0002:00019200       ??_R4type_info@@6B@        00487200     LIBCMTD:typinfo.obj
 0002:00019214       ??_R3type_info@@8          00487214     LIBCMTD:typinfo.obj
 0002:00019224       ??_R2type_info@@8          00487224     LIBCMTD:typinfo.obj
 0002:0001922c       ??_R1A@?0A@EA@type_info@@8 0048722c     LIBCMTD:typinfo.obj
 0002:00019248       ??_R4exception@std@@6B@    00487248     LIBCMTD:stdexcpt.obj
 0002:0001925c       ??_R4bad_cast@std@@6B@     0048725c     LIBCMTD:stdexcpt.obj
 0002:00019270       ??_R3bad_cast@std@@8       00487270     LIBCMTD:stdexcpt.obj
 0002:00019280       ??_R2bad_cast@std@@8       00487280     LIBCMTD:stdexcpt.obj
 0002:0001928c       ??_R1A@?0A@EA@bad_cast@std@@8 0048728c     LIBCMTD:stdexcpt.obj
 0002:000192a8       ??_R4bad_typeid@std@@6B@   004872a8     LIBCMTD:stdexcpt.obj
 0002:000192bc       ??_R3bad_typeid@std@@8     004872bc     LIBCMTD:stdexcpt.obj
 0002:000192cc       ??_R2bad_typeid@std@@8     004872cc     LIBCMTD:stdexcpt.obj
 0002:000192d8       ??_R1A@?0A@EA@bad_typeid@std@@8 004872d8     LIBCMTD:stdexcpt.obj
 0002:000192f4       ??_R4__non_rtti_object@std@@6B@ 004872f4     LIBCMTD:stdexcpt.obj
 0002:00019308       ??_R3__non_rtti_object@std@@8 00487308     LIBCMTD:stdexcpt.obj
 0002:00019318       ??_R2__non_rtti_object@std@@8 00487318     LIBCMTD:stdexcpt.obj
 0002:00019328       ??_R1A@?0A@EA@__non_rtti_object@std@@8 00487328     LIBCMTD:stdexcpt.obj
 0002:00019344       ??_R4bad_exception@std@@6B@ 00487344     LIBCMTD:frame.obj
 0002:00019358       ??_R3bad_exception@std@@8  00487358     LIBCMTD:frame.obj
 0002:00019368       ??_R2bad_exception@std@@8  00487368     LIBCMTD:frame.obj
 0002:00019374       ??_R1A@?0A@EA@bad_exception@std@@8 00487374     LIBCMTD:frame.obj
 0002:00019390       ___safe_se_handler_table   00487390     <linker-defined>
 0002:00019414       ___rtc_iaa                 00487414     LIBCMTD:_initsect_.obj
 0002:00019418       ___rtc_izz                 00487418     LIBCMTD:_initsect_.obj
 0002:0001941c       ___rtc_taa                 0048741c     LIBCMTD:_initsect_.obj
 0002:00019420       ___rtc_tzz                 00487420     LIBCMTD:_initsect_.obj
 0002:00019428       __TI2?AVbad_alloc@std@@    00487428     advscan.obj
 0002:00019438       __CTA2?AVbad_alloc@std@@   00487438     advscan.obj
 0002:00019444       __CT??_R0?AVbad_alloc@std@@@8??0bad_alloc@std@@QAE@ABV01@@Z12 00487444     advscan.obj
 0002:00019460       __CT??_R0?AVexception@std@@@8??0exception@std@@QAE@ABV01@@Z12 00487460     advscan.obj
 0002:0001997c       __TI3?AVlength_error@std@@ 0048797c     libcpmtd:string.obj
 0002:000199b8       __CTA3?AVlength_error@std@@ 004879b8     libcpmtd:string.obj
 0002:000199c8       __CT??_R0?AVlength_error@std@@@8??0length_error@std@@QAE@ABV01@@Z44 004879c8     libcpmtd:string.obj
 0002:000199e4       __CT??_R0?AVlogic_error@std@@@8??0logic_error@std@@QAE@ABV01@@Z44 004879e4     libcpmtd:string.obj
 0002:00019a58       __TI3?AVout_of_range@std@@ 00487a58     libcpmtd:string.obj
 0002:00019a94       __CTA3?AVout_of_range@std@@ 00487a94     libcpmtd:string.obj
 0002:00019aa4       __CT??_R0?AVout_of_range@std@@@8??0out_of_range@std@@QAE@ABV01@@Z44 00487aa4     libcpmtd:string.obj
 0002:00019ac0       __TI3?AVinvalid_argument@std@@ 00487ac0     libcpmtd:string.obj
 0002:00019afc       __CTA3?AVinvalid_argument@std@@ 00487afc     libcpmtd:string.obj
 0002:00019b0c       __CT??_R0?AVinvalid_argument@std@@@8??0invalid_argument@std@@QAE@ABV01@@Z44 00487b0c     libcpmtd:string.obj
 0002:0001a2cc       __TI2?AVbad_exception@std@@ 004882cc     LIBCMTD:frame.obj
 0002:0001a2dc       __CTA2?AVbad_exception@std@@ 004882dc     LIBCMTD:frame.obj
 0002:0001a2e8       __CT??_R0?AVbad_exception@std@@@8??0bad_exception@std@@QAE@ABV01@@Z12 004882e8     LIBCMTD:frame.obj
 0002:0001aad4       __IMPORT_DESCRIPTOR_KERNEL32 00488ad4     kernel32:KERNEL32.dll
 0002:0001aae8       __IMPORT_DESCRIPTOR_WININET 00488ae8     wininet:WININET.dll
 0002:0001aafc       __NULL_IMPORT_DESCRIPTOR   00488afc     kernel32:KERNEL32.dll
 0003:00000004       ??_R0?AVbad_alloc@std@@@8  0048a004     advscan.obj
 0003:00000020       ??_R0?AVexception@std@@@8  0048a020     advscan.obj
 0003:00000044       ?autostart@@3PAUAUTOSTART@@A 0048a044     autostart.obj
 0003:000000a4       ?rpcfp_inqifids@@3PADA     0048a0a4     fphost.obj
 0003:000000c0       ?rpcfp_bindstr@@3PADA      0048a0c0     fphost.obj
 0003:0000010c       ?w2kuuid_sig@@3PADA        0048a10c     fphost.obj
 0003:00000120       ?wxpuuid_sig@@3PADA        0048a120     fphost.obj
 0003:00000150       ?keys@@3PAUKEYS@@A         0048a150     keylogger.obj
 0003:000008c4       ?dport@@3HA                0048a8c4     lsass.obj
 0003:000008c8       ?reverseshell@@3PAEA       0048a8c8     lsass.obj
 0003:00000a08       ?bindshell@@3PAEA          0048aa08     lsass.obj
 0003:00000ba0       ?req1@@3PADA               0048aba0     lsass.obj
 0003:00000c30       ?req2@@3PADA               0048ac30     lsass.obj
 0003:00000ce0       ?req3@@3PADA               0048ace0     lsass.obj
 0003:00000dc0       ?req4@@3PADA               0048adc0     lsass.obj
 0003:00000e28       ?req5@@3PADA               0048ae28     lsass.obj
 0003:00000e98       ?req6@@3PADA               0048ae98     lsass.obj
 0003:00000f40       ?req7@@3PADA               0048af40     lsass.obj
 0003:00000fc0       ?shit1@@3PADA              0048afc0     lsass.obj
 0003:00001058       ?req8@@3PADA               0048b058     lsass.obj
 0003:000010c8       ?req9@@3PADA               0048b0c8     lsass.obj
 0003:00001140       ?shit3@@3PADA              0048b140     lsass.obj
 0003:000011c8       ?ttarget@@3PAUtargets@@A   0048b1c8     lsass.obj
 0003:000012c8       ?netcommand@@3PAUNetCommand@@A 0048b2c8     net.obj
 0003:00001334       ?port@@3HA                 0048b334     rBot.obj
 0003:00001338       ?port2@@3HA                0048b338     rBot.obj
 0003:0000133c       ?socks4port@@3HA           0048b33c     rBot.obj
 0003:00001340       ?tftpport@@3HA             0048b340     rBot.obj
 0003:00001344       ?httpport@@3HA             0048b344     rBot.obj
 0003:00001348       ?rloginport@@3HA           0048b348     rBot.obj
 0003:0000134c       ?topiccmd@@3HA             0048b34c     rBot.obj
 0003:00001350       ?AutoStart@@3HA            0048b350     rBot.obj
 0003:00001354       ?prefix@@3DA               0048b354     rBot.obj
 0003:00001358       ?maxrand@@3HA              0048b358     rBot.obj
 0003:0000135c       ?nicktype@@3HA             0048b35c     rBot.obj
 0003:00001360       ?nickprefix@@3HA           0048b360     rBot.obj
 0003:00001364       ?botid@@3PADA              0048b364     rBot.obj
 0003:0000136c       ?version@@3PADA            0048b36c     rBot.obj
 0003:0000138c       ?password@@3PADA           0048b38c     rBot.obj
 0003:00001394       ?server@@3PADA             0048b394     rBot.obj
 0003:000013a0       ?channel@@3PADA            0048b3a0     rBot.obj
 0003:000013a8       ?chanpass@@3PADA           0048b3a8     rBot.obj
 0003:000013b0       ?filename@@3PADA           0048b3b0     rBot.obj
 0003:000013bc       ?keylogfile@@3PADA         0048b3bc     rBot.obj
 0003:000013c8       ?valuename@@3PADA          0048b3c8     rBot.obj
 0003:000013e4       ?nickconst@@3PADA          0048b3e4     rBot.obj
 0003:000013e8       ?szLocalPayloadFile@@3PADA 0048b3e8     rBot.obj
 0003:000013f8       ?modeonconn@@3PADA         0048b3f8     rBot.obj
 0003:00001400       ?exploitchan@@3PADA        0048b400     rBot.obj
 0003:00001404       ?keylogchan@@3PADA         0048b404     rBot.obj
 0003:00001408       ?psniffchan@@3PADA         0048b408     rBot.obj
 0003:0000140c       ?command_prefix@@3PADA     0048b40c     rBot.obj
 0003:00001410       ?authost@@3PAPADA          0048b410     rBot.obj
 0003:00001414       ?versionlist@@3PAPADA      0048b414     rBot.obj
 0003:00001424       ?regkey1@@3PADA            0048b424     rBot.obj
 0003:00001454       ?regkey2@@3PADA            0048b454     rBot.obj
 0003:0000148c       ?regkey3@@3PADA            0048b48c     rBot.obj
 0003:000014a4       ?regkey4@@3PADA            0048b4a4     rBot.obj
 0003:000014d0       ?usernames@@3PAPADA        0048b4d0     rBot.obj
 0003:00001520       ?passwords@@3PAPADA        0048b520     rBot.obj
 0003:00001750       ?anum@@3HA                 0048b750     rBot.obj
 0003:00001768       ?rnick@@3PAURNICK@@A       0048b768     rndnick.obj
 0003:000017d4       ?ShareList@@3PAUNetShares@@A 0048b7d4     secure.obj
 0003:000017fc       ?xor65535decoder@@3PADA    0048b7fc     shellcode.obj
 0003:00001814       ?xor255decoder@@3PADA      0048b814     shellcode.obj
 0003:00001830       ?tftp_Shellcode@@3PADA     0048b830     shellcode.obj
 0003:00001924       ??_R0?AVlength_error@std@@@8 0048b924     libcpmtd:string.obj
 0003:00001944       ??_R0?AVlogic_error@std@@@8 0048b944     libcpmtd:string.obj
 0003:00001964       ??_R0?AVout_of_range@std@@@8 0048b964     libcpmtd:string.obj
 0003:00001984       ??_R0?AVinvalid_argument@std@@@8 0048b984     libcpmtd:string.obj
 0003:000019b0       ___security_cookie         0048b9b0     LIBCMTD:gs_cookie.obj
 0003:000019b4       ___security_cookie_complement 0048b9b4     LIBCMTD:gs_cookie.obj
 0003:000019c4       ??_R0?AVtype_info@@@8      0048b9c4     LIBCMTD:typinfo.obj
 0003:000019e0       ??_R0?AVbad_cast@std@@@8   0048b9e0     LIBCMTD:stdexcpt.obj
 0003:000019fc       ??_R0?AVbad_typeid@std@@@8 0048b9fc     LIBCMTD:stdexcpt.obj
 0003:00001a1c       ??_R0?AV__non_rtti_object@std@@@8 0048ba1c     LIBCMTD:stdexcpt.obj
 0003:00001a40       __iob                      0048ba40     LIBCMTD:_file.obj
 0003:00001cc0       __half                     0048bcc0     LIBCMTD:_pow_.obj
 0003:00001ccc       __fltused                  0048bccc     LIBCMTD:_fpinit_.obj
 0003:00001cd0       __ldused                   0048bcd0     LIBCMTD:_fpinit_.obj
 0003:00001cf0       __aexit_rtn                0048bcf0     LIBCMTD:crt0dat.obj
 0003:00001cf4       ___app_type                0048bcf4     LIBCMTD:wincrt0.obj
 0003:00001cf8       __crtDbgFlag               0048bcf8     LIBCMTD:dbgheap.obj
 0003:00001cfc       ___crtDebugFillThreshold   0048bcfc     LIBCMTD:dbgheap.obj
 0003:00001d04       __crtBreakAlloc            0048bd04     LIBCMTD:dbgheap.obj
 0003:00001d0c       ___abort_behavior          0048bd0c     LIBCMTD:abort.obj
 0003:00001d10       ___nullstring              0048bd10     LIBCMTD:output.obj
 0003:00001d14       ___wnullstring             0048bd14     LIBCMTD:output.obj
 0003:00001e88       ___flsindex                0048be88     LIBCMTD:tidtable.obj
 0003:00001e8c       ___getvalueindex           0048be8c     LIBCMTD:tidtable.obj
 0003:00001fb8       ___badioinfo               0048bfb8     LIBCMTD:ioinit.obj
 0003:00002000       __infinity                 0048c000     LIBCMTD:_87tran_.obj
 0003:0000200a       __minfinity                0048c00a     LIBCMTD:_87tran_.obj
 0003:00002014       __logemax                  0048c014     LIBCMTD:_87tran_.obj
 0003:0000203a       __OP_EXPjmptab             0048c03a     LIBCMTD:_87tran_.obj
 0003:00002060       __indefinite               0048c060     LIBCMTD:_87disp_.obj
 0003:0000206a       __piby2                    0048c06a     LIBCMTD:_87disp_.obj
 0003:00002090       __cfltcvt_tab              0048c090     LIBCMTD:cmiscdat.obj
 0003:000021a8       __d_inf                    0048c1a8     LIBCMTD:_util_.obj
 0003:000021b0       __d_ind                    0048c1b0     LIBCMTD:_util_.obj
 0003:000021b8       __d_max                    0048c1b8     LIBCMTD:_util_.obj
 0003:000021c0       __d_min                    0048c1c0     LIBCMTD:_util_.obj
 0003:000021c8       __d_mzero                  0048c1c8     LIBCMTD:_util_.obj
 0003:000021f0       ___initialmbcinfo          0048c1f0     LIBCMTD:mbctype.obj
 0003:00002410       __mbctype                  0048c410     LIBCMTD:mbctype.obj
 0003:00002518       __mbcasemap                0048c518     LIBCMTD:mbctype.obj
 0003:00002618       ___ptmbcinfo               0048c618     LIBCMTD:mbctype.obj
 0003:00002714       ___globallocalestatus      0048c714     LIBCMTD:glstatus.obj
 0003:00002718       ___clocalestr              0048c718     LIBCMTD:nlsdata2.obj
 0003:00002720       ___initiallocinfo          0048c720     LIBCMTD:nlsdata2.obj
 0003:000027f8       ___ptlocinfo               0048c7f8     LIBCMTD:nlsdata2.obj
 0003:000027fc       ___lc_clike                0048c7fc     LIBCMTD:nlsdata2.obj
 0003:00002800       ___initiallocalestructinfo 0048c800     LIBCMTD:nlsdata2.obj
 0003:00002808       __lookuptrailbytes         0048c808     LIBCMTD:read.obj
 0003:0000290c       ??_R0?AVbad_exception@std@@@8 0048c90c     LIBCMTD:frame.obj
 0003:00002930       __pfnAllocHook             0048c930     LIBCMTD:dbghook.obj
 0003:00002934       __crtAssertBusy            0048c934     LIBCMTD:dbgrptt.obj
 0003:00002938       __CrtDbgMode               0048c938     LIBCMTD:dbgrptt.obj
 0003:00002944       __CrtDbgFile               0048c944     LIBCMTD:dbgrptt.obj
 0003:00002a08       __First_FPE_Indx           0048ca08     LIBCMTD:winxfltr.obj
 0003:00002a0c       __Num_FPE                  0048ca0c     LIBCMTD:winxfltr.obj
 0003:00002a10       __XcptActTabSize           0048ca10     LIBCMTD:winxfltr.obj
 0003:00002a14       __XcptActTabCount          0048ca14     LIBCMTD:winxfltr.obj
 0003:00002a18       __amblksiz                 0048ca18     LIBCMTD:heapinit.obj
 0003:00002b90       __matherr_flag             0048cb90     LIBCMTD:_matherr_.obj
 0003:00002b94       __pctype                   0048cb94     LIBCMTD:ctype.obj
 0003:00002b98       __pwctype                  0048cb98     LIBCMTD:ctype.obj
 0003:00002ba0       ___lc_time_c               0048cba0     LIBCMTD:strftime.obj
 0003:00002c58       ___lc_time_curr            0048cc58     LIBCMTD:strftime.obj
 0003:00002c5c       ___lconv_static_decimal    0048cc5c     LIBCMTD:lconv.obj
 0003:00002c60       ___lconv_c                 0048cc60     LIBCMTD:lconv.obj
 0003:00002c90       ___lconv                   0048cc90     LIBCMTD:lconv.obj
 0003:00002c94       ___mb_cur_max              0048cc94     LIBCMTD:nlsdata1.obj
 0003:00002c98       ___decimal_point           0048cc98     LIBCMTD:nlsdata1.obj
 0003:00002c9c       ___decimal_point_length    0048cc9c     LIBCMTD:nlsdata1.obj
 0003:00002ca0       __NLG_Destination          0048cca0     LIBCMTD:exsup.obj
 0003:00002cb4       ?_RTC_ErrorLevels@@3PAHA   0048ccb4     LIBCMTD:_error_.obj
 0003:00002cf8       __timezone                 0048ccf8     LIBCMTD:timeset.obj
 0003:00002cfc       __daylight                 0048ccfc     LIBCMTD:timeset.obj
 0003:00002d00       __dstbias                  0048cd00     LIBCMTD:timeset.obj
 0003:00002d88       __tzname                   0048cd88     LIBCMTD:timeset.obj
 0003:00002da8       __coninpfh                 0048cda8     LIBCMTD:initcon.obj
 0003:00002dac       __confh                    0048cdac     LIBCMTD:initcon.obj
 0003:00002db8       __pow10pos                 0048cdb8     LIBCMTD:_constpow_.obj
 0003:00002f18       __pow10neg                 0048cf18     LIBCMTD:_constpow_.obj
 0003:00003074       __lpdays                   0048d074     LIBCMTD:days.obj
 0003:000030a8       __days                     0048d0a8     LIBCMTD:days.obj
 0003:00003100       ?advinfo@@3PAUADVINFO@@A   0048d100     advscan.obj
 0003:00003900       ?CriticalSection@@3U_RTL_CRITICAL_SECTION@@A 0048d900     advscan.obj
 0003:00003918       ?exploit@@3PAUEXPLOIT@@A   0048d918     advscan.obj
 0003:00003fb0       ?loga@@3PAY0IA@DA          0048dfb0     aliaslog.obj
 0003:00007fb0       ?Window@@3PAUHWND__@@A     00491fb0     capture.obj
 0003:0000840c       ?frecv@@3P6GHIPADHH@ZA     0049240c     loaddlls.obj
 0003:00008410       ?fgetsockname@@3P6GHIPAUsockaddr@@PAH@ZA 00492410     loaddlls.obj
 0003:00008414       ?fNetRemoteTOD@@3P6GKPB_WPAPAE@ZA 00492414     loaddlls.obj
 0003:00008418       ?fInternetCrackUrl@@3P6GHPBDKKPAUURL_COMPONENTSA@@@ZA 00492418     loaddlls.obj
 0003:0000841c       ?fWSASocket@@3P6GIHHHPAU_WSAPROTOCOL_INFOA@@IK@ZA 0049241c     loaddlls.obj
 0003:00008420       ?fInternetGetConnectedState@@3P6GHPAKK@ZA 00492420     loaddlls.obj
 0003:00008424       ?fGetDriveType@@3P6GIPBD@ZA 00492424     loaddlls.obj
 0003:00008428       ?fCloseClipboard@@3P6GHXZA 00492428     loaddlls.obj
 0003:0000842c       ?fIsWindow@@3P6GHPAUHWND__@@@ZA 0049242c     loaddlls.obj
 0003:00008430       ?frecvfrom@@3P6GHIPADHHPAUsockaddr@@PAH@ZA 00492430     loaddlls.obj
 0003:00008434       ?fSelectObject@@3P6GPAXPAUHDC__@@PAX@ZA 00492434     loaddlls.obj
 0003:00008438       ?fWNetCancelConnection2W@@3P6GKPB_WKH@ZA 00492438     loaddlls.obj
 0003:0000843c       ?fioctlsocket@@3P6GHIJPAK@ZA 0049243c     loaddlls.obj
 0003:00008440       ?fInternetOpen@@3P6GPAXPBDK00K@ZA 00492440     loaddlls.obj
 0003:00008444       ?fOpenClipboard@@3P6GHPAUHWND__@@@ZA 00492444     loaddlls.obj
 0003:00008448       ?fGetAsyncKeyState@@3P6GFH@ZA 00492448     loaddlls.obj
 0003:0000844c       ?fProcess32Next@@3P6GHPAXPAUtagPROCESSENTRY32@@@ZA 0049244c     loaddlls.obj
 0003:00008450       ?fNetScheduleJobAdd@@3P6GKPB_WPAEPAK@ZA 00492450     loaddlls.obj
 0003:00008454       ?fconnect@@3P6GHIPBUsockaddr@@H@ZA 00492454     loaddlls.obj
 0003:00008458       ?fGetWindowText@@3P6GHPAUHWND__@@PADH@ZA 00492458     loaddlls.obj
 0003:0000845c       ?fSQLSetEnvAttr@@3P6GFPAXJ0J@ZA 0049245c     loaddlls.obj
 0003:00008460       ?fRegQueryValueEx@@3P6GJPAUHKEY__@@PBDPAK2PAE2@ZA 00492460     loaddlls.obj
 0003:00008464       ?faccept@@3P6GIIPAUsockaddr@@PAH@ZA 00492464     loaddlls.obj
 0003:00008468       ?fGetForegroundWindow@@3P6GPAUHWND__@@XZA 00492468     loaddlls.obj
 0003:0000846c       ?fSQLDisconnect@@3P6GFPAX@ZA 0049246c     loaddlls.obj
 0003:00008470       ?fNetUserAdd@@3P6GKPB_WKPAEPAK@ZA 00492470     loaddlls.obj
 0003:00008474       ?fsendto@@3P6GHIPBDHHPBUsockaddr@@H@ZA 00492474     loaddlls.obj
 0003:00008478       ?fSHChangeNotify@@3P6GXJIPBX0@ZA 00492478     loaddlls.obj
 0003:0000847c       ?fSetErrorMode@@3P6GII@ZA  0049247c     loaddlls.obj
 0003:00008480       ?fWNetCancelConnection2@@3P6GKPBDKH@ZA 00492480     loaddlls.obj
 0003:00008484       ?fNetUserEnum@@3P6GKPB_WKKPAPAEKPAK22@ZA 00492484     loaddlls.obj
 0003:00008488       ?fRegSetValueEx@@3P6GJPAUHKEY__@@PBDKKPBEK@ZA 00492488     loaddlls.obj
 0003:0000848c       ?fNetShareAdd@@3P6GKPA_WKPAEPAK@ZA 0049248c     loaddlls.obj
 0003:00008490       ?fNetUserGetInfo@@3P6GKPB_W0KPAPAE@ZA 00492490     loaddlls.obj
 0003:00008494       ?fCreateToolhelp32Snapshot@@3P6GPAXKK@ZA 00492494     loaddlls.obj
 0003:00008498       ?fDeleteService@@3P6GHPAUSC_HANDLE__@@@ZA 00492498     loaddlls.obj
 0003:0000849c       ?fDestroyWindow@@3P6GHPAUHWND__@@@ZA 0049249c     loaddlls.obj
 0003:000084a0       ?fGetDiskFreeSpaceEx@@3P6GHPBDPAT_ULARGE_INTEGER@@11@ZA 004924a0     loaddlls.obj
 0003:000084a4       ?fsocket@@3P6GIHHH@ZA      004924a4     loaddlls.obj
 0003:000084a8       ?fNetShareDel@@3P6GKPA_W0K@ZA 004924a8     loaddlls.obj
 0003:000084ac       ?fInternetOpenUrl@@3P6GPAXPAXPBD1KKPAK@ZA 004924ac     loaddlls.obj
 0003:000084b0       ?fGetIpNetTable@@3P6GKPAU_MIB_IPNETTABLE@@PAKH@ZA 004924b0     loaddlls.obj
 0003:000084b4       ?fWSAStartup@@3P6GHGPAUWSAData@@@ZA 004924b4     loaddlls.obj
 0003:000084b8       ?fNetMessageBufferSend@@3P6GKPB_W00PAEK@ZA 004924b8     loaddlls.obj
 0003:000084bc       ?fModule32First@@3P6GHPAXPAUtagMODULEENTRY32@@@ZA 004924bc     loaddlls.obj
 0003:000084c0       ?fsetsockopt@@3P6GHIHHPBDH@ZA 004924c0     loaddlls.obj
 0003:000084c4       ?fSearchPath@@3P6GKPBD00KPADPAPAD@ZA 004924c4     loaddlls.obj
 0003:000084c8       ?fSQLAllocHandle@@3P6GFFPAXPAPAX@ZA 004924c8     loaddlls.obj
 0003:000084cc       ?fHttpOpenRequest@@3P6GPAXPAXPBD111PAPBDKPAK@ZA 004924cc     loaddlls.obj
 0003:000084d0       ?fDeleteDC@@3P6GHPAUHDC__@@@ZA 004924d0     loaddlls.obj
 0003:000084d4       ?fCloseServiceHandle@@3P6GHPAUSC_HANDLE__@@@ZA 004924d4     loaddlls.obj
 0003:000084d8       ?fcapCreateCaptureWindow@@3P6GPAUHWND__@@PBDKHHHHPAU1@H@ZA 004924d8     loaddlls.obj
 0003:000084dc       ?fInternetConnect@@3P6GPAXPAXPBDG11KKPAK@ZA 004924dc     loaddlls.obj
 0003:000084e0       ?fNetApiBufferFree@@3P6GKPAX@ZA 004924e0     loaddlls.obj
 0003:000084e4       ?fRegDeleteValue@@3P6GJPAUHKEY__@@PBD@ZA 004924e4     loaddlls.obj
 0003:000084e8       ?fgetpeername@@3P6GHIPAUsockaddr@@PAH@ZA 004924e8     loaddlls.obj
 0003:000084ec       ?fQueryPerformanceCounter@@3P6GHPAT_LARGE_INTEGER@@@ZA 004924ec     loaddlls.obj
 0003:000084f0       ?fRegCreateKeyEx@@3P6GJPAUHKEY__@@PBDKPADKKPAU_SECURITY_ATTRIBUTES@@PAPAU1@PAK@ZA 004924f0     loaddlls.obj
 0003:000084f4       ?fProcess32First@@3P6GHPAXPAUtagPROCESSENTRY32@@@ZA 004924f4     loaddlls.obj
 0003:000084f8       ?fIcmpCreateFile@@3P6GPAXXZA 004924f8     loaddlls.obj
 0003:000084fc       ?__fWSAFDIsSet@@3P6GHIPAUfd_set@@@ZA 004924fc     loaddlls.obj
 0003:00008500       ?fFindWindow@@3P6GPAUHWND__@@PBD0@ZA 00492500     loaddlls.obj
 0003:00008504       ?fInternetCloseHandle@@3P6GHPAX@ZA 00492504     loaddlls.obj
 0003:00008508       ?fgethostbyname@@3P6GPAUhostent@@PBD@ZA 00492508     loaddlls.obj
 0003:0000850c       ?fDnsFlushResolverCacheEntry_A@@3P6GJPBD@ZA 0049250c     loaddlls.obj
 0003:00008510       ?fAdjustTokenPrivileges@@3P6GHPAXHPAU_TOKEN_PRIVILEGES@@K1PAK@ZA 00492510     loaddlls.obj
 0003:00008514       ?fDeleteIpNetEntry@@3P6GKPAU_MIB_IPNETROW_LH@@@ZA 00492514     loaddlls.obj
 0003:00008518       ?fGetDeviceCaps@@3P6GHPAUHDC__@@H@ZA 00492518     loaddlls.obj
 0003:0000851c       ?finet_addr@@3P6GKPBD@ZA   0049251c     loaddlls.obj
 0003:00008520       ?fCreateCompatibleDC@@3P6GPAUHDC__@@PAU1@@ZA 00492520     loaddlls.obj
 0003:00008524       ?fDeleteObject@@3P6GHPAX@ZA 00492524     loaddlls.obj
 0003:00008528       ?finet_ntoa@@3P6GPADUin_addr@@@ZA 00492528     loaddlls.obj
 0003:0000852c       ?fIcmpCloseHandle@@3P6GHPAX@ZA 0049252c     loaddlls.obj
 0003:00008530       ?fBitBlt@@3P6GHPAUHDC__@@HHHH0HHK@ZA 00492530     loaddlls.obj
 0003:00008534       ?fWSAAsyncSelect@@3P6GHIPAUHWND__@@IJ@ZA 00492534     loaddlls.obj
 0003:00008538       ?fcapGetDriverDescription@@3P6GHGPADH0H@ZA 00492538     loaddlls.obj
 0003:0000853c       ?fsend@@3P6GHIPBDHH@ZA     0049253c     loaddlls.obj
 0003:00008540       ?fExitWindowsEx@@3P6GHIK@ZA 00492540     loaddlls.obj
 0003:00008544       ?fGetLogicalDriveStrings@@3P6GKKPAD@ZA 00492544     loaddlls.obj
 0003:00008548       ?fWNetAddConnection2@@3P6GKPAU_NETRESOURCEA@@PBD1K@ZA 00492548     loaddlls.obj
 0003:0000854c       ?fselect@@3P6GHHPAUfd_set@@00PBUtimeval@@@ZA 0049254c     loaddlls.obj
 0003:00008550       ?fQueryPerformanceFrequency@@3P6GHPAT_LARGE_INTEGER@@@ZA 00492550     loaddlls.obj
 0003:00008554       ?fInternetReadFile@@3P6GHPAX0KPAK@ZA 00492554     loaddlls.obj
 0003:00008558       ?fSQLFreeHandle@@3P6GFFPAX@ZA 00492558     loaddlls.obj
 0003:0000855c       ?fGetDIBColorTable@@3P6GIPAUHDC__@@IIPAUtagRGBQUAD@@@ZA 0049255c     loaddlls.obj
 0003:00008560       ?fWSAGetLastError@@3P6GHXZA 00492560     loaddlls.obj
 0003:00008564       ?fOpenSCManager@@3P6GPAUSC_HANDLE__@@PBD0K@ZA 00492564     loaddlls.obj
 0003:00008568       ?fSendMessage@@3P6GJPAUHWND__@@IIJ@ZA 00492568     loaddlls.obj
 0003:0000856c       ?fStartService@@3P6GHPAUSC_HANDLE__@@KPAPBD@ZA 0049256c     loaddlls.obj
 0003:00008570       ?fNetUserDel@@3P6GKPB_W0@ZA 00492570     loaddlls.obj
 0003:00008574       ?fEnumServicesStatus@@3P6GHPAUSC_HANDLE__@@KKPAU_ENUM_SERVICE_STATUSA@@KPAK22@ZA 00492574     loaddlls.obj
 0003:00008578       ?fntohl@@3P6GKK@ZA         00492578     loaddlls.obj
 0003:0000857c       ?fWSAIoctl@@3P6GHIKPAXK0KPAKPAU_OVERLAPPED@@P6GXKK2K@Z@ZA 0049257c     loaddlls.obj
 0003:00008580       ?fbind@@3P6GHIPBUsockaddr@@H@ZA 00492580     loaddlls.obj
 0003:00008584       ?fRegCloseKey@@3P6GJPAUHKEY__@@@ZA 00492584     loaddlls.obj
 0003:00008588       ?fControlService@@3P6GHPAUSC_HANDLE__@@KPAU_SERVICE_STATUS@@@ZA 00492588     loaddlls.obj
 0003:0000858c       ?fDnsFlushResolverCache@@3P6GHXZA 0049258c     loaddlls.obj
 0003:00008590       ?fIcmpSendEcho@@3P6GKPAXK0GPAUip_option_information@@0KK@ZA 00492590     loaddlls.obj
 0003:00008594       ?fSQLDriverConnect@@3P6GFPAXPAUHWND__@@PAEF2FPAFG@ZA 00492594     loaddlls.obj
 0003:00008598       ?fgethostbyaddr@@3P6GPAUhostent@@PBDHH@ZA 00492598     loaddlls.obj
 0003:0000859c       ?fntohs@@3P6GGG@ZA         0049259c     loaddlls.obj
 0003:000085a0       ?fIsValidSecurityDescriptor@@3P6GHPAX@ZA 004925a0     loaddlls.obj
 0003:000085a4       ?fRegisterServiceProcess@@3P6GKKK@ZA 004925a4     loaddlls.obj
 0003:000085a8       ?fNetShareEnum@@3P6GKPA_WKPAPAEKPAK22@ZA 004925a8     loaddlls.obj
 0003:000085ac       ?fSQLExecDirect@@3P6GFPAXPAEJ@ZA 004925ac     loaddlls.obj
 0003:000085b0       ?fShellExecute@@3P6GPAUHINSTANCE__@@PAUHWND__@@PBD111H@ZA 004925b0     loaddlls.obj
 0003:000085b4       ?fclosesocket@@3P6GHI@ZA   004925b4     loaddlls.obj
 0003:000085b8       ?fCreateDIBSection@@3P6GPAUHBITMAP__@@PAUHDC__@@PBUtagBITMAPINFO@@IPAPAXPAXK@ZA 004925b8     loaddlls.obj
 0003:000085bc       ?fgethostname@@3P6GHPADH@ZA 004925bc     loaddlls.obj
 0003:000085c0       ?fWSACleanup@@3P6GHXZA     004925c0     loaddlls.obj
 0003:000085c4       ?fLookupPrivilegeValue@@3P6GHPBD0PAU_LUID@@@ZA 004925c4     loaddlls.obj
 0003:000085c8       ?fGetKeyState@@3P6GFH@ZA   004925c8     loaddlls.obj
 0003:000085cc       ?flisten@@3P6GHIH@ZA       004925cc     loaddlls.obj
 0003:000085d0       ?fhtonl@@3P6GKK@ZA         004925d0     loaddlls.obj
 0003:000085d4       ?fRegOpenKeyEx@@3P6GJPAUHKEY__@@PBDKKPAPAU1@@ZA 004925d4     loaddlls.obj
 0003:000085d8       ?fGetClipboardData@@3P6GPAXI@ZA 004925d8     loaddlls.obj
 0003:000085dc       ?fWNetAddConnection2W@@3P6GKPAU_NETRESOURCEW@@PB_W1K@ZA 004925dc     loaddlls.obj
 0003:000085e0       ?fOpenProcessToken@@3P6GHPAXKPAPAX@ZA 004925e0     loaddlls.obj
 0003:000085e4       ?fOpenService@@3P6GPAUSC_HANDLE__@@PAU1@PBDK@ZA 004925e4     loaddlls.obj
 0003:000085e8       ?fCreateDC@@3P6GPAUHDC__@@PBD00PBU_devicemodeA@@@ZA 004925e8     loaddlls.obj
 0003:000085ec       ?ih@@3PAXA                 004925ec     loaddlls.obj
 0003:000085f0       ?fHttpSendRequest@@3P6GHPAXPBDK0K@ZA 004925f0     loaddlls.obj
 0003:000085f4       ?fInternetGetConnectedStateEx@@3P6GHPAKPADKK@ZA 004925f4     loaddlls.obj
 0003:000085f8       ?fhtons@@3P6GGG@ZA         004925f8     loaddlls.obj
 0003:000085fc       ?nokernel32@@3HA           004925fc     loaddlls.obj
 0003:00008600       ?nokernel32err@@3KA        00492600     loaddlls.obj
 0003:00008604       ?nouser32@@3HA             00492604     loaddlls.obj
 0003:00008608       ?nouser32err@@3KA          00492608     loaddlls.obj
 0003:0000860c       ?noadvapi32@@3HA           0049260c     loaddlls.obj
 0003:00008610       ?noadvapi32err@@3KA        00492610     loaddlls.obj
 0003:00008614       ?nogdi32@@3HA              00492614     loaddlls.obj
 0003:00008618       ?nogdi32err@@3KA           00492618     loaddlls.obj
 0003:0000861c       ?nows2_32@@3HA             0049261c     loaddlls.obj
 0003:00008620       ?nows2_32err@@3KA          00492620     loaddlls.obj
 0003:00008624       ?nowininet@@3HA            00492624     loaddlls.obj
 0003:00008628       ?nowinineterr@@3KA         00492628     loaddlls.obj
 0003:0000862c       ?noicmp@@3HA               0049262c     loaddlls.obj
 0003:00008630       ?noicmperr@@3KA            00492630     loaddlls.obj
 0003:00008634       ?nonetapi32@@3HA           00492634     loaddlls.obj
 0003:00008638       ?nonetapi32err@@3KA        00492638     loaddlls.obj
 0003:0000863c       ?nodnsapi@@3HA             0049263c     loaddlls.obj
 0003:00008640       ?nodnsapierr@@3KA          00492640     loaddlls.obj
 0003:00008644       ?noiphlpapi@@3HA           00492644     loaddlls.obj
 0003:00008648       ?noiphlpapierr@@3KA        00492648     loaddlls.obj
 0003:0000864c       ?nompr@@3HA                0049264c     loaddlls.obj
 0003:00008650       ?nomprerr@@3KA             00492650     loaddlls.obj
 0003:00008654       ?noshell32@@3HA            00492654     loaddlls.obj
 0003:00008658       ?noshell32err@@3KA         00492658     loaddlls.obj
 0003:0000865c       ?noodbc32@@3HA             0049265c     loaddlls.obj
 0003:00008660       ?noodbc32err@@3KA          00492660     loaddlls.obj
 0003:00008664       ?noavicap32@@3HA           00492664     loaddlls.obj
 0003:00008668       ?noavicap32err@@3KA        00492668     loaddlls.obj
 0003:00009148       ?threads@@3PAUTHREAD@@A    00493148     rBot.obj
 0003:0002c548       ?mainirc@@3UIRC@@A         004b6548     rBot.obj
 0003:0002c6ac       ?started@@3KA              004b66ac     rBot.obj
 0003:0002c6b0       ?aliases@@3PAUALIAS@@A     004b66b0     rBot.obj
 0003:0002d230       ?rndfilename@@3HA          004b7230     rBot.obj
 0003:0002d234       ?serverpass@@3PADA         004b7234     rBot.obj
 0003:0002d235       ?server2@@3PADA            004b7235     rBot.obj
 0003:0002d236       ?channel2@@3PADA           004b7236     rBot.obj
 0003:0002d237       ?chanpass2@@3PADA          004b7237     rBot.obj
 0003:0002d238       ?success@@3HA              004b7238     rBot.obj
 0003:0002d23c       ?current_version@@3HA      004b723c     rBot.obj
 0003:0002d240       ?hChildInWrDupe@@3PAXA     004b7240     remotecmd.obj
 0003:0002d244       ?pipesock@@3IA             004b7244     remotecmd.obj
 0003:0002d248       ?pipe_write@@3PAXA         004b7248     remotecmd.obj
 0003:0002d24c       ?pipe_read@@3PAXA          004b724c     remotecmd.obj
 0003:0002d250       ?pipe_chan@@3PADA          004b7250     remotecmd.obj
 0003:0002d284       ?pipe_Hproc@@3PAXA         004b7284     remotecmd.obj
 0003:0002d288       ?DebugFlag@@3HA            004b7288     rlogind.obj
 0003:0002d28c       ?InsecureFlag@@3HA         004b728c     rlogind.obj
 0003:0002d290       ?LogFlag@@3HA              004b7290     rlogind.obj
 0003:0002d498       ?xorhelp@@3DA              004b7498     shellcode.obj
 0003:0002d544       __cflush                   004b7544     LIBCMTD:_file.obj
 0003:0002d548       ___fastflag                004b7548     LIBCMTD:_fpinit_.obj
 0003:0002d54c       __adjust_fdiv              004b754c     LIBCMTD:_fpinit_.obj
 0003:0002d554       ___pInvalidArgHandler      004b7554     LIBCMTD:invarg.obj
 0003:0002d568       __umaskval                 004b7568     LIBCMTD:crt0dat.obj
 0003:0002d56c       ___argc                    004b756c     LIBCMTD:crt0dat.obj
 0003:0002d570       ___argv                    004b7570     LIBCMTD:crt0dat.obj
 0003:0002d574       ___wargv                   004b7574     LIBCMTD:crt0dat.obj
 0003:0002d578       __environ                  004b7578     LIBCMTD:crt0dat.obj
 0003:0002d57c       ___initenv                 004b757c     LIBCMTD:crt0dat.obj
 0003:0002d580       __wenviron                 004b7580     LIBCMTD:crt0dat.obj
 0003:0002d584       ___winitenv                004b7584     LIBCMTD:crt0dat.obj
 0003:0002d588       __pgmptr                   004b7588     LIBCMTD:crt0dat.obj
 0003:0002d58c       __wpgmptr                  004b758c     LIBCMTD:crt0dat.obj
 0003:0002d590       __exitflag                 004b7590     LIBCMTD:crt0dat.obj
 0003:0002d594       __C_Termination_Done       004b7594     LIBCMTD:crt0dat.obj
 0003:0002d598       __C_Exit_Done              004b7598     LIBCMTD:crt0dat.obj
 0003:0002d5a0       __aenvptr                  004b75a0     LIBCMTD:wincrt0.obj
 0003:0002d5a4       __wenvptr                  004b75a4     LIBCMTD:wincrt0.obj
 0003:0002d5a8       ___error_mode              004b75a8     LIBCMTD:wincrt0.obj
 0003:0002d5c0       ?_pfnDumpClient@@3P6AXPAXI@ZA 004b75c0     LIBCMTD:dbgheap.obj
 0003:0002d5c8       ___crtDebugCheckCount      004b75c8     LIBCMTD:dbgheap.obj
 0003:0002d8f4       _gpFlsAlloc                004b78f4     LIBCMTD:tidtable.obj
 0003:0002d8f8       _gpFlsGetValue             004b78f8     LIBCMTD:tidtable.obj
 0003:0002d8fc       _gpFlsSetValue             004b78fc     LIBCMTD:tidtable.obj
 0003:0002d900       _gpFlsFree                 004b7900     LIBCMTD:tidtable.obj
 0003:0002da78       __commode                  004b7a78     LIBCMTD:ncommode.obj
 0003:0002da80       __newmode                  004b7a80     LIBCMTD:_newmode.obj
 0003:0002da90       ___mbulinfo                004b7a90     LIBCMTD:mbctype.obj
 0003:0002da9c       ___mbcodepage              004b7a9c     LIBCMTD:mbctype.obj
 0003:0002daa0       ___ismbcodepage            004b7aa0     LIBCMTD:mbctype.obj
 0003:0002daa4       ___mblcid                  004b7aa4     LIBCMTD:mbctype.obj
 0003:0002daa8       ___locale_changed          004b7aa8     LIBCMTD:setlocal.obj
 0003:0002daac       ___lc_handle               004b7aac     LIBCMTD:nlsdata2.obj
 0003:0002dac4       ___lc_codepage             004b7ac4     LIBCMTD:nlsdata2.obj
 0003:0002dac8       ___lc_collate_cp           004b7ac8     LIBCMTD:nlsdata2.obj
 0003:0002dacc       ?__pInconsistency@@3P6AXXZA 004b7acc     LIBCMTD:hooks.obj
 0003:0002dad0       __stdbuf                   004b7ad0     LIBCMTD:_sftbuf.obj
 0003:0002db00       ?_pnhHeap@@3P6AHI@ZA       004b7b00     LIBCMTD:handler.obj
 0003:0002de28       ___pPurecall               004b7e28     LIBCMTD:inithelp.obj
 0003:0002df3c       __crtheap                  004b7f3c     LIBCMTD:heapinit.obj
 0003:0002df48       ___sbh_pHeaderDefer        004b7f48     LIBCMTD:sbheap.obj
 0003:0002df60       ?pArgList@UnDecorator@@0PAVReplicator@@A 004b7f60     LIBCMTD:undname.obj
 0003:0002df64       ?pZNameList@UnDecorator@@0PAVReplicator@@A 004b7f64     LIBCMTD:undname.obj
 0003:0002df68       ?pTemplateArgList@UnDecorator@@0PAVReplicator@@A 004b7f68     LIBCMTD:undname.obj
 0003:0002df6c       ?gName@UnDecorator@@0PBDB  004b7f6c     LIBCMTD:undname.obj
 0003:0002df70       ?name@UnDecorator@@0PBDB   004b7f70     LIBCMTD:undname.obj
 0003:0002df74       ?outputString@UnDecorator@@0PADA 004b7f74     LIBCMTD:undname.obj
 0003:0002df78       ?maxStringLength@UnDecorator@@0HA 004b7f78     LIBCMTD:undname.obj
 0003:0002df7c       ?disableFlags@UnDecorator@@0KA 004b7f7c     LIBCMTD:undname.obj
 0003:0002df80       ?m_pGetParameter@UnDecorator@@0P6APADJ@ZA 004b7f80     LIBCMTD:undname.obj
 0003:0002df84       ?fExplicitTemplateParams@UnDecorator@@0_NA 004b7f84     LIBCMTD:undname.obj
 0003:0002df85       ?fGetTemplateArgumentList@UnDecorator@@0_NA 004b7f85     LIBCMTD:undname.obj
 0003:0002dfd8       ?nodes@?1??make@DNameStatusNode@@SAPAV2@W4DNameStatus@@@Z@4PAV2@A 004b7fd8     LIBCMTD:undname.obj
 0003:0002e008       ??_B?1??make@DNameStatusNode@@SAPAV1@W4DNameStatus@@@Z@51 004b8008     LIBCMTD:undname.obj
 0003:0002e00c       __outputformat             004b800c     LIBCMTD:outputformat.obj
 0003:0002e014       ___lconv_static_null       004b8014     LIBCMTD:lconv.obj
 0003:0002e030       ?wsprintffp@@3P6AHPADPBDZZA 004b8030     LIBCMTD:_error_.obj
 0003:0002e104       __fmode                    004b8104     LIBCMTD:txtmode.obj
 0003:0002e10c       ___sbh_initialized         004b810c     <common>
 0003:0002e110       ___sbh_cntHeaderList       004b8110     <common>
 0003:0002e114       ___sbh_pHeaderList         004b8114     <common>
 0003:0002e118       ___sbh_threshold           004b8118     <common>
 0003:0002e11c       ___sbh_pHeaderScan         004b811c     <common>
 0003:0002e120       ___sbh_sizeHeaderList      004b8120     <common>
 0003:0002e124       ___sbh_indGroupDefer       004b8124     <common>
 0003:0002e128       ___active_heap             004b8128     <common>
 0003:0002e12c       __pfnReportHook            004b812c     <common>
 0003:0002e130       __pReportHookListW         004b8130     <common>
 0003:0002e134       __pReportHookList          004b8134     <common>
 0003:0002e138       __debugger_hook_dummy      004b8138     <common>
 0003:0002e13c       ___setlc_active            004b813c     <common>
 0003:0002e140       ___unguarded_readlc_active 004b8140     <common>
 0003:0002e144       __pmatherr                 004b8144     <common>
 0003:0002e148       ___use_sse2_mathfcns       004b8148     <common>
 0003:0002e14c       __nhandle                  004b814c     <common>
 0003:0002e160       ___pioinfo                 004b8160     <common>
 0003:0002e260       ___sse2_available          004b8260     <common>
 0003:0002e264       __acmdln                   004b8264     <common>
 0003:0002e268       ___env_initialized         004b8268     <common>
 0003:0002e26c       ___onexitend               004b826c     <common>
 0003:0002e270       ___onexitbegin             004b8270     <common>
 0003:0002e274       ___mbctype_initialized     004b8274     <common>
 0003:0002e278       ___dyn_tls_init_callback   004b8278     <common>
 0003:0002e27c       ___piob                    004b827c     <common>
 0003:0002e280       __bufin                    004b8280     <common>
 0003:0002f280       __nstream                  004b9280     <common>

 entry point at        0001:0001c2a0

 Static symbols

 0001:fffff000       __ehhandler$?_Copy@?$basic_string@DU?$char_traits@D@std@@V?$allocator@D@2@@std@@IAEXII@Z 00400000 f   rBot.obj
 0001:fffff000       __unwindfunclet$??0?$basic_string@DU?$char_traits@D@std@@V?$allocator@D@2@@std@@QAE@PBD@Z$0 00400000 f   libcpmtd:string.obj
 0001:fffff000       __unwindfunclet$??0?$basic_string@DU?$char_traits@D@std@@V?$allocator@D@2@@std@@QAE@ABV01@@Z$0 00400000 f   libcpmtd:string.obj
 0001:fffff000       __ehhandler$?_Copy@?$basic_string@DU?$char_traits@D@std@@V?$allocator@D@2@@std@@IAEXII@Z 00400000 f   libcpmtd:string.obj
 0001:fffff000       __unwindfunclet$??0?$basic_string@DU?$char_traits@D@std@@V?$allocator@D@2@@std@@QAE@ABV01@@Z$0 00400000 f   rBot.obj
 0001:fffff000       __unwindfunclet$??1?$basic_string@DU?$char_traits@D@std@@V?$allocator@D@2@@std@@QAE@XZ$0 00400000 f   libcpmtd:string.obj
 0001:fffff000       __unwindfunclet$??1?$basic_string@DU?$char_traits@D@std@@V?$allocator@D@2@@std@@QAE@XZ$0 00400000 f   rBot.obj
 0001:fffff000       __unwindfunclet$??0?$basic_string@DU?$char_traits@D@std@@V?$allocator@D@2@@std@@QAE@PBD@Z$0 00400000 f   rBot.obj
 0001:fffff008       __ehhandler$??0?$basic_string@DU?$char_traits@D@std@@V?$allocator@D@2@@std@@QAE@ABV01@@Z 00400008 f   rBot.obj
 0001:fffff008       __ehhandler$??0?$basic_string@DU?$char_traits@D@std@@V?$allocator@D@2@@std@@QAE@PBD@Z 00400008 f   libcpmtd:string.obj
 0001:fffff008       __ehhandler$??0?$basic_string@DU?$char_traits@D@std@@V?$allocator@D@2@@std@@QAE@ABV01@@Z 00400008 f   libcpmtd:string.obj
 0001:fffff008       __ehhandler$??0?$basic_string@DU?$char_traits@D@std@@V?$allocator@D@2@@std@@QAE@PBD@Z 00400008 f   rBot.obj
 0001:fffff008       __ehhandler$??1?$basic_string@DU?$char_traits@D@std@@V?$allocator@D@2@@std@@QAE@XZ 00400008 f   libcpmtd:string.obj
 0001:fffff008       __ehhandler$??1?$basic_string@DU?$char_traits@D@std@@V?$allocator@D@2@@std@@QAE@XZ 00400008 f   rBot.obj
 0001:fffff06d       __catch$?_Copy@?$basic_string@DU?$char_traits@D@std@@V?$allocator@D@2@@std@@IAEXII@Z$0 0040006d f   rBot.obj
 0001:fffff0bd       __catch$?_Copy@?$basic_string@DU?$char_traits@D@std@@V?$allocator@D@2@@std@@IAEXII@Z$0 004000bd f   libcpmtd:string.obj
 0001:fffff0e1       __catch$?_Copy@?$basic_string@DU?$char_traits@D@std@@V?$allocator@D@2@@std@@IAEXII@Z$1 004000e1 f   rBot.obj
 0001:fffff0e7       __catch$?_Copy@?$basic_string@DU?$char_traits@D@std@@V?$allocator@D@2@@std@@IAEXII@Z$1 004000e7 f   libcpmtd:string.obj
 0001:00001a72       ?cJSON_New_Item@@YAPAUcJSON@@XZ 00402a72 f   cJSON.obj
 0001:00001a93       ?skip@@YAPBDPBD@Z          00402a93 f   cJSON.obj
 0001:00001add       ?parse_value@@YAPBDPAUcJSON@@PBD@Z 00402add f   cJSON.obj
 0001:00001bab       ?parse_number@@YAPBDPAUcJSON@@PBD@Z 00402bab f   cJSON.obj
 0001:00001cc9       ?parse_string@@YAPBDPAUcJSON@@PBD@Z 00402cc9 f   cJSON.obj
 0001:00001e98       ?parse_hex4@@YAIPBD@Z      00402e98 f   cJSON.obj
 0001:00001f95       ?print_value@@YAPADPAUcJSON@@HH@Z 00402f95 f   cJSON.obj
 0001:0000200c       ?cJSON_strdup@@YAPADPBD@Z  0040300c f   cJSON.obj
 0001:0000203c       ?print_number@@YAPADPAUcJSON@@@Z 0040303c f   cJSON.obj
 0001:0000217d       ?print_string@@YAPADPAUcJSON@@@Z 0040317d f   cJSON.obj
 0001:0000218b       ?print_string_ptr@@YAPADPBD@Z 0040318b f   cJSON.obj
 0001:00002278       ?parse_array@@YAPBDPAUcJSON@@PBD@Z 00403278 f   cJSON.obj
 0001:0000230d       ?print_array@@YAPADPAUcJSON@@HH@Z 0040330d f   cJSON.obj
 0001:00002480       ?parse_object@@YAPBDPAUcJSON@@PBD@Z 00403480 f   cJSON.obj
 0001:0000257b       ?print_object@@YAPADPAUcJSON@@HH@Z 0040357b f   cJSON.obj
 0001:00002884       ?cJSON_strcasecmp@@YAHPBD0@Z 00403884 f   cJSON.obj
 0001:00002919       ?suffix_object@@YAXPAUcJSON@@0@Z 00403919 f   cJSON.obj
 0001:00002971       ?create_reference@@YAPAUcJSON@@PAU1@@Z 00403971 f   cJSON.obj
 0001:00004807       __catch$?DecodeMessage@@YAXPADAAV?$basic_string@DU?$char_traits@D@std@@V?$allocator@D@2@@std@@@Z$0 00405807 f   facebook.obj
 0001:00005150       __catch$?_Copy@?$basic_string@DU?$char_traits@D@std@@V?$allocator@D@2@@std@@IAEXII@Z$0 00406150 f i facebook.obj
 0001:000051c4       __catch$?_Copy@?$basic_string@DU?$char_traits@D@std@@V?$allocator@D@2@@std@@IAEXII@Z$1 004061c4 f i facebook.obj
 0001:0000925a       ?ServiceError@@YAPADK@Z    0040a25a f   net.obj
 0001:000096fc       ?AsWideString@@YAPADPBD@Z  0040a6fc f   net.obj
 0001:00009f38       ?NasError@@YAPADK@Z        0040af38 f   net.obj
 0001:0000b34e       __catch$?fb_receiveloop@@YAHXZ$0 0040c34e f   rBot.obj
 0001:0000f7bb       ?GetStr@@YAHIPADH@Z        004107bb f   rlogind.obj
 0001:0000f7ff       ?CheckLogin@@YAHPAD00K@Z   004107ff f   rlogind.obj
 0001:0000fb00       ?CtrlHandler@@YAHK@Z       00410b00 f   rlogind.obj
 0001:000108e3       ?CreateSession@@YAPAUSESSION_DATA@@H@Z 004118e3 f   session.obj
 0001:000109df       ?StartShell@@YAPAXPAX0H@Z  004119df f   session.obj
 0001:00010ab4       ?SessionReadShellThread@@YAXPAX@Z 00411ab4 f   session.obj
 0001:00010b86       ?SessionWriteShellThread@@YAXPAX@Z 00411b86 f   session.obj
 0001:00013880       _vscan_fn                  00414880 f   LIBCMTD:sscanf.obj
 0001:00017ca0       ?CatchGuardHandler@@YA?AW4_EXCEPTION_DISPOSITION@@PAUEHExceptionRecord@@PAUCatchGuardRN@@PAX2@Z 00418ca0 f   LIBCMTD:_trnsctrl_.obj
 0001:00017de0       ?TranslatorGuardHandler@@YA?AW4_EXCEPTION_DISPOSITION@@PAUEHExceptionRecord@@PAUTranslatorGuardRN@@PAX2@Z 00418de0 f   LIBCMTD:_trnsctrl_.obj
 0001:000193e0       _cmpBYTE                   0041a3e0 f   LIBCMTD:memcmp.obj
 0001:00019410       _cmpResult                 0041a410 f   LIBCMTD:memcmp.obj
 0001:00019430       _unaligned_memcmp          0041a430 f   LIBCMTD:memcmp.obj
 0001:00019b40       _cmpWORD                   0041ab40 f   LIBCMTD:memcmp.obj
 0001:00019bc0       _cmpDWORD                  0041abc0 f   LIBCMTD:memcmp.obj
 0001:0001acb0       _doexit                    0041bcb0 f   LIBCMTD:crt0dat.obj
 0001:0001afe0       __initterm                 0041bfe0 f   LIBCMTD:crt0dat.obj
 0001:0001b290       __splitpath_helper         0041c290 f   LIBCMTD:splitpat.obj
 0001:0001ba50       ?strtoxl@@YAKPAUlocaleinfo_struct@@PBDPAPBDHH@Z 0041ca50 f   LIBCMTD:strtol.obj
 0001:0001c2c0       ___tmainCRTStartup         0041d2c0 f   LIBCMTD:wincrt0.obj
 0001:0001c4a0       _fast_error_exit           0041d4a0 f   LIBCMTD:wincrt0.obj
 0001:0001c4d0       _check_managed_app         0041d4d0 f   LIBCMTD:wincrt0.obj
 0001:0001c5d0       __onexit_nolock            0041d5d0 f   LIBCMTD:onexit.obj
 0001:0001c850       __nh_malloc_dbg_impl       0041d850 f   LIBCMTD:dbgheap.obj
 0001:0001c8e0       __heap_alloc_dbg_impl      0041d8e0 f   LIBCMTD:dbgheap.obj
 0001:0001cef0       _realloc_help              0041def0 f   LIBCMTD:dbgheap.obj
 0001:0001e000       _CheckBytes                0041f000 f   LIBCMTD:dbgheap.obj
 0001:0001ee20       ?_CrtMemDumpAllObjectsSince_stat@@YAXPBU_CrtMemState@@PAUlocaleinfo_struct@@@Z 0041fe20 f   LIBCMTD:dbgheap.obj
 0001:0001f130       __printMemBlockData        00420130 f   LIBCMTD:dbgheap.obj
 0001:000203a0       _flsall                    004213a0 f   LIBCMTD:fflush.obj
 0001:00021ad0       _write_char                00422ad0 f   LIBCMTD:output.obj
 0001:00021b70       _write_multi_char          00422b70 f   LIBCMTD:output.obj
 0001:00021bb0       _write_string              00422bb0 f   LIBCMTD:output.obj
 0001:00022d70       _fastcopy_I                00423d70 f   LIBCMTD:p4_memcpy.obj
 0001:00022e80       _has_osfxsr_set            00423e80 f   LIBCMTD:cpu_disp.obj
 0001:00025060       ___check_float_string      00426060 f   LIBCMTD:input.obj
 0001:00025180       __hextodec                 00426180 f   LIBCMTD:input.obj
 0001:000251c0       __inc                      004261c0 f   LIBCMTD:input.obj
 0001:00025220       __un_inc                   00426220 f   LIBCMTD:input.obj
 0001:00025240       __whiteout                 00426240 f   LIBCMTD:input.obj
 0001:00026d90       ___check_float_string      00427d90 f   LIBCMTD:inputs.obj
 0001:00026e90       __hextodec                 00427e90 f   LIBCMTD:inputs.obj
 0001:00026ed0       __inc                      00427ed0 f   LIBCMTD:inputs.obj
 0001:00026f30       __un_inc                   00427f30 f   LIBCMTD:inputs.obj
 0001:00026f50       __whiteout                 00427f50 f   LIBCMTD:inputs.obj
 0001:00027030       _fastzero_I                00428030 f   LIBCMTD:p4_memset.obj
 0001:00027ed0       _ValidateLocalCookies      00428ed0 f   LIBCMTD:chandler4.obj
 0001:00027f80       ?strtoxq@@YA_KPAUlocaleinfo_struct@@PBDPAPBDHH@Z 00428f80 f   LIBCMTD:strtoq.obj
 0001:0002a880       __cftoe2_l                 0042b880 f   LIBCMTD:cvt.obj
 0001:0002b5f0       __cftof2_l                 0042c5f0 f   LIBCMTD:cvt.obj
 0001:0002bbd0       __shift                    0042cbd0 f   LIBCMTD:cvt.obj
 0001:0002d570       __get_fname                0042e570 f   LIBCMTD:_fpexcept_.obj
 0001:0002dc20       ?__crtLCMapStringA_stat@@YAHPAUlocaleinfo_struct@@KKPBDHPADHHH@Z 0042ec20 f   LIBCMTD:a_map.obj
 0001:0002e1c0       ?strncnt@@YAHPBDH@Z        0042f1c0 f   LIBCMTD:a_map.obj
 0001:0002ec70       ?getSystemCP@@YAHH@Z       0042fc70 f   LIBCMTD:mbctype.obj
 0001:0002f0d0       ?CPtoLCID@@YAHH@Z          004300d0 f   LIBCMTD:mbctype.obj
 0001:0002f150       ?setSBCS@@YAXPAUthreadmbcinfostruct@@@Z 00430150 f   LIBCMTD:mbctype.obj
 0001:0002f230       ?setSBUpLow@@YAXPAUthreadmbcinfostruct@@@Z 00430230 f   LIBCMTD:mbctype.obj
 0001:0002fc30       __updatetlocinfoEx_nolock  00430c30 f   LIBCMTD:setlocal.obj
 0001:000301a0       __copytlocinfo_nolock      004311a0 f   LIBCMTD:setlocal.obj
 0001:000305c0       _sync_legacy_variables_lk  004315c0 f   LIBCMTD:setlocal.obj
 0001:00030640       __setlocale_nolock         00431640 f   LIBCMTD:setlocal.obj
 0001:00030a30       __setlocale_set_cat        00431a30 f   LIBCMTD:setlocal.obj
 0001:00030f60       __setlocale_get_all        00431f60 f   LIBCMTD:setlocal.obj
 0001:0003380c       __unwind_handler4          0043480c f   LIBCMTD:exsup4.obj
 0001:00033a30       ?FindHandler@@YAXPAUEHExceptionRecord@@PAUEHRegistrationNode@@PAU_CONTEXT@@PAXPBU_s_FuncInfo@@EH1@Z 00434a30 f   LIBCMTD:frame.obj
 0001:00033f80       ?FindHandlerForForeignException@@YAXPAUEHExceptionRecord@@PAUEHRegistrationNode@@PAU_CONTEXT@@PAXPBU_s_FuncInfo@@HH1@Z 00434f80 f   LIBCMTD:frame.obj
 0001:000343b0       ?CatchIt@@YAXPAUEHExceptionRecord@@PAUEHRegistrationNode@@PAU_CONTEXT@@PAXPBU_s_FuncInfo@@PBU_s_HandlerType@@PBU_s_CatchableType@@PBU_s_TryBlockMapEntry@@H1E@Z 004353b0 f   LIBCMTD:frame.obj
 0001:00034470       ?CallCatchBlock@@YAPAXPAUEHExceptionRecord@@PAUEHRegistrationNode@@PAU_CONTEXT@@PBU_s_FuncInfo@@PAXHK@Z 00435470 f   LIBCMTD:frame.obj
 0001:00034700       ?ExFilterRethrow@@YAHPAU_EXCEPTION_POINTERS@@@Z 00435700 f   LIBCMTD:frame.obj
 0001:00035360       ?IsInExceptionSpec@@YAEPAUEHExceptionRecord@@PBU_s_ESTypeList@@@Z 00436360 f   LIBCMTD:frame.obj
 0001:00035420       ?CallUnexpected@@YAXPBU_s_ESTypeList@@@Z 00436420 f   LIBCMTD:frame.obj
 0001:0003546e       __catch$?CallUnexpected@@YAXPBU_s_ESTypeList@@@Z$0 0043646e f   LIBCMTD:frame.obj
 0001:000354b0       ?Is_bad_exception_allowed@@YAEPBU_s_ESTypeList@@@Z 004364b0 f   LIBCMTD:frame.obj
 0001:00037350       _ctrlevent_capture@4       00438350 f   LIBCMTD:winsig.obj
 0001:00037750       _siglookup                 00438750 f   LIBCMTD:winsig.obj
 0001:00039090       _xcptlookup                0043a090 f   LIBCMTD:winxfltr.obj
 0001:000398e0       ?x_ismbbtype_l@@YAHPAUlocaleinfo_struct@@IHH@Z 0043a8e0 f   LIBCMTD:ismbbyte.obj
 0001:0003a5c0       _parse_cmdline             0043b5c0 f   LIBCMTD:stdargv.obj
 0001:0003b860       __is_LFH_enabled           0043c860 f   LIBCMTD:expand.obj
 0001:000438a0       _write_char                004448a0 f   LIBCMTD:outputp.obj
 0001:00043940       _write_multi_char          00444940 f   LIBCMTD:outputp.obj
 0001:00043980       _write_string              00444980 f   LIBCMTD:outputp.obj
 0001:00044e50       _write_char                00445e50 f   LIBCMTD:outputs.obj
 0001:00044ef0       _write_multi_char          00445ef0 f   LIBCMTD:outputs.obj
 0001:00044f30       _write_string              00445f30 f   LIBCMTD:outputs.obj
 0001:0004f450       ?und_strlen@@YAIPBD@Z      00450450 f   LIBCMTD:undname.obj
 0001:0004f490       ?und_memcpy@@YAXPADPBDI@Z  00450490 f   LIBCMTD:undname.obj
 0001:0004f4d0       ?und_strncmp@@YAIPBD0I@Z   004504d0 f   LIBCMTD:undname.obj
 0001:00051a00       ?__crtGetStringTypeA_stat@@YAHPAUlocaleinfo_struct@@KPBDHPAGHHH@Z 00452a00 f   LIBCMTD:a_str.obj
 0001:00051d80       __get_lc_time              00452d80 f   LIBCMTD:inittime.obj
 0001:000529a0       _fix_grouping              004539a0 f   LIBCMTD:initnum.obj
 0001:00052f10       _fix_grouping              00453f10 f   LIBCMTD:initmon.obj
 0001:00054600       ?_expandtime@@YAHPAUlocaleinfo_struct@@DPBUtm@@PAPADPAIPAU__lc_time_data@@I@Z 00455600 f   LIBCMTD:strftime.obj
 0001:000555d0       ?_store_str@@YAXPADPAPADPAI@Z 004565d0 f   LIBCMTD:strftime.obj
 0001:00055620       ?_store_num@@YAXHHPAPADPAII@Z 00456620 f   LIBCMTD:strftime.obj
 0001:000556d0       ?_store_number@@YAXHPAPADPAI@Z 004566d0 f   LIBCMTD:strftime.obj
 0001:00055780       ?_store_winword@@YAHPAUlocaleinfo_struct@@HPBUtm@@PAPADPAIPAU__lc_time_data@@@Z 00456780 f   LIBCMTD:strftime.obj
 0001:00056b00       _TranslateName             00457b00 f   LIBCMTD:getqloc.obj
 0001:00056b90       _GetLcidFromLangCountry    00457b90 f   LIBCMTD:getqloc.obj
 0001:00056c50       _LangCountryEnumProc@4     00457c50 f   LIBCMTD:getqloc.obj
 0001:00057090       _GetLcidFromLanguage       00458090 f   LIBCMTD:getqloc.obj
 0001:00057110       _LanguageEnumProc@4        00458110 f   LIBCMTD:getqloc.obj
 0001:000572b0       _GetLcidFromCountry        004582b0 f   LIBCMTD:getqloc.obj
 0001:00057300       _CountryEnumProc@4         00458300 f   LIBCMTD:getqloc.obj
 0001:00057400       _GetLcidFromDefault        00458400 f   LIBCMTD:getqloc.obj
 0001:00057440       _ProcessCodePage           00458440 f   LIBCMTD:getqloc.obj
 0001:00057510       _TestDefaultCountry        00458510 f   LIBCMTD:getqloc.obj
 0001:00057560       _TestDefaultLanguage       00458560 f   LIBCMTD:getqloc.obj
 0001:00057600       _LcidFromHexString         00458600 f   LIBCMTD:getqloc.obj
 0001:00057680       _GetPrimaryLen             00458680 f   LIBCMTD:getqloc.obj
 0001:00057ac0       __tsopen_nolock            00458ac0 f   LIBCMTD:open.obj
 0001:00059360       __unwind_handler           0045a360 f   LIBCMTD:exsup.obj
 0001:00059570       _xtoa_s@20                 0045a570 f   LIBCMTD:xtoas.obj
 0001:00059990       @x64toa_s@24               0045a990 f   LIBCMTD:xtoas.obj
 0001:0005a1f0       ?wcsncnt@@YAIPB_WI@Z       0045b1f0 f   LIBCMTD:wcstombs.obj
 0001:0005b430       _xtow_s@20                 0045c430 f   LIBCMTD:xtows.obj
 0001:0005b860       @x64tow_s@24               0045c860 f   LIBCMTD:xtows.obj
 0001:0005ccf0       _write_char                0045dcf0 f   LIBCMTD:woutput.obj
 0001:0005cd50       _write_multi_char          0045dd50 f   LIBCMTD:woutput.obj
 0001:0005cd90       _write_string              0045dd90 f   LIBCMTD:woutput.obj
 0001:0005d4c0       ?__crtGetLocaleInfoW_stat@@YAHPAUlocaleinfo_struct@@KKPA_WHH@Z 0045e4c0 f   LIBCMTD:w_loc.obj
 0001:0005d530       ?__crtGetLocaleInfoA_stat@@YAHPAUlocaleinfo_struct@@KKPADHH@Z 0045e530 f   LIBCMTD:a_loc.obj
 0001:0005e050       ?DebuggerProbe@@YAHK@Z     0045f050 f   LIBCMTD:_error_.obj
 0001:0005e140       ?failwithmessage@@YAXPAXHHPBD@Z 0045f140 f   LIBCMTD:_error_.obj
 0001:0005e350       ?DebuggerRuntime@@YAHKHPAXPB_W@Z 0045f350 f   LIBCMTD:_error_.obj
 0001:0005e630       ?_getMemBlockDataString@@YAXPAD00I@Z 0045f630 f   LIBCMTD:_error_.obj
 0001:0005ee40       __abstract_cw              0045fe40 f   LIBCMTD:_ieee87_.obj
 0001:0005ef90       __hw_cw                    0045ff90 f   LIBCMTD:_ieee87_.obj
 0001:0005f0f0       __abstract_sw              004600f0 f   LIBCMTD:_ieee87_.obj
 0001:0005f180       ___statusfp_sse2           00460180 f   LIBCMTD:_ieee87_.obj
 0001:0005f1a0       ___clearfp_sse2            004601a0 f   LIBCMTD:_ieee87_.obj
 0001:0005f1d0       ___control87_sse2          004601d0 f   LIBCMTD:_ieee87_.obj
 0001:0005f250       ___abstract_cw_sse2        00460250 f   LIBCMTD:_ieee87_.obj
 0001:0005f3a0       ___hw_cw_sse2              004603a0 f   LIBCMTD:_ieee87_.obj
 0001:0005f4f0       ___abstract_sw_sse2        004604f0 f   LIBCMTD:_ieee87_.obj
 0001:0005f580       ___fpreset_sse2            00460580 f   LIBCMTD:_ieee87_.obj
 0001:00061490       ?__crtGetStringTypeW_stat@@YAHPAUlocaleinfo_struct@@KPB_WHPAGHH@Z 00462490 f   LIBCMTD:w_str.obj
 0001:00061970       __tzset_nolock             00462970 f   LIBCMTD:tzset.obj
 0001:00061f80       __isindst_nolock           00462f80 f   LIBCMTD:tzset.obj
 0001:000622e0       _cvtdate                   004632e0 f   LIBCMTD:tzset.obj
 0001:00064a50       _write_char                00465a50 f   LIBCMTD:woutputs.obj
 0001:00064ab0       _write_multi_char          00465ab0 f   LIBCMTD:woutputs.obj
 0001:00064af0       _write_string              00465af0 f   LIBCMTD:woutputs.obj
 0001:00068420       _write_char                00469420 f   LIBCMTD:woutputp.obj
 0001:00068480       _write_multi_char          00469480 f   LIBCMTD:woutputp.obj
 0001:000684c0       _write_string              004694c0 f   LIBCMTD:woutputp.obj
 0001:00068cd0       ?GetPdbDll@@YAPAUHINSTANCE__@@XZ 00469cd0 f   LIBCMTD:_pdblkup_.obj
 0001:000693d0       __getenv_s_helper          0046a3d0 f   LIBCMTD:getenv.obj
 0001:00069640       __dupenv_s_helper          0046a640 f   LIBCMTD:getenv.obj
 0001:000698b0       ?wcstoxl@@YAKPAUlocaleinfo_struct@@PB_WPAPB_WHH@Z 0046a8b0 f   LIBCMTD:wcstol.obj
 0001:0006a790       ?__crtCompareStringA_stat@@YAHPAUlocaleinfo_struct@@KKPBDH1HH@Z 0046b790 f   LIBCMTD:a_cmp.obj
 0001:0006aca0       ?strncnt@@YAHPBDH@Z        0046bca0 f   LIBCMTD:a_cmp.obj
 0001:0006b460       _findenv                   0046c460 f   LIBCMTD:setenv.obj
 0001:0006b4e0       _copy_environ              0046c4e0 f   LIBCMTD:setenv.obj
 0001:0006c210       __unwindfunclet$?String2Char@@YAHV?$basic_string@DU?$char_traits@D@std@@V?$allocator@D@2@@std@@QAD@Z$0 0046d210 f   facebook.obj
 0001:0006c218       __ehhandler$?String2Char@@YAHV?$basic_string@DU?$char_traits@D@std@@V?$allocator@D@2@@std@@QAD@Z 0046d218 f   facebook.obj
 0001:0006c233       __unwindfunclet$?String2CharPointer@@YAPADV?$basic_string@DU?$char_traits@D@std@@V?$allocator@D@2@@std@@@Z$0 0046d233 f   facebook.obj
 0001:0006c23b       __ehhandler$?String2CharPointer@@YAPADV?$basic_string@DU?$char_traits@D@std@@V?$allocator@D@2@@std@@@Z 0046d23b f   facebook.obj
 0001:0006c256       __unwindfunclet$?GetFBStatuses@@YA?AUFbStatus@@V?$basic_string@DU?$char_traits@D@std@@V?$allocator@D@2@@std@@00@Z$0 0046d256 f   facebook.obj
 0001:0006c261       __unwindfunclet$?GetFBStatuses@@YA?AUFbStatus@@V?$basic_string@DU?$char_traits@D@std@@V?$allocator@D@2@@std@@00@Z$1 0046d261 f   facebook.obj
 0001:0006c26c       __unwindfunclet$?GetFBStatuses@@YA?AUFbStatus@@V?$basic_string@DU?$char_traits@D@std@@V?$allocator@D@2@@std@@00@Z$2 0046d26c f   facebook.obj
 0001:0006c277       __unwindfunclet$?GetFBStatuses@@YA?AUFbStatus@@V?$basic_string@DU?$char_traits@D@std@@V?$allocator@D@2@@std@@00@Z$3 0046d277 f   facebook.obj
 0001:0006c282       __unwindfunclet$?GetFBStatuses@@YA?AUFbStatus@@V?$basic_string@DU?$char_traits@D@std@@V?$allocator@D@2@@std@@00@Z$4 0046d282 f   facebook.obj
 0001:0006c28d       __unwindfunclet$?GetFBStatuses@@YA?AUFbStatus@@V?$basic_string@DU?$char_traits@D@std@@V?$allocator@D@2@@std@@00@Z$5 0046d28d f   facebook.obj
 0001:0006c295       __unwindfunclet$?GetFBStatuses@@YA?AUFbStatus@@V?$basic_string@DU?$char_traits@D@std@@V?$allocator@D@2@@std@@00@Z$6 0046d295 f   facebook.obj
 0001:0006c29d       __unwindfunclet$?GetFBStatuses@@YA?AUFbStatus@@V?$basic_string@DU?$char_traits@D@std@@V?$allocator@D@2@@std@@00@Z$7 0046d29d f   facebook.obj
 0001:0006c2a5       __unwindfunclet$?GetFBStatuses@@YA?AUFbStatus@@V?$basic_string@DU?$char_traits@D@std@@V?$allocator@D@2@@std@@00@Z$8 0046d2a5 f   facebook.obj
 0001:0006c2ad       __unwindfunclet$?GetFBStatuses@@YA?AUFbStatus@@V?$basic_string@DU?$char_traits@D@std@@V?$allocator@D@2@@std@@00@Z$9 0046d2ad f   facebook.obj
 0001:0006c2b8       __unwindfunclet$?GetFBStatuses@@YA?AUFbStatus@@V?$basic_string@DU?$char_traits@D@std@@V?$allocator@D@2@@std@@00@Z$10 0046d2b8 f   facebook.obj
 0001:0006c2c0       __unwindfunclet$?GetFBStatuses@@YA?AUFbStatus@@V?$basic_string@DU?$char_traits@D@std@@V?$allocator@D@2@@std@@00@Z$11 0046d2c0 f   facebook.obj
 0001:0006c2c8       __unwindfunclet$?GetFBStatuses@@YA?AUFbStatus@@V?$basic_string@DU?$char_traits@D@std@@V?$allocator@D@2@@std@@00@Z$12 0046d2c8 f   facebook.obj
 0001:0006c2d0       __ehhandler$?GetFBStatuses@@YA?AUFbStatus@@V?$basic_string@DU?$char_traits@D@std@@V?$allocator@D@2@@std@@00@Z 0046d2d0 f   facebook.obj
 0001:0006c2fb       __unwindfunclet$?UpStatusFb@@YAHV?$basic_string@DU?$char_traits@D@std@@V?$allocator@D@2@@std@@00@Z$0 0046d2fb f   facebook.obj
 0001:0006c306       __unwindfunclet$?UpStatusFb@@YAHV?$basic_string@DU?$char_traits@D@std@@V?$allocator@D@2@@std@@00@Z$1 0046d306 f   facebook.obj
 0001:0006c311       __unwindfunclet$?UpStatusFb@@YAHV?$basic_string@DU?$char_traits@D@std@@V?$allocator@D@2@@std@@00@Z$2 0046d311 f   facebook.obj
 0001:0006c31c       __unwindfunclet$?UpStatusFb@@YAHV?$basic_string@DU?$char_traits@D@std@@V?$allocator@D@2@@std@@00@Z$3 0046d31c f   facebook.obj
 0001:0006c327       __unwindfunclet$?UpStatusFb@@YAHV?$basic_string@DU?$char_traits@D@std@@V?$allocator@D@2@@std@@00@Z$4 0046d327 f   facebook.obj
 0001:0006c32f       __unwindfunclet$?UpStatusFb@@YAHV?$basic_string@DU?$char_traits@D@std@@V?$allocator@D@2@@std@@00@Z$5 0046d32f f   facebook.obj
 0001:0006c337       __unwindfunclet$?UpStatusFb@@YAHV?$basic_string@DU?$char_traits@D@std@@V?$allocator@D@2@@std@@00@Z$6 0046d337 f   facebook.obj
 0001:0006c33f       __unwindfunclet$?UpStatusFb@@YAHV?$basic_string@DU?$char_traits@D@std@@V?$allocator@D@2@@std@@00@Z$7 0046d33f f   facebook.obj
 0001:0006c34a       __unwindfunclet$?UpStatusFb@@YAHV?$basic_string@DU?$char_traits@D@std@@V?$allocator@D@2@@std@@00@Z$8 0046d34a f   facebook.obj
 0001:0006c352       __unwindfunclet$?UpStatusFb@@YAHV?$basic_string@DU?$char_traits@D@std@@V?$allocator@D@2@@std@@00@Z$9 0046d352 f   facebook.obj
 0001:0006c35a       __unwindfunclet$?UpStatusFb@@YAHV?$basic_string@DU?$char_traits@D@std@@V?$allocator@D@2@@std@@00@Z$10 0046d35a f   facebook.obj
 0001:0006c362       __unwindfunclet$?UpStatusFb@@YAHV?$basic_string@DU?$char_traits@D@std@@V?$allocator@D@2@@std@@00@Z$11 0046d362 f   facebook.obj
 0001:0006c36a       __ehhandler$?UpStatusFb@@YAHV?$basic_string@DU?$char_traits@D@std@@V?$allocator@D@2@@std@@00@Z 0046d36a f   facebook.obj
 0001:0006c395       __unwindfunclet$?DecodeMessage@@YAXPADAAV?$basic_string@DU?$char_traits@D@std@@V?$allocator@D@2@@std@@@Z$4 0046d395 f   facebook.obj
 0001:0006c39d       __unwindfunclet$?DecodeMessage@@YAXPADAAV?$basic_string@DU?$char_traits@D@std@@V?$allocator@D@2@@std@@@Z$8 0046d39d f   facebook.obj
 0001:0006c3a5       __unwindfunclet$?DecodeMessage@@YAXPADAAV?$basic_string@DU?$char_traits@D@std@@V?$allocator@D@2@@std@@@Z$9 0046d3a5 f   facebook.obj
 0001:0006c3ad       __unwindfunclet$?DecodeMessage@@YAXPADAAV?$basic_string@DU?$char_traits@D@std@@V?$allocator@D@2@@std@@@Z$2 0046d3ad f   facebook.obj
 0001:0006c3b8       __unwindfunclet$?DecodeMessage@@YAXPADAAV?$basic_string@DU?$char_traits@D@std@@V?$allocator@D@2@@std@@@Z$7 0046d3b8 f   facebook.obj
 0001:0006c3c0       __unwindfunclet$?DecodeMessage@@YAXPADAAV?$basic_string@DU?$char_traits@D@std@@V?$allocator@D@2@@std@@@Z$10 0046d3c0 f   facebook.obj
 0001:0006c3c8       __unwindfunclet$?DecodeMessage@@YAXPADAAV?$basic_string@DU?$char_traits@D@std@@V?$allocator@D@2@@std@@@Z$6 0046d3c8 f   facebook.obj
 0001:0006c3d0       __unwindfunclet$?DecodeMessage@@YAXPADAAV?$basic_string@DU?$char_traits@D@std@@V?$allocator@D@2@@std@@@Z$3 0046d3d0 f   facebook.obj
 0001:0006c3db       __unwindfunclet$?DecodeMessage@@YAXPADAAV?$basic_string@DU?$char_traits@D@std@@V?$allocator@D@2@@std@@@Z$5 0046d3db f   facebook.obj
 0001:0006c3e6       __ehhandler$?DecodeMessage@@YAXPADAAV?$basic_string@DU?$char_traits@D@std@@V?$allocator@D@2@@std@@@Z 0046d3e6 f   facebook.obj
 0001:0006c404       __unwindfunclet$?str2chr@@YAXQADV?$basic_string@DU?$char_traits@D@std@@V?$allocator@D@2@@std@@@Z$0 0046d404 f   facebook.obj
 0001:0006c40c       __ehhandler$?str2chr@@YAXQADV?$basic_string@DU?$char_traits@D@std@@V?$allocator@D@2@@std@@@Z 0046d40c f   facebook.obj
 0001:0006c427       __unwindfunclet$??0?$basic_string@DU?$char_traits@D@std@@V?$allocator@D@2@@std@@QAE@PBD@Z$0 0046d427 f   facebook.obj
 0001:0006c42f       __ehhandler$??0?$basic_string@DU?$char_traits@D@std@@V?$allocator@D@2@@std@@QAE@PBD@Z 0046d42f f   facebook.obj
 0001:0006c44a       __unwindfunclet$??0?$basic_string@DU?$char_traits@D@std@@V?$allocator@D@2@@std@@QAE@ID@Z$0 0046d44a f   facebook.obj
 0001:0006c452       __ehhandler$??0?$basic_string@DU?$char_traits@D@std@@V?$allocator@D@2@@std@@QAE@ID@Z 0046d452 f   facebook.obj
 0001:0006c46d       __unwindfunclet$??0?$basic_string@DU?$char_traits@D@std@@V?$allocator@D@2@@std@@QAE@ABV01@@Z$0 0046d46d f   facebook.obj
 0001:0006c475       __ehhandler$??0?$basic_string@DU?$char_traits@D@std@@V?$allocator@D@2@@std@@QAE@ABV01@@Z 0046d475 f   facebook.obj
 0001:0006c490       __unwindfunclet$??1?$basic_string@DU?$char_traits@D@std@@V?$allocator@D@2@@std@@QAE@XZ$0 0046d490 f   facebook.obj
 0001:0006c498       __ehhandler$??1?$basic_string@DU?$char_traits@D@std@@V?$allocator@D@2@@std@@QAE@XZ 0046d498 f   facebook.obj
 0001:0006c4b3       __ehhandler$?_Copy@?$basic_string@DU?$char_traits@D@std@@V?$allocator@D@2@@std@@IAEXII@Z 0046d4b3 f   facebook.obj
 0001:0006c4ce       __unwindfunclet$??$?HDU?$char_traits@D@std@@V?$allocator@D@1@@std@@YA?AV?$basic_string@DU?$char_traits@D@std@@V?$allocator@D@2@@0@ABV10@0@Z$0 0046d4ce f   facebook.obj
 0001:0006c4d6       __unwindfunclet$??$?HDU?$char_traits@D@std@@V?$allocator@D@1@@std@@YA?AV?$basic_string@DU?$char_traits@D@std@@V?$allocator@D@2@@0@ABV10@0@Z$1 0046d4d6 f   facebook.obj
 0001:0006c4ef       __ehhandler$??$?HDU?$char_traits@D@std@@V?$allocator@D@1@@std@@YA?AV?$basic_string@DU?$char_traits@D@std@@V?$allocator@D@2@@0@ABV10@0@Z 0046d4ef f   facebook.obj
 0001:0006c50a       __unwindfunclet$??$?HDU?$char_traits@D@std@@V?$allocator@D@1@@std@@YA?AV?$basic_string@DU?$char_traits@D@std@@V?$allocator@D@2@@0@ABV10@PBD@Z$0 0046d50a f   facebook.obj
 0001:0006c512       __unwindfunclet$??$?HDU?$char_traits@D@std@@V?$allocator@D@1@@std@@YA?AV?$basic_string@DU?$char_traits@D@std@@V?$allocator@D@2@@0@ABV10@PBD@Z$1 0046d512 f   facebook.obj
 0001:0006c52b       __ehhandler$??$?HDU?$char_traits@D@std@@V?$allocator@D@1@@std@@YA?AV?$basic_string@DU?$char_traits@D@std@@V?$allocator@D@2@@0@ABV10@PBD@Z 0046d52b f   facebook.obj
 0001:0006c546       __unwindfunclet$??$?HDU?$char_traits@D@std@@V?$allocator@D@1@@std@@YA?AV?$basic_string@DU?$char_traits@D@std@@V?$allocator@D@2@@0@PBDABV10@@Z$0 0046d546 f   facebook.obj
 0001:0006c54e       __unwindfunclet$??$?HDU?$char_traits@D@std@@V?$allocator@D@1@@std@@YA?AV?$basic_string@DU?$char_traits@D@std@@V?$allocator@D@2@@0@PBDABV10@@Z$1 0046d54e f   facebook.obj
 0001:0006c567       __ehhandler$??$?HDU?$char_traits@D@std@@V?$allocator@D@1@@std@@YA?AV?$basic_string@DU?$char_traits@D@std@@V?$allocator@D@2@@0@PBDABV10@@Z 0046d567 f   facebook.obj
 0001:0006c582       __unwindfunclet$?AsAnsiString@@YAPADPB_W@Z$0 0046d582 f   net.obj
 0001:0006c590       __ehhandler$?AsAnsiString@@YAPADPB_W@Z 0046d590 f   net.obj
 0001:0006c5ab       __unwindfunclet$?fb_receiveloop@@YAHXZ$2 0046d5ab f   rBot.obj
 0001:0006c5b3       __unwindfunclet$?fb_receiveloop@@YAHXZ$3 0046d5b3 f   rBot.obj
 0001:0006c5bb       __unwindfunclet$?fb_receiveloop@@YAHXZ$4 0046d5bb f   rBot.obj
 0001:0006c5c3       __unwindfunclet$?fb_receiveloop@@YAHXZ$5 0046d5c3 f   rBot.obj
 0001:0006c5cb       __unwindfunclet$?fb_receiveloop@@YAHXZ$6 0046d5cb f   rBot.obj
 0001:0006c5d3       __unwindfunclet$?fb_receiveloop@@YAHXZ$7 0046d5d3 f   rBot.obj
 0001:0006c5db       __ehhandler$?fb_receiveloop@@YAHXZ 0046d5db f   rBot.obj
 0001:0006c610       __unwindfunclet$?_Xlen@_String_base@std@@SAXXZ$0 0046d610 f   libcpmtd:string.obj
 0001:0006c618       __ehhandler$?_Xlen@_String_base@std@@SAXXZ 0046d618 f   libcpmtd:string.obj
 0001:0006c640       __unwindfunclet$??0logic_error@std@@QAE@ABV?$basic_string@DU?$char_traits@D@std@@V?$allocator@D@2@@1@@Z$0 0046d640 f   libcpmtd:string.obj
 0001:0006c648       __ehhandler$??0logic_error@std@@QAE@ABV?$basic_string@DU?$char_traits@D@std@@V?$allocator@D@2@@1@@Z 0046d648 f   libcpmtd:string.obj
 0001:0006c670       __unwindfunclet$??0logic_error@std@@QAE@ABV01@@Z$0 0046d670 f   libcpmtd:string.obj
 0001:0006c678       __ehhandler$??0logic_error@std@@QAE@ABV01@@Z 0046d678 f   libcpmtd:string.obj
 0001:0006c6a0       __unwindfunclet$?_Xran@_String_base@std@@SAXXZ$0 0046d6a0 f   libcpmtd:string.obj
 0001:0006c6a8       __ehhandler$?_Xran@_String_base@std@@SAXXZ 0046d6a8 f   libcpmtd:string.obj
 0001:0006c6d0       __unwindfunclet$?_Xinvarg@_String_base@std@@SAXXZ$0 0046d6d0 f   libcpmtd:string.obj
 0001:0006c6d8       __ehhandler$?_Xinvarg@_String_base@std@@SAXXZ 0046d6d8 f   libcpmtd:string.obj
 0001:0006c700       __unwindfunclet$?strtoxl@@YAKPAUlocaleinfo_struct@@PBDPAPBDHH@Z$0 0046d700 f   LIBCMTD:strtol.obj
 0001:0006c708       __ehhandler$?strtoxl@@YAKPAUlocaleinfo_struct@@PBDPAPBDHH@Z 0046d708 f   LIBCMTD:strtol.obj
 0001:0006c730       __unwindfunclet$?strtoxq@@YA_KPAUlocaleinfo_struct@@PBDPAPBDHH@Z$0 0046d730 f   LIBCMTD:strtoq.obj
 0001:0006c738       __ehhandler$?strtoxq@@YA_KPAUlocaleinfo_struct@@PBDPAPBDHH@Z 0046d738 f   LIBCMTD:strtoq.obj
 0001:0006c760       __unwindfunclet$?getSystemCP@@YAHH@Z$0 0046d760 f   LIBCMTD:mbctype.obj
 0001:0006c768       __ehhandler$?getSystemCP@@YAHH@Z 0046d768 f   LIBCMTD:mbctype.obj
 0001:0006c790       __ehhandler$?CallUnexpected@@YAXPBU_s_ESTypeList@@@Z 0046d790 f   LIBCMTD:frame.obj
 0001:0006c7b0       __unwindfunclet$?x_ismbbtype_l@@YAHPAUlocaleinfo_struct@@IHH@Z$0 0046d7b0 f   LIBCMTD:ismbbyte.obj
 0001:0006c7b8       __ehhandler$?x_ismbbtype_l@@YAHPAUlocaleinfo_struct@@IHH@Z 0046d7b8 f   LIBCMTD:ismbbyte.obj
 0001:0006c7e0       __unwindfunclet$?make@DNameStatusNode@@SAPAV1@W4DNameStatus@@@Z$0 0046d7e0 f   LIBCMTD:undname.obj
 0001:0006c7ee       __ehhandler$?make@DNameStatusNode@@SAPAV1@W4DNameStatus@@@Z 0046d7ee f   LIBCMTD:undname.obj
 0001:0006c810       __unwindfunclet$?wcstoxl@@YAKPAUlocaleinfo_struct@@PB_WPAPB_WHH@Z$0 0046d810 f   LIBCMTD:wcstol.obj
 0001:0006c818       __ehhandler$?wcstoxl@@YAKPAUlocaleinfo_struct@@PB_WPAPB_WHH@Z 0046d818 f   LIBCMTD:wcstol.obj
 0001:0006c840       ??__Einitlocks@std@@YAXXZ  0046d840 f   libcpmtd:xlock.obj
 0001:0006c860       ??__Fnomem@?4???2@YAPAXIABU_DebugHeapTag_t@std@@PADH@Z@YAXXZ 0046d860 f   libcpmtd:xdebug.obj
 0001:0006c880       ??__Finitlocks@std@@YAXXZ  0046d880 f   libcpmtd:xlock.obj
 0001:0006c8a0       ??__Fnomem@?5???2@YAPAXI@Z@YAXXZ 0046d8a0 f   LIBCMTD:new.obj
